---
triple:          'arm64-apple-darwin'
binary-path:     'src/dmengine'
relocations:
  - { offset: 0x26, size: 0x8, addend: 0x0, symName: _main, symObjAddr: 0x0, symBinAddr: 0x100004000, symSize: 0x4 }
  - { offset: 0x33, size: 0x8, addend: 0x0, symName: _main, symObjAddr: 0x0, symBinAddr: 0x100004000, symSize: 0x4 }
  - { offset: 0x6A, size: 0x8, addend: 0x0, symName: _main, symObjAddr: 0x0, symBinAddr: 0x100004000, symSize: 0x4 }
  - { offset: 0xDB, size: 0x8, addend: 0x0, symName: _dmExportedSymbols, symObjAddr: 0x0, symBinAddr: 0x100004004, symSize: 0xA4 }
  - { offset: 0xE8, size: 0x8, addend: 0x0, symName: _dmExportedSymbols, symObjAddr: 0x0, symBinAddr: 0x100004004, symSize: 0xA4 }
  - { offset: 0x435, size: 0x8, addend: 0x0, symName: __ZL13rmtp_Script_p, symObjAddr: 0x38E00, symBinAddr: 0x100352B40, symSize: 0x0 }
  - { offset: 0x4A0, size: 0x8, addend: 0x0, symName: __ZN8dmEngine15g_EngineServiceE, symObjAddr: 0x38E68, symBinAddr: 0x100368940, symSize: 0x0 }
  - { offset: 0x4B9, size: 0x8, addend: 0x0, symName: __ZN8dmEngine21g_EngineUpdateEnabledE, symObjAddr: 0x632B, symBinAddr: 0x1002CEFC0, symSize: 0x0 }
  - { offset: 0x4D2, size: 0x8, addend: 0x0, symName: __ZN8dmEngine21g_EngineRenderEnabledE, symObjAddr: 0x632C, symBinAddr: 0x1002CEFC1, symSize: 0x0 }
  - { offset: 0x4DF, size: 0x8, addend: 0x0, symName: __ZN8dmEngine4InitEPNS_6EngineEiPPc, symObjAddr: 0xAA8, symBinAddr: 0x100004A1C, symSize: 0x2318 }
  - { offset: 0x50A, size: 0x8, addend: 0x0, symName: __ZZN8dmEngine4InitEPNS_6EngineEiPPcE10_scope1025, symObjAddr: 0x38E08, symBinAddr: 0x100352B48, symSize: 0x0 }
  - { offset: 0x2DE2, size: 0x8, addend: 0x0, symName: __ZN8dmEngineL20CrashHandlerCallbackEPvPcj, symObjAddr: 0x2DC0, symBinAddr: 0x100006D34, symSize: 0x4C }
  - { offset: 0x2DEC, size: 0x8, addend: 0x0, symName: __ZN8dmEngine4StepEPNS_6EngineE, symObjAddr: 0x3680, symBinAddr: 0x1000075D8, symSize: 0x95C }
  - { offset: 0x2E13, size: 0x8, addend: 0x0, symName: __ZZN8dmEngine4StepEPNS_6EngineEE10_scope2237, symObjAddr: 0x38E10, symBinAddr: 0x100352B50, symSize: 0x0 }
  - { offset: 0x4413, size: 0x8, addend: 0x0, symName: __ZN8dmEngine6DeleteEPNS_6EngineE, symObjAddr: 0x384, symBinAddr: 0x100004384, symSize: 0x450 }
  - { offset: 0x4DE8, size: 0x8, addend: 0x0, symName: __ZN8dmEngineL27SetupComponentCreateContextEPNS_6EngineERN12dmGameObject22ComponentTypeCreateCtxE, symObjAddr: 0x7D4, symBinAddr: 0x1000047D4, symSize: 0xE8 }
  - { offset: 0x4EEE, size: 0x8, addend: 0x0, symName: __ZN8dmEngine23ConvertMinTextureFilterEPKc, symObjAddr: 0x9C0, symBinAddr: 0x10000495C, symSize: 0xC0 }
  - { offset: 0x511E, size: 0x8, addend: 0x0, symName: __ZN8dmEngineL23UpdateGuiSafeAreaAdjustEPNS_6EngineEjj, symObjAddr: 0x30F8, symBinAddr: 0x10000706C, symSize: 0x80 }
  - { offset: 0x5199, size: 0x8, addend: 0x0, symName: __ZN8dmEngineL25SetupPhysicsContextParamsEPN12dmGameSystem14PhysicsContextEP10ConfigFile, symObjAddr: 0x3178, symBinAddr: 0x1000070EC, symSize: 0x128 }
  - { offset: 0x52BA, size: 0x8, addend: 0x0, symName: __ZN8dmEngine20LoadBootstrapContentEPNS_6EngineEP10ConfigFile, symObjAddr: 0x33DC, symBinAddr: 0x100007350, symSize: 0x17C }
  - { offset: 0x54DC, size: 0x8, addend: 0x0, symName: __ZN8dmEngineL27SetupStreamingResourceTypesEPNS_6EngineE, symObjAddr: 0x3558, symBinAddr: 0x1000074CC, symSize: 0xEC }
  - { offset: 0x5635, size: 0x8, addend: 0x0, symName: __ZN8dmEngineL20CrashHandlerCallbackEPvPcj, symObjAddr: 0x2DC0, symBinAddr: 0x100006D34, symSize: 0x4C }
  - { offset: 0x5712, size: 0x8, addend: 0x0, symName: __ZN8dmEngineL14OnWindowResizeEPvjj, symObjAddr: 0x2E0C, symBinAddr: 0x100006D80, symSize: 0x154 }
  - { offset: 0x591B, size: 0x8, addend: 0x0, symName: __ZN8dmEngineL13OnWindowCloseEPv, symObjAddr: 0x2F60, symBinAddr: 0x100006ED4, symSize: 0xC }
  - { offset: 0x595A, size: 0x8, addend: 0x0, symName: __ZN8dmEngineL13OnWindowFocusEPvj, symObjAddr: 0x2F6C, symBinAddr: 0x100006EE0, symSize: 0x60 }
  - { offset: 0x5A9A, size: 0x8, addend: 0x0, symName: __ZN8dmEngineL15OnWindowIconifyEPvj, symObjAddr: 0x2FCC, symBinAddr: 0x100006F40, symSize: 0x78 }
  - { offset: 0x5BE6, size: 0x8, addend: 0x0, symName: __ZN8dmEngineL15SetSwapIntervalEPNS_6EngineEi, symObjAddr: 0x3044, symBinAddr: 0x100006FB8, symSize: 0x48 }
  - { offset: 0x5C4F, size: 0x8, addend: 0x0, symName: __ZN8dmEngine17SetEngineThrottleEPNS_6EngineEbf, symObjAddr: 0x3644, symBinAddr: 0x1000075B8, symSize: 0x14 }
  - { offset: 0x5C93, size: 0x8, addend: 0x0, symName: __ZN8dmEngine16SetRenderEnabledEb, symObjAddr: 0x3664, symBinAddr: 0x1000075CC, symSize: 0xC }
  - { offset: 0x602C, size: 0x8, addend: 0x0, symName: __ZN8dmEngineL19GetLuaStackTraceCbkEP9lua_StateP9lua_DebugPv, symObjAddr: 0x4474, symBinAddr: 0x100008338, symSize: 0x8C }
  - { offset: 0x60D2, size: 0x8, addend: 0x0, symName: __ZN8dmEngineL16GOActionCallbackEyPN7dmInput6ActionEPv, symObjAddr: 0x4500, symBinAddr: 0x1000083C4, symSize: 0x32C }
  - { offset: 0x62BA, size: 0x8, addend: 0x0, symName: __ZN8dmEngineL20InputBufferOrderSortEPKvS1_, symObjAddr: 0x482C, symBinAddr: 0x1000086F0, symSize: 0x18 }
  - { offset: 0x6393, size: 0x8, addend: 0x0, symName: __ZN8dmEngineL8DispatchEPN9dmMessage7MessageEPv, symObjAddr: 0x4844, symBinAddr: 0x100008708, symSize: 0x528 }
  - { offset: 0xB9D1, size: 0x8, addend: 0x0, symName: __ZN8dmEngine6EngineC2EPN15dmEngineService13EngineServiceE, symObjAddr: 0x7C, symBinAddr: 0x1000040A8, symSize: 0x180 }
  - { offset: 0xBBB0, size: 0x8, addend: 0x0, symName: __ZN11dmHashTableIyPvE11SetCapacityEjj, symObjAddr: 0x1FC, symBinAddr: 0x100004228, symSize: 0x15C }
  - { offset: 0xBBE6, size: 0x8, addend: 0x0, symName: __ZN11dmHashTableIyPvE11SetCapacityEjj, symObjAddr: 0x1FC, symBinAddr: 0x100004228, symSize: 0x15C }
  - { offset: 0xBDE2, size: 0x8, addend: 0x0, symName: __ZN8dmEngine6EngineC2EPN15dmEngineService13EngineServiceE.cold.1, symObjAddr: 0x4E14, symBinAddr: 0x10024C7F0, symSize: 0x28 }
  - { offset: 0xBF00, size: 0x8, addend: 0x0, symName: __ZN11dmHashTableIyPvE3PutEyRKS0_, symObjAddr: 0x32A0, symBinAddr: 0x100007214, symSize: 0x13C }
  - { offset: 0xC050, size: 0x8, addend: 0x0, symName: __ZN8dmEngine20LoadBootstrapContentEPNS_6EngineEP10ConfigFile, symObjAddr: 0x33DC, symBinAddr: 0x100007350, symSize: 0x17C }
  - { offset: 0xC090, size: 0x8, addend: 0x0, symName: __ZN11dmHashTableIyPvE11SetCapacityEjj.cold.2, symObjAddr: 0x4E64, symBinAddr: 0x10024C840, symSize: 0x28 }
  - { offset: 0xC0A8, size: 0x8, addend: 0x0, symName: __ZN11dmHashTableIyPvE11SetCapacityEjj.cold.1, symObjAddr: 0x4E3C, symBinAddr: 0x10024C818, symSize: 0x28 }
  - { offset: 0xC0C0, size: 0x8, addend: 0x0, symName: __ZN11dmHashTableIyPvE11SetCapacityEjj.cold.4, symObjAddr: 0x4EB4, symBinAddr: 0x10024C890, symSize: 0x28 }
  - { offset: 0xC0D8, size: 0x8, addend: 0x0, symName: __ZN11dmHashTableIyPvE11SetCapacityEjj.cold.3, symObjAddr: 0x4E8C, symBinAddr: 0x10024C868, symSize: 0x28 }
  - { offset: 0xC4C8, size: 0x8, addend: 0x0, symName: __ZN8dmEngine21ScopedExtensionParamsC2EPNS_6EngineE, symObjAddr: 0x4330, symBinAddr: 0x1000081F4, symSize: 0x144 }
  - { offset: 0xC748, size: 0x8, addend: 0x0, symName: __ZN8dmEngine21ScopedExtensionParams13SetLuaContextEPN8dmScript7ContextE, symObjAddr: 0x920, symBinAddr: 0x1000048BC, symSize: 0x50 }
  - { offset: 0xC7AF, size: 0x8, addend: 0x0, symName: __ZN12dmGameObject22ComponentTypeCreateCtxD1Ev, symObjAddr: 0x970, symBinAddr: 0x10000490C, symSize: 0x50 }
  - { offset: 0xC7D3, size: 0x8, addend: 0x0, symName: __ZN12dmGameObject22ComponentTypeCreateCtxD1Ev, symObjAddr: 0x970, symBinAddr: 0x10000490C, symSize: 0x50 }
  - { offset: 0xC7F1, size: 0x8, addend: 0x0, symName: __ZN12dmGameObject22ComponentTypeCreateCtxD1Ev, symObjAddr: 0x970, symBinAddr: 0x10000490C, symSize: 0x50 }
  - { offset: 0xC80F, size: 0x8, addend: 0x0, symName: __ZN12dmGameObject22ComponentTypeCreateCtxD1Ev, symObjAddr: 0x970, symBinAddr: 0x10000490C, symSize: 0x50 }
  - { offset: 0xC82D, size: 0x8, addend: 0x0, symName: __ZN12dmGameObject22ComponentTypeCreateCtxD1Ev, symObjAddr: 0x970, symBinAddr: 0x10000490C, symSize: 0x50 }
  - { offset: 0xEB11, size: 0x8, addend: 0x0, symName: __ZN7dmArrayIPN8dmScript7ContextEE11SetCapacityEj, symObjAddr: 0x308C, symBinAddr: 0x100007000, symSize: 0x2C }
  - { offset: 0xEB5F, size: 0x8, addend: 0x0, symName: __ZN7dmArrayIPN8dmScript7ContextEE4PushERKS2_, symObjAddr: 0x30B8, symBinAddr: 0x10000702C, symSize: 0x40 }
  - { offset: 0xEB6A, size: 0x8, addend: 0x0, symName: __ZN7dmArrayIPN8dmScript7ContextEE4PushERKS2_, symObjAddr: 0x30B8, symBinAddr: 0x10000702C, symSize: 0x40 }
  - { offset: 0xEBA5, size: 0x8, addend: 0x0, symName: __ZN7dmArrayIPN8dmScript7ContextEE4PushERKS2_, symObjAddr: 0x30B8, symBinAddr: 0x10000702C, symSize: 0x40 }
  - { offset: 0xEBDF, size: 0x8, addend: 0x0, symName: __ZN8dmEngineL23UpdateGuiSafeAreaAdjustEPNS_6EngineEjj, symObjAddr: 0x30F8, symBinAddr: 0x10000706C, symSize: 0x80 }
  - { offset: 0xED98, size: 0x8, addend: 0x0, symName: __ZN8dmEngine4InitEPNS_6EngineEiPPc.cold.1, symObjAddr: 0x4EDC, symBinAddr: 0x10024C8B8, symSize: 0x28 }
  - { offset: 0xEF2C, size: 0x8, addend: 0x0, symName: __ZN7dmArrayIPN8dmScript7ContextEE4PushERKS2_.cold.1, symObjAddr: 0x4F2C, symBinAddr: 0x10024C8E0, symSize: 0x28 }
  - { offset: 0xEFCF, size: 0x8, addend: 0x0, symName: __ZN11dmHashTableIyPvE3PutEyRKS0_.cold.2, symObjAddr: 0x4F7C, symBinAddr: 0x10024C930, symSize: 0x28 }
  - { offset: 0xEFE7, size: 0x8, addend: 0x0, symName: __ZN11dmHashTableIyPvE3PutEyRKS0_.cold.1, symObjAddr: 0x4F54, symBinAddr: 0x10024C908, symSize: 0x28 }
  - { offset: 0xF469, size: 0x8, addend: 0x0, symName: __Z18dmEngineInitializev, symObjAddr: 0x3FF0, symBinAddr: 0x100007F34, symSize: 0x80 }
  - { offset: 0xF693, size: 0x8, addend: 0x0, symName: __Z16dmEngineFinalizev, symObjAddr: 0x4070, symBinAddr: 0x100007FB4, symSize: 0x34 }
  - { offset: 0xF775, size: 0x8, addend: 0x0, symName: __Z14dmEngineCreateiPPc, symObjAddr: 0x4124, symBinAddr: 0x100007FE8, symSize: 0xD8 }
  - { offset: 0xF96D, size: 0x8, addend: 0x0, symName: __Z15dmEngineDestroyPN8dmEngine6EngineE, symObjAddr: 0x41FC, symBinAddr: 0x1000080C0, symSize: 0x44 }
  - { offset: 0xFA06, size: 0x8, addend: 0x0, symName: __Z14dmEngineUpdatePN8dmEngine6EngineE, symObjAddr: 0x4240, symBinAddr: 0x100008104, symSize: 0x50 }
  - { offset: 0xFA38, size: 0x8, addend: 0x0, symName: __Z14dmEngineUpdatePN8dmEngine6EngineE, symObjAddr: 0x4240, symBinAddr: 0x100008104, symSize: 0x50 }
  - { offset: 0xFA83, size: 0x8, addend: 0x0, symName: __Z17dmEngineGetResultPN8dmEngine6EngineEPiS2_S2_PPPc, symObjAddr: 0x4290, symBinAddr: 0x100008154, symSize: 0xA0 }
  - { offset: 0xFC07, size: 0x8, addend: 0x0, symName: __GLOBAL__sub_I_engine.cpp, symObjAddr: 0x4FE0, symBinAddr: 0x100008C30, symSize: 0x50 }
  - { offset: 0xFC99, size: 0x8, addend: 0x0, symName: __GLOBAL__sub_I_engine.cpp.cold.1, symObjAddr: 0x5030, symBinAddr: 0x10024C958, symSize: 0x5C }
  - { offset: 0xFCDB, size: 0x8, addend: 0x0, symName: __GLOBAL__sub_I_engine.cpp.cold.2, symObjAddr: 0x508C, symBinAddr: 0x10024C9B4, symSize: 0x5C }
  - { offset: 0x12996, size: 0x8, addend: 0x0, symName: __Z11engine_mainiPPc, symObjAddr: 0x0, symBinAddr: 0x100008C80, symSize: 0x78 }
  - { offset: 0x13773, size: 0x8, addend: 0x0, symName: __Z11engine_mainiPPc, symObjAddr: 0x0, symBinAddr: 0x100008C80, symSize: 0x78 }
  - { offset: 0x1380D, size: 0x8, addend: 0x0, symName: __ZL9AppCreatePv, symObjAddr: 0x78, symBinAddr: 0x100008CF8, symSize: 0x4 }
  - { offset: 0x13835, size: 0x8, addend: 0x0, symName: __ZL9AppCreatePv, symObjAddr: 0x78, symBinAddr: 0x100008CF8, symSize: 0x4 }
  - { offset: 0x1384B, size: 0x8, addend: 0x0, symName: __ZL10AppDestroyPv, symObjAddr: 0x7C, symBinAddr: 0x100008CFC, symSize: 0x4 }
  - { offset: 0x13873, size: 0x8, addend: 0x0, symName: __ZL10AppDestroyPv, symObjAddr: 0x7C, symBinAddr: 0x100008CFC, symSize: 0x4 }
  - { offset: 0x13A6A, size: 0x8, addend: 0x0, symName: __ZN8dmEngine7RunLoopEPKNS_13RunLoopParamsE, symObjAddr: 0x0, symBinAddr: 0x100008D00, symSize: 0x3C }
  - { offset: 0x13A7D, size: 0x8, addend: 0x0, symName: __ZN8dmEngine7RunLoopEPKNS_13RunLoopParamsE, symObjAddr: 0x0, symBinAddr: 0x100008D00, symSize: 0x3C }
  - { offset: 0x13DFF, size: 0x8, addend: 0x0, symName: __ZN8dmEngine25ScriptSysEngineInitializeEP9lua_StatePNS_6EngineE, symObjAddr: 0x0, symBinAddr: 0x100008D3C, symSize: 0x64 }
  - { offset: 0x13E1D, size: 0x8, addend: 0x0, symName: __ZN8dmEngine8g_EngineE, symObjAddr: 0x6C90, symBinAddr: 0x100368948, symSize: 0x0 }
  - { offset: 0x141B9, size: 0x8, addend: 0x0, symName: __ZN8dmEngineL17EngineSys_methodsE, symObjAddr: 0x298, symBinAddr: 0x1002C0E88, symSize: 0x0 }
  - { offset: 0x141C7, size: 0x8, addend: 0x0, symName: __ZN8dmEngine25ScriptSysEngineInitializeEP9lua_StatePNS_6EngineE, symObjAddr: 0x0, symBinAddr: 0x100008D3C, symSize: 0x64 }
  - { offset: 0x14262, size: 0x8, addend: 0x0, symName: __ZN8dmEngine23ScriptSysEngineFinalizeEP9lua_StatePNS_6EngineE, symObjAddr: 0x64, symBinAddr: 0x100008DA0, symSize: 0xC }
  - { offset: 0x1426D, size: 0x8, addend: 0x0, symName: __ZN8dmEngine23ScriptSysEngineFinalizeEP9lua_StatePNS_6EngineE, symObjAddr: 0x64, symBinAddr: 0x100008DA0, symSize: 0xC }
  - { offset: 0x142A2, size: 0x8, addend: 0x0, symName: __ZN8dmEngineL27EngineSys_SetEngineThrottleEP9lua_State, symObjAddr: 0x70, symBinAddr: 0x100008DAC, symSize: 0xBC }
  - { offset: 0x1436F, size: 0x8, addend: 0x0, symName: __ZN8dmEngineL26EngineSys_SetRenderEnabledEP9lua_State, symObjAddr: 0x12C, symBinAddr: 0x100008E68, symSize: 0x94 }
  - { offset: 0x14E59, size: 0x8, addend: 0x0, symName: __ZN8dmEngine25ScriptSysEngineInitializeEP9lua_StatePNS_6EngineE.cold.1, symObjAddr: 0x1C0, symBinAddr: 0x10024CA10, symSize: 0x28 }
  - { offset: 0x150AE, size: 0x8, addend: 0x0, symName: __ZN18PhysicsDebugRender9DrawLinesEPN10Vectormath3Aos6Point3EjNS1_7Vector4EPv, symObjAddr: 0x0, symBinAddr: 0x100008EFC, symSize: 0x9C }
  - { offset: 0x151EA, size: 0x8, addend: 0x0, symName: __ZN18PhysicsDebugRender9DrawLinesEPN10Vectormath3Aos6Point3EjNS1_7Vector4EPv, symObjAddr: 0x0, symBinAddr: 0x100008EFC, symSize: 0x9C }
  - { offset: 0x1523F, size: 0x8, addend: 0x0, symName: __ZN18PhysicsDebugRender9DrawLinesEPN10Vectormath3Aos6Point3EjNS1_7Vector4EPv, symObjAddr: 0x0, symBinAddr: 0x100008EFC, symSize: 0x9C }
  - { offset: 0x153B6, size: 0x8, addend: 0x0, symName: __ZN18PhysicsDebugRender13DrawTrianglesEPN10Vectormath3Aos6Point3EjNS1_7Vector4EPv, symObjAddr: 0x9C, symBinAddr: 0x100008F98, symSize: 0x70 }
  - { offset: 0x1540B, size: 0x8, addend: 0x0, symName: __ZN18PhysicsDebugRender13DrawTrianglesEPN10Vectormath3Aos6Point3EjNS1_7Vector4EPv, symObjAddr: 0x9C, symBinAddr: 0x100008F98, symSize: 0x70 }
  - { offset: 0x156AD, size: 0x8, addend: 0x0, symName: _DEBUG_SPC, symObjAddr: 0x0, symBinAddr: 0x1002CEFD0, symSize: 0x0 }
  - { offset: 0x156DF, size: 0x8, addend: 0x0, symName: _DEBUG_SPC_SIZE, symObjAddr: 0x1AB0, symBinAddr: 0x1002D0A80, symSize: 0x0 }
  - { offset: 0x15725, size: 0x8, addend: 0x0, symName: _GAME_PROJECT, symObjAddr: 0x0, symBinAddr: 0x1002D0A90, symSize: 0x0 }
  - { offset: 0x15756, size: 0x8, addend: 0x0, symName: _GAME_PROJECT_SIZE, symObjAddr: 0x16C, symBinAddr: 0x1002D0BFC, symSize: 0x0 }
  - { offset: 0x1579C, size: 0x8, addend: 0x0, symName: _BUILTINS_ARCI, symObjAddr: 0x0, symBinAddr: 0x1002D0C00, symSize: 0x0 }
  - { offset: 0x157CE, size: 0x8, addend: 0x0, symName: _BUILTINS_ARCI_SIZE, symObjAddr: 0x1250, symBinAddr: 0x1002D1E50, symSize: 0x0 }
  - { offset: 0x15814, size: 0x8, addend: 0x0, symName: _BUILTINS_ARCD, symObjAddr: 0x0, symBinAddr: 0x1002D1E60, symSize: 0x0 }
  - { offset: 0x1584B, size: 0x8, addend: 0x0, symName: _BUILTINS_ARCD_SIZE, symObjAddr: 0x66284, symBinAddr: 0x1003380E4, symSize: 0x0 }
  - { offset: 0x15891, size: 0x8, addend: 0x0, symName: _BUILTINS_DMANIFEST, symObjAddr: 0x0, symBinAddr: 0x1003380F0, symSize: 0x0 }
  - { offset: 0x158C3, size: 0x8, addend: 0x0, symName: _BUILTINS_DMANIFEST_SIZE, symObjAddr: 0x1630, symBinAddr: 0x100339720, symSize: 0x0 }
  - { offset: 0x15913, size: 0x8, addend: 0x0, symName: _dmEngineDDF_HideApp_FIELDS_DESCRIPTOR, symObjAddr: 0x3140, symBinAddr: 0x100368950, symSize: 0x0 }
  - { offset: 0x1597D, size: 0x8, addend: 0x0, symName: _dmEngineDDF_HideApp_ONEOF_OFFSETS, symObjAddr: 0x3148, symBinAddr: 0x100368958, symSize: 0x0 }
  - { offset: 0x1599A, size: 0x8, addend: 0x0, symName: _dmEngineDDF_HideApp_DESCRIPTOR, symObjAddr: 0x3150, symBinAddr: 0x100368960, symSize: 0x0 }
  - { offset: 0x159AA, size: 0x8, addend: 0x0, symName: __ZN11dmEngineDDF7HideApp15m_DDFDescriptorE, symObjAddr: 0xF8, symBinAddr: 0x100339728, symSize: 0x0 }
  - { offset: 0x159EF, size: 0x8, addend: 0x0, symName: _g_Register_dmEngineDDF_HideApp, symObjAddr: 0x3198, symBinAddr: 0x1003689A8, symSize: 0x0 }
  - { offset: 0x15A0A, size: 0x8, addend: 0x0, symName: _dmEngineDDF_RunScript_FIELDS_DESCRIPTOR, symObjAddr: 0x100, symBinAddr: 0x100339730, symSize: 0x0 }
  - { offset: 0x15A2C, size: 0x8, addend: 0x0, symName: _dmEngineDDF_RunScript_ONEOF_OFFSETS, symObjAddr: 0x31A0, symBinAddr: 0x1003689B0, symSize: 0x0 }
  - { offset: 0x15A42, size: 0x8, addend: 0x0, symName: _dmEngineDDF_RunScript_DESCRIPTOR, symObjAddr: 0x31A8, symBinAddr: 0x1003689B8, symSize: 0x0 }
  - { offset: 0x15A52, size: 0x8, addend: 0x0, symName: __ZN11dmEngineDDF9RunScript15m_DDFDescriptorE, symObjAddr: 0x130, symBinAddr: 0x100339760, symSize: 0x0 }
  - { offset: 0x15A73, size: 0x8, addend: 0x0, symName: _g_Register_dmEngineDDF_RunScript, symObjAddr: 0x31F0, symBinAddr: 0x100368A00, symSize: 0x0 }
  - { offset: 0x15A99, size: 0x8, addend: 0x0, symName: __GLOBAL__sub_I_engine_ddf.cpp, symObjAddr: 0x4, symBinAddr: 0x100009008, symSize: 0xD4 }
  - { offset: 0x15CEA, size: 0x8, addend: 0x0, symName: __ZN15dmEngineService3NewEt, symObjAddr: 0x0, symBinAddr: 0x1000090DC, symSize: 0x7C }
  - { offset: 0x15D0F, size: 0x8, addend: 0x0, symName: __ZN15dmEngineService6UpdateEPNS_13EngineServiceEj, symObjAddr: 0x5F8, symBinAddr: 0x1000096CC, symSize: 0x70 }
  - { offset: 0x15D36, size: 0x8, addend: 0x0, symName: __ZZN15dmEngineService6UpdateEPNS_13EngineServiceEjE9_scope562, symObjAddr: 0x109A8, symBinAddr: 0x100352BA8, symSize: 0x0 }
  - { offset: 0x15E4C, size: 0x8, addend: 0x0, symName: __ZN15dmEngineServiceL13INFO_TEMPLATEE, symObjAddr: 0x21A0, symBinAddr: 0x100263E10, symSize: 0x0 }
  - { offset: 0x15E65, size: 0x8, addend: 0x0, symName: __ZN15dmEngineServiceL20DEVICE_DESC_TEMPLATEE, symObjAddr: 0x21FD, symBinAddr: 0x100263E6D, symSize: 0x0 }
  - { offset: 0x15E7E, size: 0x8, addend: 0x0, symName: __ZN15dmEngineServiceL21INTERNAL_SERVER_ERRORE, symObjAddr: 0x2453, symBinAddr: 0x1002640C3, symSize: 0x0 }
  - { offset: 0x15E8C, size: 0x8, addend: 0x0, symName: __ZN15dmEngineServiceL24OutputGuiDynamicTexturesEPN12dmGameObject9SceneNodeEPN11dmWebServer7RequestE, symObjAddr: 0x12E4, symBinAddr: 0x10000A3B8, symSize: 0xDC }
  - { offset: 0x15EB4, size: 0x8, addend: 0x0, symName: __MergedGlobals, symObjAddr: 0x109B0, symBinAddr: 0x100352BB0, symSize: 0x0 }
  - { offset: 0x15ECA, size: 0x8, addend: 0x0, symName: __MergedGlobals, symObjAddr: 0x109B0, symBinAddr: 0x100352BB0, symSize: 0x0 }
  - { offset: 0x15FCB, size: 0x8, addend: 0x0, symName: __ZN15dmEngineServiceL24OutputResourceSceneGraphEPN12dmGameObject9SceneNodeEjPjPN11dmWebServer7RequestE, symObjAddr: 0x13C0, symBinAddr: 0x10000A494, symSize: 0x2B0 }
  - { offset: 0x15FF2, size: 0x8, addend: 0x0, symName: __MergedGlobals, symObjAddr: 0x109B0, symBinAddr: 0x100352BB0, symSize: 0x0 }
  - { offset: 0x1600A, size: 0x8, addend: 0x0, symName: __MergedGlobals, symObjAddr: 0x109B0, symBinAddr: 0x100352BB0, symSize: 0x0 }
  - { offset: 0x16022, size: 0x8, addend: 0x0, symName: __MergedGlobals, symObjAddr: 0x109B0, symBinAddr: 0x100352BB0, symSize: 0x0 }
  - { offset: 0x163FB, size: 0x8, addend: 0x0, symName: __ZN15dmEngineServiceL14STATE_TEMPLATEE, symObjAddr: 0x246F, symBinAddr: 0x1002640DF, symSize: 0x0 }
  - { offset: 0x16669, size: 0x8, addend: 0x0, symName: __ZN15dmEngineService3NewEt, symObjAddr: 0x0, symBinAddr: 0x1000090DC, symSize: 0x7C }
  - { offset: 0x166F2, size: 0x8, addend: 0x0, symName: __ZN15dmEngineService6DeleteEPNS_13EngineServiceE, symObjAddr: 0x5A8, symBinAddr: 0x10000967C, symSize: 0x50 }
  - { offset: 0x1676E, size: 0x8, addend: 0x0, symName: __ZN15dmEngineService14GetServicePortEt, symObjAddr: 0x668, symBinAddr: 0x10000973C, symSize: 0x7C }
  - { offset: 0x1680A, size: 0x8, addend: 0x0, symName: __ZN15dmEngineService12GetWebServerEPNS_13EngineServiceE, symObjAddr: 0x6E4, symBinAddr: 0x1000097B8, symSize: 0xC }
  - { offset: 0x16839, size: 0x8, addend: 0x0, symName: __ZN15dmEngineService12InitProfilerEPNS_13EngineServiceEP15ResourceFactoryPN12dmGameObject8RegisterE, symObjAddr: 0x6F0, symBinAddr: 0x1000097C4, symSize: 0xB4 }
  - { offset: 0x16952, size: 0x8, addend: 0x0, symName: __ZN15dmEngineServiceL27HttpResourceRequestCallbackEPvPN11dmWebServer7RequestE, symObjAddr: 0x7A4, symBinAddr: 0x100009878, symSize: 0xD8 }
  - { offset: 0x16ABF, size: 0x8, addend: 0x0, symName: __ZN15dmEngineServiceL29HttpGameObjectRequestCallbackEPvPN11dmWebServer7RequestE, symObjAddr: 0x87C, symBinAddr: 0x100009950, symSize: 0xDC }
  - { offset: 0x16C68, size: 0x8, addend: 0x0, symName: __ZN15dmEngineServiceL29HttpSceneGraphRequestCallbackEPvPN11dmWebServer7RequestE, symObjAddr: 0x958, symBinAddr: 0x100009A2C, symSize: 0xB8 }
  - { offset: 0x16DAD, size: 0x8, addend: 0x0, symName: __ZN15dmEngineServiceL20OutputJsonSceneGraphEPN12dmGameObject9SceneNodeEPN11dmWebServer7RequestEi, symObjAddr: 0x1670, symBinAddr: 0x10000A744, symSize: 0x588 }
  - { offset: 0x1778D, size: 0x8, addend: 0x0, symName: __ZN15dmEngineServiceL14ProfileHandlerEPvPN11dmWebServer7RequestE, symObjAddr: 0xA10, symBinAddr: 0x100009AE4, symSize: 0x70 }
  - { offset: 0x17815, size: 0x8, addend: 0x0, symName: __ZN15dmEngineService9InitStateEPNS_13EngineServiceEPNS_11EngineStateE, symObjAddr: 0xA80, symBinAddr: 0x100009B54, symSize: 0x24 }
  - { offset: 0x178FB, size: 0x8, addend: 0x0, symName: __ZN15dmEngineServiceL24ResourceIteratorFunctionERKN10dmResource16IteratorResourceEPv, symObjAddr: 0x11B4, symBinAddr: 0x10000A288, symSize: 0x130 }
  - { offset: 0x18629, size: 0x8, addend: 0x0, symName: __ZN15dmEngineService13EngineService4InitEt, symObjAddr: 0x7C, symBinAddr: 0x100009158, symSize: 0x524 }
  - { offset: 0x191DA, size: 0x8, addend: 0x0, symName: __ZN15dmEngineService13EngineService15ReplaceCallbackEPvPKc, symObjAddr: 0xAA4, symBinAddr: 0x100009B78, symSize: 0x148 }
  - { offset: 0x1939C, size: 0x8, addend: 0x0, symName: __ZN15dmEngineService13EngineService11PostHandlerEPvPN11dmWebServer7RequestE, symObjAddr: 0xBEC, symBinAddr: 0x100009CC0, symSize: 0x1D0 }
  - { offset: 0x19683, size: 0x8, addend: 0x0, symName: __ZN15dmEngineService13EngineService12ParsePostUrlEPKcPyPPKN5dmDDF10DescriptorES3_, symObjAddr: 0x1054, symBinAddr: 0x10000A128, symSize: 0x128 }
  - { offset: 0x197F1, size: 0x8, addend: 0x0, symName: __ZN15dmEngineService13EngineService11PingHandlerEPvPN11dmWebServer7RequestE, symObjAddr: 0xDBC, symBinAddr: 0x100009E90, symSize: 0x38 }
  - { offset: 0x19853, size: 0x8, addend: 0x0, symName: __ZN15dmEngineService13EngineService11InfoHandlerEPvPN11dmWebServer7RequestE, symObjAddr: 0xDF4, symBinAddr: 0x100009EC8, symSize: 0x40 }
  - { offset: 0x198FA, size: 0x8, addend: 0x0, symName: __ZN15dmEngineService13EngineService11UpnpHandlerEPvPN11dmWebServer7RequestE, symObjAddr: 0xE34, symBinAddr: 0x100009F08, symSize: 0x130 }
  - { offset: 0x19AAA, size: 0x8, addend: 0x0, symName: __ZN15dmEngineService13EngineService12StateHandlerEPvPN11dmWebServer7RequestE, symObjAddr: 0xF64, symBinAddr: 0x10000A038, symSize: 0x40 }
  - { offset: 0x19B2A, size: 0x8, addend: 0x0, symName: __ZN15dmEngineService13EngineService15RedirectHandlerEPvPN11dmWebServer7RequestE, symObjAddr: 0xFA4, symBinAddr: 0x10000A078, symSize: 0xB0 }
  - { offset: 0x19C18, size: 0x8, addend: 0x0, symName: __ZN15dmEngineService13EngineService18ReplaceHttpHostVarEPvPKc, symObjAddr: 0x117C, symBinAddr: 0x10000A250, symSize: 0x38 }
  - { offset: 0x19D03, size: 0x8, addend: 0x0, symName: __ZN15dmEngineServiceL24OutputGuiDynamicTexturesEPN12dmGameObject9SceneNodeEPN11dmWebServer7RequestE.cold.1, symObjAddr: 0x1BF8, symBinAddr: 0x10024CA38, symSize: 0x40 }
  - { offset: 0x19D1B, size: 0x8, addend: 0x0, symName: __ZN15dmEngineServiceL24OutputGuiDynamicTexturesEPN12dmGameObject9SceneNodeEPN11dmWebServer7RequestE.cold.2, symObjAddr: 0x1C38, symBinAddr: 0x10024CA78, symSize: 0x40 }
  - { offset: 0x19D33, size: 0x8, addend: 0x0, symName: __ZN15dmEngineServiceL24OutputResourceSceneGraphEPN12dmGameObject9SceneNodeEjPjPN11dmWebServer7RequestE.cold.1, symObjAddr: 0x1C78, symBinAddr: 0x10024CAB8, symSize: 0x40 }
  - { offset: 0x19D4B, size: 0x8, addend: 0x0, symName: __ZN15dmEngineServiceL24OutputResourceSceneGraphEPN12dmGameObject9SceneNodeEjPjPN11dmWebServer7RequestE.cold.2, symObjAddr: 0x1CB8, symBinAddr: 0x10024CAF8, symSize: 0x40 }
  - { offset: 0x19D63, size: 0x8, addend: 0x0, symName: __ZN15dmEngineServiceL24OutputResourceSceneGraphEPN12dmGameObject9SceneNodeEjPjPN11dmWebServer7RequestE.cold.3, symObjAddr: 0x1CF8, symBinAddr: 0x10024CB38, symSize: 0x40 }
  - { offset: 0x19F2D, size: 0x8, addend: 0x0, symName: _OUTLINED_FUNCTION_0, symObjAddr: 0x1D38, symBinAddr: 0x10000ACCC, symSize: 0xC }
  - { offset: 0x19FD5, size: 0x8, addend: 0x0, symName: _PROFILER_HTML, symObjAddr: 0x0, symBinAddr: 0x100339770, symSize: 0x0 }
  - { offset: 0x1A007, size: 0x8, addend: 0x0, symName: _PROFILER_HTML_SIZE, symObjAddr: 0x8548, symBinAddr: 0x100341CB8, symSize: 0x0 }
  - { offset: 0x1A05D, size: 0x8, addend: 0x0, symName: __Z13rmtp_Profilerv, symObjAddr: 0x0, symBinAddr: 0x10000ACD8, symSize: 0x30 }
  - { offset: 0x1A07D, size: 0x8, addend: 0x0, symName: __MergedGlobals, symObjAddr: 0x307E0, symBinAddr: 0x100352C68, symSize: 0x0 }
  - { offset: 0x1A0B1, size: 0x8, addend: 0x0, symName: __ZN10dmProfilerL25g_ProfilerThreadSortOrderE, symObjAddr: 0x30778, symBinAddr: 0x100352C00, symSize: 0x0 }
  - { offset: 0x1A0BF, size: 0x8, addend: 0x0, symName: __ZN10dmProfiler14RenderProfilerEjPvPN8dmRender13RenderContextEPNS1_7FontMapE, symObjAddr: 0x314, symBinAddr: 0x10000AF18, symSize: 0x260 }
  - { offset: 0x1A0E5, size: 0x8, addend: 0x0, symName: __ZZN10dmProfiler14RenderProfilerEjPvPN8dmRender13RenderContextEPNS1_7FontMapEE9_scope122, symObjAddr: 0x307C8, symBinAddr: 0x100352C50, symSize: 0x0 }
  - { offset: 0x1A76E, size: 0x8, addend: 0x0, symName: __ZN10dmProfilerL16gUpdateFrequencyE, symObjAddr: 0x4A9C, symBinAddr: 0x100341CBC, symSize: 0x0 }
  - { offset: 0x1A787, size: 0x8, addend: 0x0, symName: __ZN10dmProfilerL17g_ProfilerEnabledE, symObjAddr: 0x307B0, symBinAddr: 0x100352C38, symSize: 0x0 }
  - { offset: 0x1A7A0, size: 0x8, addend: 0x0, symName: __ZN10dmProfilerL22g_ProfilerCurrentFrameE, symObjAddr: 0x307B8, symBinAddr: 0x100352C40, symSize: 0x0 }
  - { offset: 0x1A7B9, size: 0x8, addend: 0x0, symName: __ZN10dmProfilerL14gRenderProfileE, symObjAddr: 0x307C0, symBinAddr: 0x100352C48, symSize: 0x0 }
  - { offset: 0x1A7D2, size: 0x8, addend: 0x0, symName: __ZN10dmProfilerL15g_ProfilerMutexE, symObjAddr: 0x307D0, symBinAddr: 0x100352C58, symSize: 0x0 }
  - { offset: 0x1A7EB, size: 0x8, addend: 0x0, symName: __ZN10dmProfilerL23g_ProfilerDumpNextFrameE, symObjAddr: 0x307D8, symBinAddr: 0x100352C60, symSize: 0x0 }
  - { offset: 0x1A800, size: 0x8, addend: 0x0, symName: __ZN10dmProfilerL18InitializeProfilerEP15ExtensionParams, symObjAddr: 0x838, symBinAddr: 0x10000B43C, symSize: 0x134 }
  - { offset: 0x1A82B, size: 0x8, addend: 0x0, symName: __ZZN10dmProfilerL18InitializeProfilerEP15ExtensionParamsE14Module_methods, symObjAddr: 0x4AA0, symBinAddr: 0x1002C0EB8, symSize: 0x0 }
  - { offset: 0x1A927, size: 0x8, addend: 0x0, symName: __ZN10dmProfilerL15g_TrackCpuUsageE, symObjAddr: 0x307D9, symBinAddr: 0x100352C61, symSize: 0x0 }
  - { offset: 0x1A97C, size: 0x8, addend: 0x0, symName: __ZN10dmProfiler18SetUpdateFrequencyEj, symObjAddr: 0xE0, symBinAddr: 0x10000AD58, symSize: 0xC }
  - { offset: 0x1A9FB, size: 0x8, addend: 0x0, symName: __ZN10dmProfilerL18SampleTreeCallbackEPvPKcS0_, symObjAddr: 0x160, symBinAddr: 0x10000AD64, symSize: 0xDC }
  - { offset: 0x1ABDC, size: 0x8, addend: 0x0, symName: __ZN10dmProfilerL18TraverseSampleTreeEPN15dmProfileRender14ProfilerThreadEiPv, symObjAddr: 0xA14, symBinAddr: 0x10000B618, symSize: 0x308 }
  - { offset: 0x1AF1E, size: 0x8, addend: 0x0, symName: __ZN10dmProfilerL20TraversePropertyTreeEPN15dmProfileRender13ProfilerFrameEiPv, symObjAddr: 0xD1C, symBinAddr: 0x10000B920, symSize: 0xCC }
  - { offset: 0x1AF28, size: 0x8, addend: 0x0, symName: __ZN10dmProfilerL20PropertyTreeCallbackEPvS0_, symObjAddr: 0x23C, symBinAddr: 0x10000AE40, symSize: 0x94 }
  - { offset: 0x1B0C9, size: 0x8, addend: 0x0, symName: __ZN10dmProfilerL20TraversePropertyTreeEPN15dmProfileRender13ProfilerFrameEiPv, symObjAddr: 0xD1C, symBinAddr: 0x10000B920, symSize: 0xCC }
  - { offset: 0x1B23F, size: 0x8, addend: 0x0, symName: __ZN10dmProfiler14ToggleProfilerEv, symObjAddr: 0x2D0, symBinAddr: 0x10000AED4, symSize: 0x44 }
  - { offset: 0x1B28D, size: 0x8, addend: 0x0, symName: __ZN10dmProfilerL21AppInitializeProfilerEP18ExtensionAppParams, symObjAddr: 0x5D0, symBinAddr: 0x10000B1D4, symSize: 0x1C0 }
  - { offset: 0x1B4C9, size: 0x8, addend: 0x0, symName: __ZN10dmProfilerL19AppFinalizeProfilerEP18ExtensionAppParams, symObjAddr: 0x790, symBinAddr: 0x10000B394, symSize: 0xA8 }
  - { offset: 0x1B639, size: 0x8, addend: 0x0, symName: __ZN10dmProfilerL16FinalizeProfilerEP15ExtensionParams, symObjAddr: 0x96C, symBinAddr: 0x10000B570, symSize: 0x30 }
  - { offset: 0x1B672, size: 0x8, addend: 0x0, symName: __ZN10dmProfilerL14UpdateProfilerEP15ExtensionParams, symObjAddr: 0x99C, symBinAddr: 0x10000B5A0, symSize: 0x78 }
  - { offset: 0x1B950, size: 0x8, addend: 0x0, symName: __ZN10dmProfilerL11MemoryUsageEP9lua_State, symObjAddr: 0x1044, symBinAddr: 0x10000BC48, symSize: 0x5C }
  - { offset: 0x1B9AD, size: 0x8, addend: 0x0, symName: __ZN10dmProfilerL8CPUUsageEP9lua_State, symObjAddr: 0x10A0, symBinAddr: 0x10000BCA4, symSize: 0x58 }
  - { offset: 0x1BA0A, size: 0x8, addend: 0x0, symName: __ZN10dmProfilerL14GetLuaRefCountEP9lua_State, symObjAddr: 0x10F8, symBinAddr: 0x10000BCFC, symSize: 0x5C }
  - { offset: 0x1BA67, size: 0x8, addend: 0x0, symName: __ZN10dmProfilerL14EnableProfilerEP9lua_State, symObjAddr: 0x1154, symBinAddr: 0x10000BD58, symSize: 0x100 }
  - { offset: 0x1BB4B, size: 0x8, addend: 0x0, symName: __ZN10dmProfilerL16EnableProfilerUIEP9lua_State, symObjAddr: 0x1254, symBinAddr: 0x10000BE58, symSize: 0xE8 }
  - { offset: 0x1BC0F, size: 0x8, addend: 0x0, symName: __ZN10dmProfilerL16SetProfileUIModeEP9lua_State, symObjAddr: 0x133C, symBinAddr: 0x10000BF40, symSize: 0x70 }
  - { offset: 0x1BC84, size: 0x8, addend: 0x0, symName: __ZN10dmProfilerL21SetProfilerUIViewModeEP9lua_State, symObjAddr: 0x13AC, symBinAddr: 0x10000BFB0, symSize: 0x70 }
  - { offset: 0x1BCF9, size: 0x8, addend: 0x0, symName: __ZN10dmProfilerL28SetProfileUIVSyncWaitVisibleEP9lua_State, symObjAddr: 0x141C, symBinAddr: 0x10000C020, symSize: 0xC0 }
  - { offset: 0x1BDB4, size: 0x8, addend: 0x0, symName: __ZN10dmProfilerL28ProfilerUIRecordedFrameCountEP9lua_State, symObjAddr: 0x14DC, symBinAddr: 0x10000C0E0, symSize: 0x70 }
  - { offset: 0x1BE32, size: 0x8, addend: 0x0, symName: __ZN10dmProfilerL27ProfilerUIViewRecordedFrameEP9lua_State, symObjAddr: 0x154C, symBinAddr: 0x10000C150, symSize: 0x190 }
  - { offset: 0x1BFA7, size: 0x8, addend: 0x0, symName: __ZN10dmProfilerL15ProfilerLogTextEP9lua_State, symObjAddr: 0x16DC, symBinAddr: 0x10000C2E0, symSize: 0x8C }
  - { offset: 0x1C021, size: 0x8, addend: 0x0, symName: __ZN10dmProfilerL17ProfilerDumpFrameEP9lua_State, symObjAddr: 0x1768, symBinAddr: 0x10000C36C, symSize: 0x4C }
  - { offset: 0x1C060, size: 0x8, addend: 0x0, symName: __ZN10dmProfilerL18ProfilerScopeBeginEP9lua_State, symObjAddr: 0x17B4, symBinAddr: 0x10000C3B8, symSize: 0x98 }
  - { offset: 0x1C0F1, size: 0x8, addend: 0x0, symName: __ZN10dmProfilerL16ProfilerScopeEndEP9lua_State, symObjAddr: 0x184C, symBinAddr: 0x10000C450, symSize: 0x4C }
  - { offset: 0x1C53A, size: 0x8, addend: 0x0, symName: _ProfilerExt908, symObjAddr: 0x30810, symBinAddr: 0x100368A10, symSize: 0x0 }
  - { offset: 0x1D85F, size: 0x8, addend: 0x0, symName: __ZNSt3__111__introsortINS_17_ClassicAlgPolicyERN10dmProfiler14ThreadSortPredEPPN15dmProfileRender14ProfilerThreadELb0EEEvT1_S9_T0_NS_15iterator_traitsIS9_E15difference_typeEb, symObjAddr: 0x1898, symBinAddr: 0x10000C49C, symSize: 0x51C }
  - { offset: 0x1DEDE, size: 0x8, addend: 0x0, symName: __ZNSt3__126__insertion_sort_unguardedB8nn200100INS_17_ClassicAlgPolicyERN10dmProfiler14ThreadSortPredEPPN15dmProfileRender14ProfilerThreadEEEvT1_S9_T0_, symObjAddr: 0x2AF8, symBinAddr: 0x10000D6FC, symSize: 0x1F0 }
  - { offset: 0x1E19B, size: 0x8, addend: 0x0, symName: __ZNSt3__111__sift_downB8nn200100INS_17_ClassicAlgPolicyERN10dmProfiler14ThreadSortPredEPPN15dmProfileRender14ProfilerThreadEEEvT1_OT0_NS_15iterator_traitsIS9_E15difference_typeES9_, symObjAddr: 0x3AC4, symBinAddr: 0x10000E6C8, symSize: 0x3F4 }
  - { offset: 0x1E608, size: 0x8, addend: 0x0, symName: __ZNSt3__131__partition_with_equals_on_leftB8nn200100INS_17_ClassicAlgPolicyEPPN15dmProfileRender14ProfilerThreadERN10dmProfiler14ThreadSortPredEEET0_S9_S9_T1_, symObjAddr: 0x2CE8, symBinAddr: 0x10000D8EC, symSize: 0x558 }
  - { offset: 0x1ECD2, size: 0x8, addend: 0x0, symName: __ZNSt3__132__partition_with_equals_on_rightB8nn200100INS_17_ClassicAlgPolicyEPPN15dmProfileRender14ProfilerThreadERN10dmProfiler14ThreadSortPredEEENS_4pairIT0_bEESA_SA_T1_, symObjAddr: 0x3240, symBinAddr: 0x10000DE44, symSize: 0x4B8 }
  - { offset: 0x1F2B9, size: 0x8, addend: 0x0, symName: __ZNSt3__127__insertion_sort_incompleteB8nn200100INS_17_ClassicAlgPolicyERN10dmProfiler14ThreadSortPredEPPN15dmProfileRender14ProfilerThreadEEEbT1_S9_T0_, symObjAddr: 0x36F8, symBinAddr: 0x10000E2FC, symSize: 0x3CC }
  - { offset: 0x1FAB2, size: 0x8, addend: 0x0, symName: __ZNSt3__17__sort3B8nn200100INS_17_ClassicAlgPolicyERN10dmProfiler14ThreadSortPredEPPN15dmProfileRender14ProfilerThreadELi0EEEbT1_S9_S9_T0_, symObjAddr: 0x1DB4, symBinAddr: 0x10000C9B8, symSize: 0x458 }
  - { offset: 0x1FB0B, size: 0x8, addend: 0x0, symName: __ZNSt3__17__sort3B8nn200100INS_17_ClassicAlgPolicyERN10dmProfiler14ThreadSortPredEPPN15dmProfileRender14ProfilerThreadELi0EEEbT1_S9_S9_T0_, symObjAddr: 0x1DB4, symBinAddr: 0x10000C9B8, symSize: 0x458 }
  - { offset: 0x20213, size: 0x8, addend: 0x0, symName: __ZNSt3__17__sort5B8nn200100INS_17_ClassicAlgPolicyERN10dmProfiler14ThreadSortPredEPPN15dmProfileRender14ProfilerThreadELi0EEEvT1_S9_S9_S9_S9_T0_, symObjAddr: 0x2508, symBinAddr: 0x10000D10C, symSize: 0x3E0 }
  - { offset: 0x20853, size: 0x8, addend: 0x0, symName: __ZNSt3__17__sort4B8nn200100INS_17_ClassicAlgPolicyERN10dmProfiler14ThreadSortPredEPPN15dmProfileRender14ProfilerThreadELi0EEEvT1_S9_S9_S9_T0_, symObjAddr: 0x220C, symBinAddr: 0x10000CE10, symSize: 0x2FC }
  - { offset: 0x20D1F, size: 0x8, addend: 0x0, symName: __ZNSt3__116__insertion_sortB8nn200100INS_17_ClassicAlgPolicyERN10dmProfiler14ThreadSortPredEPPN15dmProfileRender14ProfilerThreadEEEvT1_S9_T0_, symObjAddr: 0x28E8, symBinAddr: 0x10000D4EC, symSize: 0x210 }
  - { offset: 0x20FBB, size: 0x8, addend: 0x0, symName: __ZNSt3__111__sort_heapB8nn200100INS_17_ClassicAlgPolicyERN10dmProfiler14ThreadSortPredEPPN15dmProfileRender14ProfilerThreadEEEvT1_S9_OT0_, symObjAddr: 0x3EB8, symBinAddr: 0x10000EABC, symSize: 0x1B0 }
  - { offset: 0x212FE, size: 0x8, addend: 0x0, symName: __ZNSt3__19__sift_upB8nn200100INS_17_ClassicAlgPolicyERN10dmProfiler14ThreadSortPredEPPN15dmProfileRender14ProfilerThreadEEEvT1_S9_OT0_NS_15iterator_traitsIS9_E15difference_typeE, symObjAddr: 0x4068, symBinAddr: 0x10000EC6C, symSize: 0x1E8 }
  - { offset: 0x22440, size: 0x8, addend: 0x0, symName: __Z13rmtp_Profilerv.cold.1, symObjAddr: 0x4250, symBinAddr: 0x10024CB78, symSize: 0x50 }
  - { offset: 0x22496, size: 0x8, addend: 0x0, symName: __ZN13dmHashTable64IiED1Ev, symObjAddr: 0x90, symBinAddr: 0x10000AD08, symSize: 0x50 }
  - { offset: 0x224C6, size: 0x8, addend: 0x0, symName: __ZN13dmHashTable64IiED1Ev, symObjAddr: 0x90, symBinAddr: 0x10000AD08, symSize: 0x50 }
  - { offset: 0x224E4, size: 0x8, addend: 0x0, symName: __ZN13dmHashTable64IiED1Ev, symObjAddr: 0x90, symBinAddr: 0x10000AD08, symSize: 0x50 }
  - { offset: 0x22904, size: 0x8, addend: 0x0, symName: _ProfilerExt, symObjAddr: 0x574, symBinAddr: 0x10000B178, symSize: 0x5C }
  - { offset: 0x22A45, size: 0x8, addend: 0x0, symName: __ZN11dmHashTableIyiE11SetCapacityEjj, symObjAddr: 0xDE8, symBinAddr: 0x10000B9EC, symSize: 0x150 }
  - { offset: 0x22C1D, size: 0x8, addend: 0x0, symName: __ZN11dmHashTableIyiE3PutEyRKi, symObjAddr: 0xF38, symBinAddr: 0x10000BB3C, symSize: 0x10C }
  - { offset: 0x22C3A, size: 0x8, addend: 0x0, symName: __ZN11dmHashTableIyiE3PutEyRKi, symObjAddr: 0xF38, symBinAddr: 0x10000BB3C, symSize: 0x10C }
  - { offset: 0x22D8A, size: 0x8, addend: 0x0, symName: __ZN10dmProfilerL11MemoryUsageEP9lua_State, symObjAddr: 0x1044, symBinAddr: 0x10000BC48, symSize: 0x5C }
  - { offset: 0x234FB, size: 0x8, addend: 0x0, symName: __GLOBAL__sub_I_profiler.cpp, symObjAddr: 0x44B0, symBinAddr: 0x10000EE54, symSize: 0x88 }
  - { offset: 0x235DF, size: 0x8, addend: 0x0, symName: __GLOBAL__sub_I_profiler.cpp.cold.1, symObjAddr: 0x4538, symBinAddr: 0x10024CBC8, symSize: 0x50 }
  - { offset: 0x23621, size: 0x8, addend: 0x0, symName: __GLOBAL__sub_I_profiler.cpp.cold.2, symObjAddr: 0x4588, symBinAddr: 0x10024CC18, symSize: 0x5C }
  - { offset: 0x23663, size: 0x8, addend: 0x0, symName: __GLOBAL__sub_I_profiler.cpp.cold.3, symObjAddr: 0x45E4, symBinAddr: 0x10024CC74, symSize: 0x5C }
  - { offset: 0x25771, size: 0x8, addend: 0x0, symName: __ZN15dmProfileRenderL14FlushRecordingEPNS_13RenderProfileEj, symObjAddr: 0x188, symBinAddr: 0x10000EF50, symSize: 0xD0 }
  - { offset: 0x258F0, size: 0x8, addend: 0x0, symName: __ZN15dmProfileRender19DeleteProfilerFrameEPNS_13ProfilerFrameE, symObjAddr: 0x258, symBinAddr: 0x10000F020, symSize: 0xB0 }
  - { offset: 0x258FA, size: 0x8, addend: 0x0, symName: __ZN15dmProfileRender19DeleteProfilerFrameEPNS_13ProfilerFrameE, symObjAddr: 0x258, symBinAddr: 0x10000F020, symSize: 0xB0 }
  - { offset: 0x25B23, size: 0x8, addend: 0x0, symName: __ZN15dmProfileRender16NewRenderProfileEf, symObjAddr: 0x308, symBinAddr: 0x10000F0D0, symSize: 0x68 }
  - { offset: 0x25C3D, size: 0x8, addend: 0x0, symName: __ZN15dmProfileRender19UpdateRenderProfileEPNS_13RenderProfileEPKNS_13ProfilerFrameE, symObjAddr: 0x370, symBinAddr: 0x10000F138, symSize: 0x1CC }
  - { offset: 0x25EDB, size: 0x8, addend: 0x0, symName: __ZN15dmProfileRenderL22DuplicateProfilerFrameEPKNS_13ProfilerFrameE, symObjAddr: 0x53C, symBinAddr: 0x10000F304, symSize: 0x2D0 }
  - { offset: 0x25EE6, size: 0x8, addend: 0x0, symName: __ZN15dmProfileRenderL22DuplicateProfilerFrameEPKNS_13ProfilerFrameE, symObjAddr: 0x53C, symBinAddr: 0x10000F304, symSize: 0x2D0 }
  - { offset: 0x26351, size: 0x8, addend: 0x0, symName: __ZN15dmProfileRender7SetModeEPNS_13RenderProfileENS_12ProfilerModeE, symObjAddr: 0x80C, symBinAddr: 0x10000F5D4, symSize: 0x7C }
  - { offset: 0x2639F, size: 0x8, addend: 0x0, symName: __ZN15dmProfileRender7SetModeEPNS_13RenderProfileENS_12ProfilerModeE, symObjAddr: 0x80C, symBinAddr: 0x10000F5D4, symSize: 0x7C }
  - { offset: 0x26410, size: 0x8, addend: 0x0, symName: __ZN15dmProfileRender11SetViewModeEPNS_13RenderProfileENS_16ProfilerViewModeE, symObjAddr: 0x888, symBinAddr: 0x10000F650, symSize: 0x8 }
  - { offset: 0x2641A, size: 0x8, addend: 0x0, symName: __ZN15dmProfileRender11SetViewModeEPNS_13RenderProfileENS_16ProfilerViewModeE, symObjAddr: 0x888, symBinAddr: 0x10000F650, symSize: 0x8 }
  - { offset: 0x26451, size: 0x8, addend: 0x0, symName: __ZN15dmProfileRender11SetWaitTimeEPNS_13RenderProfileEb, symObjAddr: 0x890, symBinAddr: 0x10000F658, symSize: 0x14 }
  - { offset: 0x264BB, size: 0x8, addend: 0x0, symName: __ZN15dmProfileRender16AdjustShownFrameEPNS_13RenderProfileEi, symObjAddr: 0x8A4, symBinAddr: 0x10000F66C, symSize: 0x60 }
  - { offset: 0x26560, size: 0x8, addend: 0x0, symName: __ZN15dmProfileRender17ShowRecordedFrameEPNS_13RenderProfileEi, symObjAddr: 0x904, symBinAddr: 0x10000F6CC, symSize: 0x58 }
  - { offset: 0x2656A, size: 0x8, addend: 0x0, symName: __ZN15dmProfileRender17ShowRecordedFrameEPNS_13RenderProfileEi, symObjAddr: 0x904, symBinAddr: 0x10000F6CC, symSize: 0x58 }
  - { offset: 0x2660F, size: 0x8, addend: 0x0, symName: __ZN15dmProfileRender21GetRecordedFrameCountEPNS_13RenderProfileE, symObjAddr: 0x95C, symBinAddr: 0x10000F724, symSize: 0x10 }
  - { offset: 0x2661A, size: 0x8, addend: 0x0, symName: __ZN15dmProfileRender21GetRecordedFrameCountEPNS_13RenderProfileE, symObjAddr: 0x95C, symBinAddr: 0x10000F724, symSize: 0x10 }
  - { offset: 0x2664C, size: 0x8, addend: 0x0, symName: __ZN15dmProfileRender21GetRecordedFrameCountEPNS_13RenderProfileE, symObjAddr: 0x95C, symBinAddr: 0x10000F724, symSize: 0x10 }
  - { offset: 0x26668, size: 0x8, addend: 0x0, symName: __ZN15dmProfileRender19DeleteRenderProfileEPNS_13RenderProfileE, symObjAddr: 0x96C, symBinAddr: 0x10000F734, symSize: 0x4 }
  - { offset: 0x26694, size: 0x8, addend: 0x0, symName: __ZN15dmProfileRender19DeleteRenderProfileEPNS_13RenderProfileE, symObjAddr: 0x96C, symBinAddr: 0x10000F734, symSize: 0x4 }
  - { offset: 0x26C3E, size: 0x8, addend: 0x0, symName: __ZN15dmProfileRender4DrawEPNS_13RenderProfileEPN8dmRender13RenderContextEPNS2_7FontMapE, symObjAddr: 0x970, symBinAddr: 0x10000F738, symSize: 0xBAC }
  - { offset: 0x27D81, size: 0x8, addend: 0x0, symName: __ZN15dmProfileRender26FindOrCreateProfilerThreadEPNS_13ProfilerFrameEj, symObjAddr: 0x151C, symBinAddr: 0x1000102E4, symSize: 0x10C }
  - { offset: 0x27F7C, size: 0x8, addend: 0x0, symName: __ZN15dmProfileRender26ClearProfilerThreadSamplesEPNS_14ProfilerThreadE, symObjAddr: 0x1628, symBinAddr: 0x1000103F0, symSize: 0xC }
  - { offset: 0x27F87, size: 0x8, addend: 0x0, symName: __ZN15dmProfileRender26ClearProfilerThreadSamplesEPNS_14ProfilerThreadE, symObjAddr: 0x1628, symBinAddr: 0x1000103F0, symSize: 0xC }
  - { offset: 0x27FA5, size: 0x8, addend: 0x0, symName: __ZN15dmProfileRender26ClearProfilerThreadSamplesEPNS_14ProfilerThreadE, symObjAddr: 0x1628, symBinAddr: 0x1000103F0, symSize: 0xC }
  - { offset: 0x27FC7, size: 0x8, addend: 0x0, symName: __ZN15dmProfileRender26ClearProfilerThreadSamplesEPNS_14ProfilerThreadE, symObjAddr: 0x1628, symBinAddr: 0x1000103F0, symSize: 0xC }
  - { offset: 0x27FE2, size: 0x8, addend: 0x0, symName: __ZN15dmProfileRender20PruneProfilerThreadsEPNS_13ProfilerFrameEy, symObjAddr: 0x1634, symBinAddr: 0x1000103FC, symSize: 0xBC }
  - { offset: 0x28199, size: 0x8, addend: 0x0, symName: __ZN15dmProfileRender11AddPropertyEPNS_13ProfilerFrameEj19ProfilePropertyType20ProfilePropertyValuei, symObjAddr: 0x16F0, symBinAddr: 0x1000104B8, symSize: 0xFC }
  - { offset: 0x281A3, size: 0x8, addend: 0x0, symName: __ZN15dmProfileRender11AddPropertyEPNS_13ProfilerFrameEj19ProfilePropertyType20ProfilePropertyValuei, symObjAddr: 0x16F0, symBinAddr: 0x1000104B8, symSize: 0xFC }
  - { offset: 0x28310, size: 0x8, addend: 0x0, symName: __ZN15dmProfileRender9DumpFrameEPNS_13ProfilerFrameE, symObjAddr: 0x17EC, symBinAddr: 0x1000105B4, symSize: 0x4B4 }
  - { offset: 0x28404, size: 0x8, addend: 0x0, symName: __ZN15dmProfileRender9DumpFrameEPNS_13ProfilerFrameE, symObjAddr: 0x17EC, symBinAddr: 0x1000105B4, symSize: 0x4B4 }
  - { offset: 0x296C2, size: 0x8, addend: 0x0, symName: __ZNSt3__111__introsortINS_17_ClassicAlgPolicyERN15dmProfileRender18ThreadSortTimePredEPPNS2_14ProfilerThreadELb0EEEvT1_S8_T0_NS_15iterator_traitsIS8_E15difference_typeEb, symObjAddr: 0x1CA0, symBinAddr: 0x100010A68, symSize: 0x808 }
  - { offset: 0x2B15B, size: 0x8, addend: 0x0, symName: __ZNSt3__127__insertion_sort_incompleteB8nn200100INS_17_ClassicAlgPolicyERN15dmProfileRender18ThreadSortTimePredEPPNS2_14ProfilerThreadEEEbT1_S8_T0_, symObjAddr: 0x261C, symBinAddr: 0x1000113E4, symSize: 0x2EC }
  - { offset: 0x2BF5D, size: 0x8, addend: 0x0, symName: __ZNSt3__17__sort5B8nn200100INS_17_ClassicAlgPolicyERN15dmProfileRender18ThreadSortTimePredEPPNS2_14ProfilerThreadELi0EEEvT1_S8_S8_S8_S8_T0_, symObjAddr: 0x24A8, symBinAddr: 0x100011270, symSize: 0x174 }
  - { offset: 0x2BFC8, size: 0x8, addend: 0x0, symName: __ZNSt3__17__sort5B8nn200100INS_17_ClassicAlgPolicyERN15dmProfileRender18ThreadSortTimePredEPPNS2_14ProfilerThreadELi0EEEvT1_S8_S8_S8_S8_T0_, symObjAddr: 0x24A8, symBinAddr: 0x100011270, symSize: 0x174 }
  - { offset: 0x2C691, size: 0x8, addend: 0x0, symName: __ZNSt3__119__partial_sort_implB8nn200100INS_17_ClassicAlgPolicyERN15dmProfileRender18ThreadSortTimePredEPPNS2_14ProfilerThreadES7_EET1_S8_S8_T2_OT0_, symObjAddr: 0x2908, symBinAddr: 0x1000116D0, symSize: 0x338 }
  - { offset: 0x2DB97, size: 0x8, addend: 0x0, symName: __ZN15dmProfileRender13ProfilerFrameC1Ev, symObjAddr: 0x3C, symBinAddr: 0x10000EEDC, symSize: 0x14 }
  - { offset: 0x2DBB9, size: 0x8, addend: 0x0, symName: __ZN15dmProfileRender13ProfilerFrameC1Ev, symObjAddr: 0x3C, symBinAddr: 0x10000EEDC, symSize: 0x14 }
  - { offset: 0x2DBD4, size: 0x8, addend: 0x0, symName: __ZN15dmProfileRender13ProfilerFrameC1Ev, symObjAddr: 0x3C, symBinAddr: 0x10000EEDC, symSize: 0x14 }
  - { offset: 0x2DBF1, size: 0x8, addend: 0x0, symName: __ZN15dmProfileRender13ProfilerFrameC1Ev, symObjAddr: 0x3C, symBinAddr: 0x10000EEDC, symSize: 0x14 }
  - { offset: 0x2E0CE, size: 0x8, addend: 0x0, symName: __ZN15dmProfileRender13RenderProfile6DeleteEPS0_, symObjAddr: 0x128, symBinAddr: 0x10000EEF0, symSize: 0x60 }
  - { offset: 0x2E2E2, size: 0x8, addend: 0x0, symName: __ZN15dmProfileRenderL14FlushRecordingEPNS_13RenderProfileEj.cold.1, symObjAddr: 0x2C40, symBinAddr: 0x10024CCD0, symSize: 0x24 }
  - { offset: 0x2E30F, size: 0x8, addend: 0x0, symName: __ZN15dmProfileRenderL14FlushRecordingEPNS_13RenderProfileEj.cold.2, symObjAddr: 0x2C64, symBinAddr: 0x10024CCF4, symSize: 0x24 }
  - { offset: 0x2E530, size: 0x8, addend: 0x0, symName: __ZN15dmProfileRender19UpdateRenderProfileEPNS_13RenderProfileEPKNS_13ProfilerFrameE.cold.4, symObjAddr: 0x2CF4, symBinAddr: 0x10024CD18, symSize: 0x24 }
  - { offset: 0x2E791, size: 0x8, addend: 0x0, symName: __ZN15dmProfileRenderL22DuplicateProfilerFrameEPKNS_13ProfilerFrameE.cold.1, symObjAddr: 0x2D18, symBinAddr: 0x10024CD3C, symSize: 0x28 }
  - { offset: 0x2E7E9, size: 0x8, addend: 0x0, symName: __ZN15dmProfileRender7SetModeEPNS_13RenderProfileENS_12ProfilerModeE.cold.1, symObjAddr: 0x2E1C, symBinAddr: 0x10024CD64, symSize: 0x28 }
  - { offset: 0x2ECCA, size: 0x8, addend: 0x0, symName: __ZN15dmProfileRender20PruneProfilerThreadsEPNS_13ProfilerFrameEy.cold.2, symObjAddr: 0x2F44, symBinAddr: 0x10024CDB4, symSize: 0x28 }
  - { offset: 0x2ECF8, size: 0x8, addend: 0x0, symName: __ZN15dmProfileRender20PruneProfilerThreadsEPNS_13ProfilerFrameEy.cold.1, symObjAddr: 0x2F1C, symBinAddr: 0x10024CD8C, symSize: 0x28 }
  - { offset: 0x2EEC3, size: 0x8, addend: 0x0, symName: _OUTLINED_FUNCTION_0, symObjAddr: 0x2FFC, symBinAddr: 0x100011A08, symSize: 0x8 }
  - { offset: 0x2EEDB, size: 0x8, addend: 0x0, symName: _OUTLINED_FUNCTION_1, symObjAddr: 0x3004, symBinAddr: 0x100011A10, symSize: 0x8 }
  - { offset: 0x2EEF3, size: 0x8, addend: 0x0, symName: _OUTLINED_FUNCTION_2, symObjAddr: 0x300C, symBinAddr: 0x100011A18, symSize: 0x8 }
  - { offset: 0x30DC0, size: 0x8, addend: 0x0, symName: __ZL8g_TlsKey, symObjAddr: 0x1CA90, symBinAddr: 0x100352E98, symSize: 0x0 }
  - { offset: 0x30E60, size: 0x8, addend: 0x0, symName: _ProfilerBasic1003, symObjAddr: 0x21C40, symBinAddr: 0x100368A90, symSize: 0x0 }
  - { offset: 0x30E8F, size: 0x8, addend: 0x0, symName: __ZL20g_SampleTreeCallback, symObjAddr: 0x1CA98, symBinAddr: 0x100352EA0, symSize: 0x0 }
  - { offset: 0x30EA1, size: 0x8, addend: 0x0, symName: __ZN10dmProfiler21SetSampleTreeCallbackEPvPFvS0_PKcS0_E, symObjAddr: 0x0, symBinAddr: 0x100011A20, symSize: 0x14 }
  - { offset: 0x30ED8, size: 0x8, addend: 0x0, symName: __ZN10dmProfiler23SetPropertyTreeCallbackEPvPFvS0_S0_E, symObjAddr: 0x14, symBinAddr: 0x100011A34, symSize: 0x14 }
  - { offset: 0x30F10, size: 0x8, addend: 0x0, symName: __ZN10dmProfiler21SampleIterateChildrenEPvPNS_14SampleIteratorE, symObjAddr: 0x40, symBinAddr: 0x100011A54, symSize: 0x10 }
  - { offset: 0x30F5E, size: 0x8, addend: 0x0, symName: __ZN10dmProfiler17SampleIterateNextEPNS_14SampleIteratorE, symObjAddr: 0x50, symBinAddr: 0x100011A64, symSize: 0x1C }
  - { offset: 0x30F9D, size: 0x8, addend: 0x0, symName: __ZN10dmProfiler13SampleGetNameEPv, symObjAddr: 0x74, symBinAddr: 0x100011A80, symSize: 0xCC }
  - { offset: 0x3113D, size: 0x8, addend: 0x0, symName: __ZN10dmProfiler14SampleGetStartEPv, symObjAddr: 0x140, symBinAddr: 0x100011B4C, symSize: 0x8 }
  - { offset: 0x3117D, size: 0x8, addend: 0x0, symName: __ZN10dmProfiler13SampleGetTimeEPv, symObjAddr: 0x148, symBinAddr: 0x100011B54, symSize: 0x8 }
  - { offset: 0x311BD, size: 0x8, addend: 0x0, symName: __ZN10dmProfiler17SampleGetSelfTimeEPv, symObjAddr: 0x150, symBinAddr: 0x100011B5C, symSize: 0xC }
  - { offset: 0x311FD, size: 0x8, addend: 0x0, symName: __ZN10dmProfiler18SampleGetCallCountEPv, symObjAddr: 0x15C, symBinAddr: 0x100011B68, symSize: 0x8 }
  - { offset: 0x3123D, size: 0x8, addend: 0x0, symName: __ZN10dmProfiler14SampleGetColorEPv, symObjAddr: 0x164, symBinAddr: 0x100011B70, symSize: 0x8 }
  - { offset: 0x3126C, size: 0x8, addend: 0x0, symName: __ZN10dmProfiler23PropertyIterateChildrenEPvPNS_16PropertyIteratorE, symObjAddr: 0x184, symBinAddr: 0x100011B78, symSize: 0x94 }
  - { offset: 0x313A3, size: 0x8, addend: 0x0, symName: __ZN10dmProfiler19PropertyIterateNextEPNS_16PropertyIteratorE, symObjAddr: 0x218, symBinAddr: 0x100011C0C, symSize: 0x6C }
  - { offset: 0x314BC, size: 0x8, addend: 0x0, symName: __ZN10dmProfiler15PropertyGetNameEPv, symObjAddr: 0x2C8, symBinAddr: 0x100011C78, symSize: 0x4C }
  - { offset: 0x315C6, size: 0x8, addend: 0x0, symName: __ZN10dmProfiler15PropertyGetTypeEPv, symObjAddr: 0x358, symBinAddr: 0x100011CC4, symSize: 0x44 }
  - { offset: 0x316CA, size: 0x8, addend: 0x0, symName: __ZN10dmProfiler16PropertyGetValueEPv, symObjAddr: 0x39C, symBinAddr: 0x100011D08, symSize: 0x50 }
  - { offset: 0x31802, size: 0x8, addend: 0x0, symName: __ZL23g_SampleTreeCallbackCtx, symObjAddr: 0x1CAA0, symBinAddr: 0x100352EA8, symSize: 0x0 }
  - { offset: 0x3181B, size: 0x8, addend: 0x0, symName: __ZL22g_PropertyTreeCallback, symObjAddr: 0x1CAA8, symBinAddr: 0x100352EB0, symSize: 0x0 }
  - { offset: 0x31834, size: 0x8, addend: 0x0, symName: __ZL25g_PropertyTreeCallbackCtx, symObjAddr: 0x1CAB0, symBinAddr: 0x100352EB8, symSize: 0x0 }
  - { offset: 0x3184D, size: 0x8, addend: 0x0, symName: __ZL20g_ProfileInitialized, symObjAddr: 0x1CAC8, symBinAddr: 0x100352ED0, symSize: 0x0 }
  - { offset: 0x3187E, size: 0x8, addend: 0x0, symName: __ZL6g_Lock, symObjAddr: 0x1CAB8, symBinAddr: 0x100352EC0, symSize: 0x0 }
  - { offset: 0x318E6, size: 0x8, addend: 0x0, symName: __ZL16g_ProfileContext, symObjAddr: 0x1CAC0, symBinAddr: 0x100352EC8, symSize: 0x0 }
  - { offset: 0x32591, size: 0x8, addend: 0x0, symName: __ZL12g_Properties, symObjAddr: 0x1CAD0, symBinAddr: 0x100352ED8, symSize: 0x0 }
  - { offset: 0x326AE, size: 0x8, addend: 0x0, symName: __ZL14g_PropertyData, symObjAddr: 0x20AD0, symBinAddr: 0x100356ED8, symSize: 0x0 }
  - { offset: 0x326F9, size: 0x8, addend: 0x0, symName: __ZL10g_Listener, symObjAddr: 0x21AD0, symBinAddr: 0x100357ED8, symSize: 0x0 }
  - { offset: 0x32C64, size: 0x8, addend: 0x0, symName: __ZL21g_PropertyInitialized, symObjAddr: 0x21BE8, symBinAddr: 0x100357FF0, symSize: 0x0 }
  - { offset: 0x32C7D, size: 0x8, addend: 0x0, symName: __ZL13g_ThreadCount, symObjAddr: 0x21BEC, symBinAddr: 0x100357FF4, symSize: 0x0 }
  - { offset: 0x32D41, size: 0x8, addend: 0x0, symName: __ZN10dmProfiler14SampleIteratorC1Ev, symObjAddr: 0x30, symBinAddr: 0x100011A48, symSize: 0x8 }
  - { offset: 0x32D6F, size: 0x8, addend: 0x0, symName: __ZN10dmProfiler14SampleIteratorC1Ev, symObjAddr: 0x30, symBinAddr: 0x100011A48, symSize: 0x8 }
  - { offset: 0x32D8A, size: 0x8, addend: 0x0, symName: __ZN10dmProfiler14SampleIteratorD1Ev, symObjAddr: 0x3C, symBinAddr: 0x100011A50, symSize: 0x4 }
  - { offset: 0x32FB4, size: 0x8, addend: 0x0, symName: _ProfilerBasic, symObjAddr: 0x3EC, symBinAddr: 0x100011D58, symSize: 0x50 }
  - { offset: 0x33026, size: 0x8, addend: 0x0, symName: __ZL27ProfilerBasic_AppInitializeP18ExtensionAppParams, symObjAddr: 0x43C, symBinAddr: 0x100011DA8, symSize: 0x16C }
  - { offset: 0x330BC, size: 0x8, addend: 0x0, symName: __ZL25ProfilerBasic_AppFinalizeP18ExtensionAppParams, symObjAddr: 0x5A8, symBinAddr: 0x100011F14, symSize: 0x2C }
  - { offset: 0x3322A, size: 0x8, addend: 0x0, symName: __ZL14CreateListenerv, symObjAddr: 0x5D4, symBinAddr: 0x100011F40, symSize: 0xA0 }
  - { offset: 0x333FE, size: 0x8, addend: 0x0, symName: __ZL15DestroyListenerPv, symObjAddr: 0x674, symBinAddr: 0x100011FE0, symSize: 0x84 }
  - { offset: 0x33408, size: 0x8, addend: 0x0, symName: __ZL13SetThreadNamePvPKc, symObjAddr: 0x6F8, symBinAddr: 0x100012064, symSize: 0x1E8 }
  - { offset: 0x3370A, size: 0x8, addend: 0x0, symName: __ZL10FrameBeginPv, symObjAddr: 0x8E0, symBinAddr: 0x10001224C, symSize: 0x50 }
  - { offset: 0x33715, size: 0x8, addend: 0x0, symName: __ZL14CreateListenerv.cold.1, symObjAddr: 0x2B1C, symBinAddr: 0x10024CDDC, symSize: 0x28 }
  - { offset: 0x33760, size: 0x8, addend: 0x0, symName: __ZL15DestroyListenerPv, symObjAddr: 0x674, symBinAddr: 0x100011FE0, symSize: 0x84 }
  - { offset: 0x338C3, size: 0x8, addend: 0x0, symName: __ZN14ProfileContextD2Ev, symObjAddr: 0x226C, symBinAddr: 0x100013BD8, symSize: 0x230 }
  - { offset: 0x33D7B, size: 0x8, addend: 0x0, symName: __ZN11dmHashTableIjPKcE11SetCapacityEjj, symObjAddr: 0x249C, symBinAddr: 0x100013E08, symSize: 0x15C }
  - { offset: 0x33F46, size: 0x8, addend: 0x0, symName: __ZN11dmHashTableIjPKcE3PutEjRKS1_, symObjAddr: 0x25F8, symBinAddr: 0x100013F64, symSize: 0x140 }
  - { offset: 0x33F68, size: 0x8, addend: 0x0, symName: __ZN11dmHashTableIjPKcE3PutEjRKS1_, symObjAddr: 0x25F8, symBinAddr: 0x100013F64, symSize: 0x140 }
  - { offset: 0x340B8, size: 0x8, addend: 0x0, symName: __ZL21GetOrCreateThreadDataP14ProfileContexti, symObjAddr: 0x2738, symBinAddr: 0x1000140A4, symSize: 0x148 }
  - { offset: 0x340C3, size: 0x8, addend: 0x0, symName: __ZL13SetThreadNamePvPKc.cold.1, symObjAddr: 0x2B44, symBinAddr: 0x10024CE04, symSize: 0x24 }
  - { offset: 0x340F0, size: 0x8, addend: 0x0, symName: __ZL10FrameBeginPv, symObjAddr: 0x8E0, symBinAddr: 0x10001224C, symSize: 0x50 }
  - { offset: 0x34233, size: 0x8, addend: 0x0, symName: __ZL8FrameEndPv, symObjAddr: 0x930, symBinAddr: 0x10001229C, symSize: 0xC0 }
  - { offset: 0x344EE, size: 0x8, addend: 0x0, symName: __ZL10ScopeBeginPvPKcy, symObjAddr: 0x9F0, symBinAddr: 0x10001235C, symSize: 0x26C }
  - { offset: 0x3496B, size: 0x8, addend: 0x0, symName: __ZL8ScopeEndPvPKcy, symObjAddr: 0xC5C, symBinAddr: 0x1000125C8, symSize: 0x290 }
  - { offset: 0x349BA, size: 0x8, addend: 0x0, symName: __ZL21GetOrCreateThreadDataP14ProfileContexti, symObjAddr: 0x2738, symBinAddr: 0x1000140A4, symSize: 0x148 }
  - { offset: 0x34C40, size: 0x8, addend: 0x0, symName: __ZL10ScopeBeginPvPKcy.cold.2, symObjAddr: 0x2B8C, symBinAddr: 0x10024CE28, symSize: 0x28 }
  - { offset: 0x34CE6, size: 0x8, addend: 0x0, symName: __ZL8ScopeEndPvPKcy, symObjAddr: 0xC5C, symBinAddr: 0x1000125C8, symSize: 0x290 }
  - { offset: 0x3519D, size: 0x8, addend: 0x0, symName: __ZL26ProfileCreatePropertyGroupPvPKcS1_yy, symObjAddr: 0xEEC, symBinAddr: 0x100012858, symSize: 0x15C }
  - { offset: 0x351DA, size: 0x8, addend: 0x0, symName: __ZL8ScopeEndPvPKcy.cold.3, symObjAddr: 0x2BFC, symBinAddr: 0x10024CE50, symSize: 0x2C }
  - { offset: 0x3527D, size: 0x8, addend: 0x0, symName: __ZL26ProfileCreatePropertyGroupPvPKcS1_yy, symObjAddr: 0xEEC, symBinAddr: 0x100012858, symSize: 0x15C }
  - { offset: 0x354E8, size: 0x8, addend: 0x0, symName: __ZL25ProfileCreatePropertyBoolPvPKcS1_ijyy, symObjAddr: 0x1048, symBinAddr: 0x1000129B4, symSize: 0x180 }
  - { offset: 0x354F3, size: 0x8, addend: 0x0, symName: __ZL26ProfileCreatePropertyGroupPvPKcS1_yy.cold.1, symObjAddr: 0x2C28, symBinAddr: 0x10024CE7C, symSize: 0x24 }
  - { offset: 0x35520, size: 0x8, addend: 0x0, symName: __ZL25ProfileCreatePropertyBoolPvPKcS1_ijyy, symObjAddr: 0x1048, symBinAddr: 0x1000129B4, symSize: 0x180 }
  - { offset: 0x357AB, size: 0x8, addend: 0x0, symName: __ZL24ProfileCreatePropertyS32PvPKcS1_ijyy, symObjAddr: 0x11C8, symBinAddr: 0x100012B34, symSize: 0x178 }
  - { offset: 0x357CA, size: 0x8, addend: 0x0, symName: __ZL24ProfileCreatePropertyS32PvPKcS1_ijyy, symObjAddr: 0x11C8, symBinAddr: 0x100012B34, symSize: 0x178 }
  - { offset: 0x35A55, size: 0x8, addend: 0x0, symName: __ZL24ProfileCreatePropertyU32PvPKcS1_jjyy, symObjAddr: 0x1340, symBinAddr: 0x100012CAC, symSize: 0x178 }
  - { offset: 0x35A74, size: 0x8, addend: 0x0, symName: __ZL24ProfileCreatePropertyU32PvPKcS1_jjyy, symObjAddr: 0x1340, symBinAddr: 0x100012CAC, symSize: 0x178 }
  - { offset: 0x35CFF, size: 0x8, addend: 0x0, symName: __ZL24ProfileCreatePropertyF32PvPKcS1_fjyy, symObjAddr: 0x14B8, symBinAddr: 0x100012E24, symSize: 0x178 }
  - { offset: 0x35D1E, size: 0x8, addend: 0x0, symName: __ZL24ProfileCreatePropertyF32PvPKcS1_fjyy, symObjAddr: 0x14B8, symBinAddr: 0x100012E24, symSize: 0x178 }
  - { offset: 0x35FA9, size: 0x8, addend: 0x0, symName: __ZL24ProfileCreatePropertyS64PvPKcS1_xjyy, symObjAddr: 0x1630, symBinAddr: 0x100012F9C, symSize: 0x178 }
  - { offset: 0x35FC8, size: 0x8, addend: 0x0, symName: __ZL24ProfileCreatePropertyS64PvPKcS1_xjyy, symObjAddr: 0x1630, symBinAddr: 0x100012F9C, symSize: 0x178 }
  - { offset: 0x36253, size: 0x8, addend: 0x0, symName: __ZL24ProfileCreatePropertyU64PvPKcS1_yjyy, symObjAddr: 0x17A8, symBinAddr: 0x100013114, symSize: 0x178 }
  - { offset: 0x36272, size: 0x8, addend: 0x0, symName: __ZL24ProfileCreatePropertyU64PvPKcS1_yjyy, symObjAddr: 0x17A8, symBinAddr: 0x100013114, symSize: 0x178 }
  - { offset: 0x364FD, size: 0x8, addend: 0x0, symName: __ZL24ProfileCreatePropertyF64PvPKcS1_djyy, symObjAddr: 0x1920, symBinAddr: 0x10001328C, symSize: 0x178 }
  - { offset: 0x3651C, size: 0x8, addend: 0x0, symName: __ZL24ProfileCreatePropertyF64PvPKcS1_djyy, symObjAddr: 0x1920, symBinAddr: 0x10001328C, symSize: 0x178 }
  - { offset: 0x367A7, size: 0x8, addend: 0x0, symName: __ZL22ProfilePropertySetBoolPvyi, symObjAddr: 0x1A98, symBinAddr: 0x100013404, symSize: 0x90 }
  - { offset: 0x367C6, size: 0x8, addend: 0x0, symName: __ZL22ProfilePropertySetBoolPvyi, symObjAddr: 0x1A98, symBinAddr: 0x100013404, symSize: 0x90 }
  - { offset: 0x36910, size: 0x8, addend: 0x0, symName: __ZL21ProfilePropertySetS32Pvyi, symObjAddr: 0x1B28, symBinAddr: 0x100013494, symSize: 0x88 }
  - { offset: 0x36A5A, size: 0x8, addend: 0x0, symName: __ZL21ProfilePropertySetU32Pvyj, symObjAddr: 0x1BB0, symBinAddr: 0x10001351C, symSize: 0x88 }
  - { offset: 0x36BA4, size: 0x8, addend: 0x0, symName: __ZL21ProfilePropertySetF32Pvyf, symObjAddr: 0x1C38, symBinAddr: 0x1000135A4, symSize: 0x88 }
  - { offset: 0x36CEE, size: 0x8, addend: 0x0, symName: __ZL21ProfilePropertySetS64Pvyx, symObjAddr: 0x1CC0, symBinAddr: 0x10001362C, symSize: 0x88 }
  - { offset: 0x36E38, size: 0x8, addend: 0x0, symName: __ZL21ProfilePropertySetU64Pvyy, symObjAddr: 0x1D48, symBinAddr: 0x1000136B4, symSize: 0x88 }
  - { offset: 0x36F82, size: 0x8, addend: 0x0, symName: __ZL21ProfilePropertySetF64Pvyd, symObjAddr: 0x1DD0, symBinAddr: 0x10001373C, symSize: 0x88 }
  - { offset: 0x370CC, size: 0x8, addend: 0x0, symName: __ZL21ProfilePropertyAddS32Pvyi, symObjAddr: 0x1E58, symBinAddr: 0x1000137C4, symSize: 0x90 }
  - { offset: 0x37216, size: 0x8, addend: 0x0, symName: __ZL21ProfilePropertyAddU32Pvyj, symObjAddr: 0x1EE8, symBinAddr: 0x100013854, symSize: 0x90 }
  - { offset: 0x37360, size: 0x8, addend: 0x0, symName: __ZL21ProfilePropertyAddF32Pvyf, symObjAddr: 0x1F78, symBinAddr: 0x1000138E4, symSize: 0x90 }
  - { offset: 0x374AA, size: 0x8, addend: 0x0, symName: __ZL21ProfilePropertyAddS64Pvyx, symObjAddr: 0x2008, symBinAddr: 0x100013974, symSize: 0x90 }
  - { offset: 0x375F4, size: 0x8, addend: 0x0, symName: __ZL21ProfilePropertyAddU64Pvyy, symObjAddr: 0x2098, symBinAddr: 0x100013A04, symSize: 0x90 }
  - { offset: 0x3773E, size: 0x8, addend: 0x0, symName: __ZL21ProfilePropertyAddF64Pvyd, symObjAddr: 0x2128, symBinAddr: 0x100013A94, symSize: 0x90 }
  - { offset: 0x37888, size: 0x8, addend: 0x0, symName: __ZL20ProfilePropertyResetPvy, symObjAddr: 0x21B8, symBinAddr: 0x100013B24, symSize: 0xB4 }
  - { offset: 0x381A7, size: 0x8, addend: 0x0, symName: __ZL14CreateListenerv.cold.1, symObjAddr: 0x2B1C, symBinAddr: 0x10024CDDC, symSize: 0x28 }
  - { offset: 0x382EF, size: 0x8, addend: 0x0, symName: __GLOBAL__sub_I_profiler_basic.cpp, symObjAddr: 0x2F38, symBinAddr: 0x1000141FC, symSize: 0x1C }
  - { offset: 0x38324, size: 0x8, addend: 0x0, symName: _OUTLINED_FUNCTION_0, symObjAddr: 0x2F28, symBinAddr: 0x1000141EC, symSize: 0x8 }
  - { offset: 0x3833C, size: 0x8, addend: 0x0, symName: _OUTLINED_FUNCTION_1, symObjAddr: 0x2F30, symBinAddr: 0x1000141F4, symSize: 0x8 }
  - { offset: 0x3862E, size: 0x8, addend: 0x0, symName: __ZN13dmProfilerExt14GetMemoryUsageEv, symObjAddr: 0x4, symBinAddr: 0x100014218, symSize: 0x48 }
  - { offset: 0x38689, size: 0x8, addend: 0x0, symName: __ZN13dmProfilerExt11GetCpuUsageEv, symObjAddr: 0x4C, symBinAddr: 0x100014260, symSize: 0x12C }
  - { offset: 0x38B8C, size: 0x8, addend: 0x0, symName: __ZL17rmtp_GameObject_p, symObjAddr: 0x20110, symBinAddr: 0x100358040, symSize: 0x0 }
  - { offset: 0x38BBE, size: 0x8, addend: 0x0, symName: __ZN12dmGameObject14CompAnimUpdateERKNS_22ComponentsUpdateParamsERNS_22ComponentsUpdateResultE, symObjAddr: 0x43C, symBinAddr: 0x100014798, symSize: 0x754 }
  - { offset: 0x38BE8, size: 0x8, addend: 0x0, symName: __ZZN12dmGameObject14CompAnimUpdateERKNS_22ComponentsUpdateParamsERNS_22ComponentsUpdateResultEE9_scope164, symObjAddr: 0x20118, symBinAddr: 0x100358048, symSize: 0x0 }
  - { offset: 0x3977F, size: 0x8, addend: 0x0, symName: __ZN12dmGameObject16CompAnimNewWorldERKNS_23ComponentNewWorldParamsE, symObjAddr: 0x30, symBinAddr: 0x10001438C, symSize: 0x288 }
  - { offset: 0x39A50, size: 0x8, addend: 0x0, symName: __ZN11dmHashTableImtE11SetCapacityEjj, symObjAddr: 0x2B8, symBinAddr: 0x100014614, symSize: 0x150 }
  - { offset: 0x39A5B, size: 0x8, addend: 0x0, symName: __ZN12dmGameObject19CompAnimDeleteWorldERKNS_26ComponentDeleteWorldParamsE, symObjAddr: 0x408, symBinAddr: 0x100014764, symSize: 0x2C }
  - { offset: 0x39AB2, size: 0x8, addend: 0x0, symName: __ZN12dmGameObject19CompAnimAddToUpdateERKNS_26ComponentAddToUpdateParamsE, symObjAddr: 0x434, symBinAddr: 0x100014790, symSize: 0x8 }
  - { offset: 0x39C16, size: 0x8, addend: 0x0, symName: __ZN12dmGameObjectL23RemoveAnimationCallbackEPNS_9AnimWorldEPNS_9AnimationE, symObjAddr: 0xB90, symBinAddr: 0x100014EEC, symSize: 0x17C }
  - { offset: 0x39E49, size: 0x8, addend: 0x0, symName: __ZN11dmHashTableImtE5EraseEm, symObjAddr: 0xD0C, symBinAddr: 0x100015068, symSize: 0xAC }
  - { offset: 0x39F13, size: 0x8, addend: 0x0, symName: __ZN12dmGameObject7AnimateEPNS_16CollectionHandleEPNS_8InstanceEyyNS_8PlaybackERNS_11PropertyVarEN8dmEasing5CurveEffPFvS3_yybPvS9_ES9_S9_, symObjAddr: 0xDB8, symBinAddr: 0x100015114, symSize: 0x3E0 }
  - { offset: 0x3A33A, size: 0x8, addend: 0x0, symName: __ZN12dmGameObjectL8GetWorldEPNS_16CollectionHandleE, symObjAddr: 0x1198, symBinAddr: 0x1000154F4, symSize: 0x68 }
  - { offset: 0x3A41E, size: 0x8, addend: 0x0, symName: __ZN12dmGameObjectL13PlayAnimationEPNS_9AnimWorldEPNS_8InstanceEyyNS_8PlaybackEPfffN8dmEasing5CurveEffPFvS3_yybPvS8_ES8_S8_b, symObjAddr: 0x1200, symBinAddr: 0x10001555C, symSize: 0x54C }
  - { offset: 0x3A429, size: 0x8, addend: 0x0, symName: __ZN12dmGameObjectL13PlayAnimationEPNS_9AnimWorldEPNS_8InstanceEyyNS_8PlaybackEPfffN8dmEasing5CurveEffPFvS3_yybPvS8_ES8_S8_b, symObjAddr: 0x1200, symBinAddr: 0x10001555C, symSize: 0x54C }
  - { offset: 0x3AB05, size: 0x8, addend: 0x0, symName: __ZN12dmGameObject16CancelAnimationsEPNS_16CollectionHandleEPNS_8InstanceEyy, symObjAddr: 0x174C, symBinAddr: 0x100015AA8, symSize: 0x320 }
  - { offset: 0x3B4AD, size: 0x8, addend: 0x0, symName: __ZN12dmGameObject16CancelAnimationsEPNS_16CollectionHandleEPNS_8InstanceEyy, symObjAddr: 0x174C, symBinAddr: 0x100015AA8, symSize: 0x320 }
  - { offset: 0x3B96B, size: 0x8, addend: 0x0, symName: __ZN12dmGameObject16CancelAnimationsEPNS_16CollectionHandleEPNS_8InstanceE, symObjAddr: 0x1A6C, symBinAddr: 0x100015DC8, symSize: 0x314 }
  - { offset: 0x3BE07, size: 0x8, addend: 0x0, symName: __ZN12dmGameObject24CancelAnimationCallbacksEPNS_16CollectionHandleEPv, symObjAddr: 0x1D80, symBinAddr: 0x1000160DC, symSize: 0xE8 }
  - { offset: 0x3BE11, size: 0x8, addend: 0x0, symName: __ZN12dmGameObject24CancelAnimationCallbacksEPNS_16CollectionHandleEPv, symObjAddr: 0x1D80, symBinAddr: 0x1000160DC, symSize: 0xE8 }
  - { offset: 0x3BF83, size: 0x8, addend: 0x0, symName: __ZN12dmGameObject9AnimWorldD2Ev, symObjAddr: 0x1E68, symBinAddr: 0x1000161C4, symSize: 0x9C }
  - { offset: 0x3D0E1, size: 0x8, addend: 0x0, symName: __ZN11dmHashTableImtE11SetCapacityEjj, symObjAddr: 0x2B8, symBinAddr: 0x100014614, symSize: 0x150 }
  - { offset: 0x3D2B9, size: 0x8, addend: 0x0, symName: __ZN12dmGameObject19CompAnimDeleteWorldERKNS_26ComponentDeleteWorldParamsE, symObjAddr: 0x408, symBinAddr: 0x100014764, symSize: 0x2C }
  - { offset: 0x3D2EC, size: 0x8, addend: 0x0, symName: __ZN12dmGameObject16CompAnimNewWorldERKNS_23ComponentNewWorldParamsE.cold.2, symObjAddr: 0x2098, symBinAddr: 0x10024CEA0, symSize: 0x28 }
  - { offset: 0x3D3F1, size: 0x8, addend: 0x0, symName: __ZN11dmHashTableImtE3PutEmRKt, symObjAddr: 0x1F04, symBinAddr: 0x100016260, symSize: 0x110 }
  - { offset: 0x3D58F, size: 0x8, addend: 0x0, symName: __ZN12dmGameObject9AnimWorldD2Ev, symObjAddr: 0x1E68, symBinAddr: 0x1000161C4, symSize: 0x9C }
  - { offset: 0x3D97A, size: 0x8, addend: 0x0, symName: __ZN11dmHashTableImtE5EraseEm, symObjAddr: 0xD0C, symBinAddr: 0x100015068, symSize: 0xAC }
  - { offset: 0x3DA30, size: 0x8, addend: 0x0, symName: __ZN12dmGameObject7AnimateEPNS_16CollectionHandleEPNS_8InstanceEyyNS_8PlaybackERNS_11PropertyVarEN8dmEasing5CurveEffPFvS3_yybPvS9_ES9_S9_, symObjAddr: 0xDB8, symBinAddr: 0x100015114, symSize: 0x3E0 }
  - { offset: 0x3DB0B, size: 0x8, addend: 0x0, symName: __ZN12dmGameObject14CompAnimUpdateERKNS_22ComponentsUpdateParamsERNS_22ComponentsUpdateResultE.cold.9, symObjAddr: 0x22A8, symBinAddr: 0x10024CEC8, symSize: 0x24 }
  - { offset: 0x3DB4E, size: 0x8, addend: 0x0, symName: __ZN12dmGameObject14CompAnimUpdateERKNS_22ComponentsUpdateParamsERNS_22ComponentsUpdateResultE.cold.10, symObjAddr: 0x22CC, symBinAddr: 0x10024CEEC, symSize: 0x24 }
  - { offset: 0x3DC06, size: 0x8, addend: 0x0, symName: __ZN11dmHashTableImtE5EraseEm.cold.3, symObjAddr: 0x2444, symBinAddr: 0x10024CF60, symSize: 0x28 }
  - { offset: 0x3DC1E, size: 0x8, addend: 0x0, symName: __ZN11dmHashTableImtE5EraseEm.cold.2, symObjAddr: 0x241C, symBinAddr: 0x10024CF38, symSize: 0x28 }
  - { offset: 0x3DC36, size: 0x8, addend: 0x0, symName: __ZN11dmHashTableImtE5EraseEm.cold.1, symObjAddr: 0x23F4, symBinAddr: 0x10024CF10, symSize: 0x28 }
  - { offset: 0x3E015, size: 0x8, addend: 0x0, symName: __ZN12dmGameObjectL8GetWorldEPNS_16CollectionHandleE.cold.1, symObjAddr: 0x246C, symBinAddr: 0x10024CF88, symSize: 0x28 }
  - { offset: 0x3E02D, size: 0x8, addend: 0x0, symName: __ZN12dmGameObjectL8GetWorldEPNS_16CollectionHandleE.cold.2, symObjAddr: 0x2494, symBinAddr: 0x10024CFB0, symSize: 0x28 }
  - { offset: 0x3E108, size: 0x8, addend: 0x0, symName: __ZN12dmGameObjectL13PlayAnimationEPNS_9AnimWorldEPNS_8InstanceEyyNS_8PlaybackEPfffN8dmEasing5CurveEffPFvS3_yybPvS8_ES8_S8_b.cold.14, symObjAddr: 0x269C, symBinAddr: 0x10024D000, symSize: 0x28 }
  - { offset: 0x3E136, size: 0x8, addend: 0x0, symName: __ZN12dmGameObjectL13PlayAnimationEPNS_9AnimWorldEPNS_8InstanceEyyNS_8PlaybackEPfffN8dmEasing5CurveEffPFvS3_yybPvS8_ES8_S8_b.cold.1, symObjAddr: 0x24BC, symBinAddr: 0x10024CFD8, symSize: 0x28 }
  - { offset: 0x3E530, size: 0x8, addend: 0x0, symName: __GLOBAL__sub_I_comp_anim.cpp, symObjAddr: 0x29B8, symBinAddr: 0x100016380, symSize: 0x38 }
  - { offset: 0x3E5AA, size: 0x8, addend: 0x0, symName: __GLOBAL__sub_I_comp_anim.cpp.cold.1, symObjAddr: 0x29F0, symBinAddr: 0x10024D028, symSize: 0x5C }
  - { offset: 0x3E5EC, size: 0x8, addend: 0x0, symName: _OUTLINED_FUNCTION_1, symObjAddr: 0x2988, symBinAddr: 0x100016370, symSize: 0x8 }
  - { offset: 0x3E604, size: 0x8, addend: 0x0, symName: _OUTLINED_FUNCTION_2, symObjAddr: 0x2990, symBinAddr: 0x100016378, symSize: 0x8 }
  - { offset: 0x3E818, size: 0x8, addend: 0x0, symName: __ZL17rmtp_GameObject_p, symObjAddr: 0x22398, symBinAddr: 0x100358060, symSize: 0x0 }
  - { offset: 0x3E84A, size: 0x8, addend: 0x0, symName: __ZN12dmGameObject9RunScriptEP9lua_StatePNS_6ScriptENS_14ScriptFunctionEPNS_14ScriptInstanceERKNS_15RunScriptParamsE, symObjAddr: 0x1AC, symBinAddr: 0x100016534, symSize: 0x1EC }
  - { offset: 0x3E874, size: 0x8, addend: 0x0, symName: __ZZN12dmGameObject9RunScriptEP9lua_StatePNS_6ScriptENS_14ScriptFunctionEPNS_14ScriptInstanceERKNS_15RunScriptParamsEE9_scope106, symObjAddr: 0x223A0, symBinAddr: 0x100358068, symSize: 0x0 }
  - { offset: 0x3EBC4, size: 0x8, addend: 0x0, symName: __ZN12dmGameObject19CompScriptOnMessageERKNS_24ComponentOnMessageParamsE, symObjAddr: 0x6F0, symBinAddr: 0x100016A78, symSize: 0x4DC }
  - { offset: 0x3EBEF, size: 0x8, addend: 0x0, symName: __ZZN12dmGameObject19CompScriptOnMessageERKNS_24ComponentOnMessageParamsEE9_scope382, symObjAddr: 0x223A8, symBinAddr: 0x100358070, symSize: 0x0 }
  - { offset: 0x3F2E5, size: 0x8, addend: 0x0, symName: __ZN12dmGameObject17CompScriptOnInputERKNS_22ComponentOnInputParamsE, symObjAddr: 0xBCC, symBinAddr: 0x100016F54, symSize: 0xC30 }
  - { offset: 0x3F310, size: 0x8, addend: 0x0, symName: __ZZN12dmGameObject17CompScriptOnInputERKNS_22ComponentOnInputParamsEE9_scope483, symObjAddr: 0x223B0, symBinAddr: 0x100358078, symSize: 0x0 }
  - { offset: 0x410ED, size: 0x8, addend: 0x0, symName: __ZN12dmGameObject18CompScriptNewWorldERKNS_23ComponentNewWorldParamsE, symObjAddr: 0x30, symBinAddr: 0x1000163B8, symSize: 0x74 }
  - { offset: 0x41177, size: 0x8, addend: 0x0, symName: __ZN12dmGameObject21CompScriptDeleteWorldERKNS_26ComponentDeleteWorldParamsE, symObjAddr: 0xA4, symBinAddr: 0x10001642C, symSize: 0x50 }
  - { offset: 0x4123E, size: 0x8, addend: 0x0, symName: __ZN12dmGameObject16CompScriptCreateERKNS_21ComponentCreateParamsE, symObjAddr: 0xF4, symBinAddr: 0x10001647C, symSize: 0xB8 }
  - { offset: 0x41349, size: 0x8, addend: 0x0, symName: __ZN12dmGameObject9RunScriptEP9lua_StatePNS_6ScriptENS_14ScriptFunctionEPNS_14ScriptInstanceERKNS_15RunScriptParamsE, symObjAddr: 0x1AC, symBinAddr: 0x100016534, symSize: 0x1EC }
  - { offset: 0x4139E, size: 0x8, addend: 0x0, symName: __ZN12dmGameObject17CompScriptDestroyERKNS_22ComponentDestroyParamsE, symObjAddr: 0x398, symBinAddr: 0x100016720, symSize: 0x74 }
  - { offset: 0x41425, size: 0x8, addend: 0x0, symName: __ZN12dmGameObject14CompScriptInitERKNS_19ComponentInitParamsE, symObjAddr: 0x40C, symBinAddr: 0x100016794, symSize: 0x64 }
  - { offset: 0x41480, size: 0x8, addend: 0x0, symName: __ZN12dmGameObject14CompScriptInitERKNS_19ComponentInitParamsE, symObjAddr: 0x40C, symBinAddr: 0x100016794, symSize: 0x64 }
  - { offset: 0x4155E, size: 0x8, addend: 0x0, symName: __ZN12dmGameObject15CompScriptFinalERKNS_20ComponentFinalParamsE, symObjAddr: 0x470, symBinAddr: 0x1000167F8, symSize: 0x80 }
  - { offset: 0x41677, size: 0x8, addend: 0x0, symName: __ZN12dmGameObject21CompScriptAddToUpdateERKNS_26ComponentAddToUpdateParamsE, symObjAddr: 0x4F0, symBinAddr: 0x100016878, symSize: 0x5C }
  - { offset: 0x41682, size: 0x8, addend: 0x0, symName: __ZN12dmGameObject21CompScriptAddToUpdateERKNS_26ComponentAddToUpdateParamsE, symObjAddr: 0x4F0, symBinAddr: 0x100016878, symSize: 0x5C }
  - { offset: 0x416DB, size: 0x8, addend: 0x0, symName: __ZN12dmGameObject16CompScriptUpdateERKNS_22ComponentsUpdateParamsERNS_22ComponentsUpdateResultE, symObjAddr: 0x54C, symBinAddr: 0x1000168D4, symSize: 0x5C }
  - { offset: 0x41775, size: 0x8, addend: 0x0, symName: __ZN12dmGameObjectL24CompScriptUpdateInternalERKNS_22ComponentsUpdateParamsENS_14ScriptFunctionERNS_22ComponentsUpdateResultE, symObjAddr: 0x5A8, symBinAddr: 0x100016930, symSize: 0x100 }
  - { offset: 0x41935, size: 0x8, addend: 0x0, symName: __ZN12dmGameObject21CompScriptFixedUpdateERKNS_22ComponentsUpdateParamsERNS_22ComponentsUpdateResultE, symObjAddr: 0x6A8, symBinAddr: 0x100016A30, symSize: 0x3C }
  - { offset: 0x4193F, size: 0x8, addend: 0x0, symName: __ZN12dmGameObject21CompScriptFixedUpdateERKNS_22ComponentsUpdateParamsERNS_22ComponentsUpdateResultE, symObjAddr: 0x6A8, symBinAddr: 0x100016A30, symSize: 0x3C }
  - { offset: 0x419AF, size: 0x8, addend: 0x0, symName: __ZN12dmGameObject20CompScriptLateUpdateERKNS_22ComponentsUpdateParamsERNS_22ComponentsUpdateResultE, symObjAddr: 0x6E4, symBinAddr: 0x100016A6C, symSize: 0xC }
  - { offset: 0x41B17, size: 0x8, addend: 0x0, symName: __ZN12dmGameObject18CompScriptOnReloadERKNS_23ComponentOnReloadParamsE, symObjAddr: 0x17FC, symBinAddr: 0x100017B84, symSize: 0xC8 }
  - { offset: 0x41CBF, size: 0x8, addend: 0x0, symName: __ZN12dmGameObject23CompScriptSetPropertiesERKNS_28ComponentSetPropertiesParamsE, symObjAddr: 0x18C4, symBinAddr: 0x100017C4C, symSize: 0xF8 }
  - { offset: 0x41D0E, size: 0x8, addend: 0x0, symName: __ZN12dmGameObject23CompScriptSetPropertiesERKNS_28ComponentSetPropertiesParamsE, symObjAddr: 0x18C4, symBinAddr: 0x100017C4C, symSize: 0xF8 }
  - { offset: 0x41EBD, size: 0x8, addend: 0x0, symName: __ZN12dmGameObject21CompScriptGetPropertyERKNS_26ComponentGetPropertyParamsERNS_12PropertyDescE, symObjAddr: 0x19BC, symBinAddr: 0x100017D44, symSize: 0x90 }
  - { offset: 0x41EC7, size: 0x8, addend: 0x0, symName: __ZN12dmGameObject21CompScriptGetPropertyERKNS_26ComponentGetPropertyParamsERNS_12PropertyDescE, symObjAddr: 0x19BC, symBinAddr: 0x100017D44, symSize: 0x90 }
  - { offset: 0x41FAC, size: 0x8, addend: 0x0, symName: __ZN12dmGameObjectL16FindPropertyNameEPN15dmPropertiesDDF20PropertyDeclarationsEyPPKcPNS_12PropertyTypeEPPyPbPj, symObjAddr: 0x1A4C, symBinAddr: 0x100017DD4, symSize: 0x474 }
  - { offset: 0x422D9, size: 0x8, addend: 0x0, symName: __ZN12dmGameObjectL21RetrieveVarFromScriptEPNS_14ScriptInstanceEPKcNS_12PropertyTypeEPybjRNS_12PropertyDescE, symObjAddr: 0x1EC0, symBinAddr: 0x100018248, symSize: 0x1D8 }
  - { offset: 0x425F4, size: 0x8, addend: 0x0, symName: __ZN12dmGameObjectL28FindPropertyNameFromElementsEPN15dmPropertiesDDF24PropertyDeclarationEntryEjyPPKcPj, symObjAddr: 0x2634, symBinAddr: 0x1000189BC, symSize: 0x8C }
  - { offset: 0x426B7, size: 0x8, addend: 0x0, symName: __ZN12dmGameObject21CompScriptSetPropertyERKNS_26ComponentSetPropertyParamsE, symObjAddr: 0x2098, symBinAddr: 0x100018420, symSize: 0x1F4 }
  - { offset: 0x429AF, size: 0x8, addend: 0x0, symName: __ZN12dmGameObject24CompScriptIterPropertiesEPNS_25SceneNodePropertyIteratorEPNS_9SceneNodeE, symObjAddr: 0x228C, symBinAddr: 0x100018614, symSize: 0x40 }
  - { offset: 0x429FA, size: 0x8, addend: 0x0, symName: __ZN12dmGameObjectL31CompScriptIterPropertiesGetNextEPNS_25SceneNodePropertyIteratorE, symObjAddr: 0x22CC, symBinAddr: 0x100018654, symSize: 0x368 }
  - { offset: 0x42A05, size: 0x8, addend: 0x0, symName: __ZN12dmGameObjectL31CompScriptIterPropertiesGetNextEPNS_25SceneNodePropertyIteratorE, symObjAddr: 0x22CC, symBinAddr: 0x100018654, symSize: 0x368 }
  - { offset: 0x44C00, size: 0x8, addend: 0x0, symName: __ZN12dmGameObject9RunScriptEP9lua_StatePNS_6ScriptENS_14ScriptFunctionEPNS_14ScriptInstanceERKNS_15RunScriptParamsE.cold.1, symObjAddr: 0x2744, symBinAddr: 0x10024D084, symSize: 0x28 }
  - { offset: 0x44C89, size: 0x8, addend: 0x0, symName: __ZN12dmGameObject15CompScriptFinalERKNS_20ComponentFinalParamsE.cold.1, symObjAddr: 0x2794, symBinAddr: 0x10024D0AC, symSize: 0x28 }
  - { offset: 0x44CD9, size: 0x8, addend: 0x0, symName: __ZN12dmGameObjectL24CompScriptUpdateInternalERKNS_22ComponentsUpdateParamsENS_14ScriptFunctionERNS_22ComponentsUpdateResultE.cold.1, symObjAddr: 0x27BC, symBinAddr: 0x10024D0D4, symSize: 0x28 }
  - { offset: 0x44D06, size: 0x8, addend: 0x0, symName: __ZN12dmGameObjectL24CompScriptUpdateInternalERKNS_22ComponentsUpdateParamsENS_14ScriptFunctionERNS_22ComponentsUpdateResultE.cold.2, symObjAddr: 0x27E4, symBinAddr: 0x10024D0FC, symSize: 0x28 }
  - { offset: 0x44DCD, size: 0x8, addend: 0x0, symName: __ZN12dmGameObject19CompScriptOnMessageERKNS_24ComponentOnMessageParamsE.cold.1, symObjAddr: 0x280C, symBinAddr: 0x10024D124, symSize: 0x28 }
  - { offset: 0x44DFB, size: 0x8, addend: 0x0, symName: __ZN12dmGameObject19CompScriptOnMessageERKNS_24ComponentOnMessageParamsE.cold.2, symObjAddr: 0x2834, symBinAddr: 0x10024D14C, symSize: 0x28 }
  - { offset: 0x44EBB, size: 0x8, addend: 0x0, symName: __ZN12dmGameObject17CompScriptOnInputERKNS_22ComponentOnInputParamsE.cold.1, symObjAddr: 0x285C, symBinAddr: 0x10024D174, symSize: 0x28 }
  - { offset: 0x44ED3, size: 0x8, addend: 0x0, symName: __ZN12dmGameObject18CompScriptOnReloadERKNS_23ComponentOnReloadParamsE.cold.1, symObjAddr: 0x2884, symBinAddr: 0x10024D19C, symSize: 0x28 }
  - { offset: 0x44F14, size: 0x8, addend: 0x0, symName: __ZN12dmGameObject23CompScriptSetPropertiesERKNS_28ComponentSetPropertiesParamsE.cold.1, symObjAddr: 0x28AC, symBinAddr: 0x10024D1C4, symSize: 0x28 }
  - { offset: 0x44F5A, size: 0x8, addend: 0x0, symName: __ZN12dmGameObjectL21RetrieveVarFromScriptEPNS_14ScriptInstanceEPKcNS_12PropertyTypeEPybjRNS_12PropertyDescE.cold.1, symObjAddr: 0x28D4, symBinAddr: 0x10024D1EC, symSize: 0x28 }
  - { offset: 0x44F7C, size: 0x8, addend: 0x0, symName: __ZN12dmGameObject21CompScriptSetPropertyERKNS_26ComponentSetPropertyParamsE.cold.1, symObjAddr: 0x28FC, symBinAddr: 0x10024D214, symSize: 0x28 }
  - { offset: 0x44F94, size: 0x8, addend: 0x0, symName: __ZN12dmGameObject24CompScriptIterPropertiesEPNS_25SceneNodePropertyIteratorEPNS_9SceneNodeE.cold.1, symObjAddr: 0x2924, symBinAddr: 0x10024D23C, symSize: 0x28 }
  - { offset: 0x44FAC, size: 0x8, addend: 0x0, symName: __ZN12dmGameObject24CompScriptIterPropertiesEPNS_25SceneNodePropertyIteratorEPNS_9SceneNodeE.cold.2, symObjAddr: 0x294C, symBinAddr: 0x10024D264, symSize: 0x28 }
  - { offset: 0x44FC4, size: 0x8, addend: 0x0, symName: __ZN12dmGameObjectL31CompScriptIterPropertiesGetNextEPNS_25SceneNodePropertyIteratorE.cold.1, symObjAddr: 0x2974, symBinAddr: 0x10024D28C, symSize: 0x28 }
  - { offset: 0x45034, size: 0x8, addend: 0x0, symName: __ZN12dmGameObjectL28FindPropertyNameFromElementsEPN15dmPropertiesDDF24PropertyDeclarationEntryEjyPPKcPj.cold.1, symObjAddr: 0x299C, symBinAddr: 0x10024D2B4, symSize: 0x28 }
  - { offset: 0x45081, size: 0x8, addend: 0x0, symName: __GLOBAL__sub_I_comp_script.cpp, symObjAddr: 0x29C4, symBinAddr: 0x100018A48, symSize: 0x38 }
  - { offset: 0x450FB, size: 0x8, addend: 0x0, symName: __GLOBAL__sub_I_comp_script.cpp.cold.1, symObjAddr: 0x29FC, symBinAddr: 0x10024D2DC, symSize: 0x5C }
  - { offset: 0x45332, size: 0x8, addend: 0x0, symName: __ZN12dmGameObject31RegisterComponentTypeDescriptorEPNS_23ComponentTypeDescriptorEPKcPFNS_6ResultEPKNS_22ComponentTypeCreateCtxEPNS_13ComponentTypeEESB_, symObjAddr: 0x0, symBinAddr: 0x100018A80, symSize: 0x6C }
  - { offset: 0x45363, size: 0x8, addend: 0x0, symName: __ZN12dmGameObjectL23g_ComponentTypeSentinelE.0, symObjAddr: 0xC880, symBinAddr: 0x100358090, symSize: 0x0 }
  - { offset: 0x455C9, size: 0x8, addend: 0x0, symName: __ZN12dmGameObject31RegisterComponentTypeDescriptorEPNS_23ComponentTypeDescriptorEPKcPFNS_6ResultEPKNS_22ComponentTypeCreateCtxEPNS_13ComponentTypeEESB_, symObjAddr: 0x0, symBinAddr: 0x100018A80, symSize: 0x6C }
  - { offset: 0x45637, size: 0x8, addend: 0x0, symName: __ZN12dmGameObject30CreateRegisteredComponentTypesEPKNS_22ComponentTypeCreateCtxE, symObjAddr: 0x6C, symBinAddr: 0x100018AEC, symSize: 0x12C }
  - { offset: 0x457C0, size: 0x8, addend: 0x0, symName: __ZN12dmGameObject31DestroyRegisteredComponentTypesEPKNS_22ComponentTypeCreateCtxE, symObjAddr: 0x198, symBinAddr: 0x100018C18, symSize: 0x98 }
  - { offset: 0x45890, size: 0x8, addend: 0x0, symName: __ZN12dmGameObject26ComponentTypeSetNewWorldFnEPNS_13ComponentTypeEPFNS_12CreateResultERKNS_23ComponentNewWorldParamsEE, symObjAddr: 0x230, symBinAddr: 0x100018CB0, symSize: 0x8 }
  - { offset: 0x458C5, size: 0x8, addend: 0x0, symName: __ZN12dmGameObject29ComponentTypeSetDeleteWorldFnEPNS_13ComponentTypeEPFNS_12CreateResultERKNS_26ComponentDeleteWorldParamsEE, symObjAddr: 0x238, symBinAddr: 0x100018CB8, symSize: 0x8 }
  - { offset: 0x458FA, size: 0x8, addend: 0x0, symName: __ZN12dmGameObject24ComponentTypeSetCreateFnEPNS_13ComponentTypeEPFNS_12CreateResultERKNS_21ComponentCreateParamsEE, symObjAddr: 0x240, symBinAddr: 0x100018CC0, symSize: 0x8 }
  - { offset: 0x4592F, size: 0x8, addend: 0x0, symName: __ZN12dmGameObject25ComponentTypeSetDestroyFnEPNS_13ComponentTypeEPFNS_12CreateResultERKNS_22ComponentDestroyParamsEE, symObjAddr: 0x248, symBinAddr: 0x100018CC8, symSize: 0x8 }
  - { offset: 0x45964, size: 0x8, addend: 0x0, symName: __ZN12dmGameObject22ComponentTypeSetInitFnEPNS_13ComponentTypeEPFNS_12CreateResultERKNS_19ComponentInitParamsEE, symObjAddr: 0x250, symBinAddr: 0x100018CD0, symSize: 0x8 }
  - { offset: 0x45999, size: 0x8, addend: 0x0, symName: __ZN12dmGameObject23ComponentTypeSetFinalFnEPNS_13ComponentTypeEPFNS_12CreateResultERKNS_20ComponentFinalParamsEE, symObjAddr: 0x258, symBinAddr: 0x100018CD8, symSize: 0x8 }
  - { offset: 0x459CE, size: 0x8, addend: 0x0, symName: __ZN12dmGameObject29ComponentTypeSetAddToUpdateFnEPNS_13ComponentTypeEPFNS_12CreateResultERKNS_26ComponentAddToUpdateParamsEE, symObjAddr: 0x260, symBinAddr: 0x100018CE0, symSize: 0x8 }
  - { offset: 0x45A03, size: 0x8, addend: 0x0, symName: __ZN12dmGameObject21ComponentTypeSetGetFnEPNS_13ComponentTypeEPFPvRKNS_18ComponentGetParamsEE, symObjAddr: 0x268, symBinAddr: 0x100018CE8, symSize: 0x8 }
  - { offset: 0x45A38, size: 0x8, addend: 0x0, symName: __ZN12dmGameObject24ComponentTypeSetRenderFnEPNS_13ComponentTypeEPFNS_12UpdateResultERKNS_22ComponentsRenderParamsEE, symObjAddr: 0x270, symBinAddr: 0x100018CF0, symSize: 0x8 }
  - { offset: 0x45A6D, size: 0x8, addend: 0x0, symName: __ZN12dmGameObject24ComponentTypeSetUpdateFnEPNS_13ComponentTypeEPFNS_12UpdateResultERKNS_22ComponentsUpdateParamsERNS_22ComponentsUpdateResultEE, symObjAddr: 0x278, symBinAddr: 0x100018CF8, symSize: 0x8 }
  - { offset: 0x45AA2, size: 0x8, addend: 0x0, symName: __ZN12dmGameObject28ComponentTypeSetLateUpdateFnEPNS_13ComponentTypeEPFNS_12UpdateResultERKNS_22ComponentsUpdateParamsERNS_22ComponentsUpdateResultEE, symObjAddr: 0x280, symBinAddr: 0x100018D00, symSize: 0x8 }
  - { offset: 0x45AD7, size: 0x8, addend: 0x0, symName: __ZN12dmGameObject29ComponentTypeSetFixedUpdateFnEPNS_13ComponentTypeEPFNS_12UpdateResultERKNS_22ComponentsUpdateParamsERNS_22ComponentsUpdateResultEE, symObjAddr: 0x288, symBinAddr: 0x100018D08, symSize: 0x8 }
  - { offset: 0x45B0C, size: 0x8, addend: 0x0, symName: __ZN12dmGameObject27ComponentTypeSetOnMessageFnEPNS_13ComponentTypeEPFNS_12UpdateResultERKNS_24ComponentOnMessageParamsEE, symObjAddr: 0x298, symBinAddr: 0x100018D10, symSize: 0x8 }
  - { offset: 0x45B41, size: 0x8, addend: 0x0, symName: __ZN12dmGameObject25ComponentTypeSetOnInputFnEPNS_13ComponentTypeEPFNS_11InputResultERKNS_22ComponentOnInputParamsEE, symObjAddr: 0x2A0, symBinAddr: 0x100018D18, symSize: 0x8 }
  - { offset: 0x45B76, size: 0x8, addend: 0x0, symName: __ZN12dmGameObject26ComponentTypeSetOnReloadFnEPNS_13ComponentTypeEPFvRKNS_23ComponentOnReloadParamsEE, symObjAddr: 0x2A8, symBinAddr: 0x100018D20, symSize: 0x8 }
  - { offset: 0x45BAB, size: 0x8, addend: 0x0, symName: __ZN12dmGameObject31ComponentTypeSetSetPropertiesFnEPNS_13ComponentTypeEPFNS_14PropertyResultERKNS_28ComponentSetPropertiesParamsEE, symObjAddr: 0x2B0, symBinAddr: 0x100018D28, symSize: 0x8 }
  - { offset: 0x45BE0, size: 0x8, addend: 0x0, symName: __ZN12dmGameObject29ComponentTypeSetGetPropertyFnEPNS_13ComponentTypeEPFNS_14PropertyResultERKNS_26ComponentGetPropertyParamsERNS_12PropertyDescEE, symObjAddr: 0x2B8, symBinAddr: 0x100018D30, symSize: 0x8 }
  - { offset: 0x45C15, size: 0x8, addend: 0x0, symName: __ZN12dmGameObject29ComponentTypeSetSetPropertyFnEPNS_13ComponentTypeEPFNS_14PropertyResultERKNS_26ComponentSetPropertyParamsEE, symObjAddr: 0x2C0, symBinAddr: 0x100018D38, symSize: 0x8 }
  - { offset: 0x45C4A, size: 0x8, addend: 0x0, symName: __ZN12dmGameObject23ComponentTypeSetContextEPNS_13ComponentTypeEPv, symObjAddr: 0x2C8, symBinAddr: 0x100018D40, symSize: 0x8 }
  - { offset: 0x45C7F, size: 0x8, addend: 0x0, symName: __ZN12dmGameObject31ComponentTypeSetReadsTransformsEPNS_13ComponentTypeEb, symObjAddr: 0x2D0, symBinAddr: 0x100018D48, symSize: 0x20 }
  - { offset: 0x45CB9, size: 0x8, addend: 0x0, symName: __ZN12dmGameObject20ComponentTypeSetPrioEPNS_13ComponentTypeEt, symObjAddr: 0x2F0, symBinAddr: 0x100018D68, symSize: 0x8 }
  - { offset: 0x45CEE, size: 0x8, addend: 0x0, symName: __ZN12dmGameObject27ComponentTypeSetHasUserDataEPNS_13ComponentTypeEb, symObjAddr: 0x2F8, symBinAddr: 0x100018D70, symSize: 0x20 }
  - { offset: 0x45D28, size: 0x8, addend: 0x0, symName: __ZN12dmGameObject31ComponentTypeSetChildIteratorFnEPNS_13ComponentTypeEPFvPNS_17SceneNodeIteratorEPNS_9SceneNodeEE, symObjAddr: 0x318, symBinAddr: 0x100018D90, symSize: 0x8 }
  - { offset: 0x45D5D, size: 0x8, addend: 0x0, symName: __ZN12dmGameObject34ComponentTypeSetPropertyIteratorFnEPNS_13ComponentTypeEPFvPNS_25SceneNodePropertyIteratorEPNS_9SceneNodeEE, symObjAddr: 0x320, symBinAddr: 0x100018D98, symSize: 0x8 }
  - { offset: 0x45D92, size: 0x8, addend: 0x0, symName: __ZN12dmGameObject23ComponentTypeGetContextEPNS_13ComponentTypeE, symObjAddr: 0x330, symBinAddr: 0x100018DA0, symSize: 0x8 }
  - { offset: 0x46175, size: 0x8, addend: 0x0, symName: __Z15rmtp_GameObjectv, symObjAddr: 0x0, symBinAddr: 0x100018DA8, symSize: 0x30 }
  - { offset: 0x46195, size: 0x8, addend: 0x0, symName: __MergedGlobals, symObjAddr: 0x8CA10, symBinAddr: 0x1003581F8, symSize: 0x0 }
  - { offset: 0x461C9, size: 0x8, addend: 0x0, symName: __ZN12dmGameObject28COLLECTION_MAX_INSTANCES_KEYE, symObjAddr: 0xEC30, symBinAddr: 0x100341CC0, symSize: 0x0 }
  - { offset: 0x461E2, size: 0x8, addend: 0x0, symName: __ZN12dmGameObject38COLLECTION_MAX_INPUT_STACK_ENTRIES_KEYE, symObjAddr: 0xEC38, symBinAddr: 0x100341CC8, symSize: 0x0 }
  - { offset: 0x461FB, size: 0x8, addend: 0x0, symName: __ZN12dmGameObject18UNNAMED_IDENTIFIERE, symObjAddr: 0x8C8A8, symBinAddr: 0x100368B10, symSize: 0x0 }
  - { offset: 0x46214, size: 0x8, addend: 0x0, symName: __ZN12dmGameObjectL15GAME_OBJECT_EXTE, symObjAddr: 0x8C8B0, symBinAddr: 0x100358098, symSize: 0x0 }
  - { offset: 0x4622D, size: 0x8, addend: 0x0, symName: __ZN12dmGameObject12ID_SEPARATORE, symObjAddr: 0xEC40, symBinAddr: 0x100341CD0, symSize: 0x0 }
  - { offset: 0x46246, size: 0x8, addend: 0x0, symName: __ZN12dmGameObjectL15EMPTY_PROTOTYPEE, symObjAddr: 0x8C8B8, symBinAddr: 0x1003580A0, symSize: 0x0 }
  - { offset: 0x46C06, size: 0x8, addend: 0x0, symName: __ZN12dmGameObjectL13PROP_SCALE_XYE, symObjAddr: 0x8C8E8, symBinAddr: 0x1003580D0, symSize: 0x0 }
  - { offset: 0x46C1F, size: 0x8, addend: 0x0, symName: __ZN12dmGameObjectL13PROP_POSITIONE, symObjAddr: 0x8C8F0, symBinAddr: 0x1003580D8, symSize: 0x0 }
  - { offset: 0x46C38, size: 0x8, addend: 0x0, symName: __ZN12dmGameObjectL15PROP_POSITION_XE, symObjAddr: 0x8C8F8, symBinAddr: 0x1003580E0, symSize: 0x0 }
  - { offset: 0x46C51, size: 0x8, addend: 0x0, symName: __ZN12dmGameObjectL15PROP_POSITION_YE, symObjAddr: 0x8C900, symBinAddr: 0x1003580E8, symSize: 0x0 }
  - { offset: 0x46C6A, size: 0x8, addend: 0x0, symName: __ZN12dmGameObjectL15PROP_POSITION_ZE, symObjAddr: 0x8C908, symBinAddr: 0x1003580F0, symSize: 0x0 }
  - { offset: 0x46C83, size: 0x8, addend: 0x0, symName: __ZN12dmGameObjectL13PROP_ROTATIONE, symObjAddr: 0x8C910, symBinAddr: 0x1003580F8, symSize: 0x0 }
  - { offset: 0x46C9C, size: 0x8, addend: 0x0, symName: __ZN12dmGameObjectL15PROP_ROTATION_XE, symObjAddr: 0x8C918, symBinAddr: 0x100358100, symSize: 0x0 }
  - { offset: 0x46CB5, size: 0x8, addend: 0x0, symName: __ZN12dmGameObjectL15PROP_ROTATION_YE, symObjAddr: 0x8C920, symBinAddr: 0x100358108, symSize: 0x0 }
  - { offset: 0x46CCE, size: 0x8, addend: 0x0, symName: __ZN12dmGameObjectL15PROP_ROTATION_ZE, symObjAddr: 0x8C928, symBinAddr: 0x100358110, symSize: 0x0 }
  - { offset: 0x46CE7, size: 0x8, addend: 0x0, symName: __ZN12dmGameObjectL15PROP_ROTATION_WE, symObjAddr: 0x8C930, symBinAddr: 0x100358118, symSize: 0x0 }
  - { offset: 0x46D00, size: 0x8, addend: 0x0, symName: __ZN12dmGameObjectL10PROP_EULERE, symObjAddr: 0x8C938, symBinAddr: 0x100358120, symSize: 0x0 }
  - { offset: 0x46D19, size: 0x8, addend: 0x0, symName: __ZN12dmGameObjectL12PROP_EULER_XE, symObjAddr: 0x8C940, symBinAddr: 0x100358128, symSize: 0x0 }
  - { offset: 0x46D32, size: 0x8, addend: 0x0, symName: __ZN12dmGameObjectL12PROP_EULER_YE, symObjAddr: 0x8C948, symBinAddr: 0x100358130, symSize: 0x0 }
  - { offset: 0x46D4B, size: 0x8, addend: 0x0, symName: __ZN12dmGameObjectL12PROP_EULER_ZE, symObjAddr: 0x8C950, symBinAddr: 0x100358138, symSize: 0x0 }
  - { offset: 0x46D64, size: 0x8, addend: 0x0, symName: __ZN12dmGameObjectL10PROP_SCALEE, symObjAddr: 0x8C958, symBinAddr: 0x100358140, symSize: 0x0 }
  - { offset: 0x46D7D, size: 0x8, addend: 0x0, symName: __ZN12dmGameObjectL12PROP_SCALE_XE, symObjAddr: 0x8C960, symBinAddr: 0x100358148, symSize: 0x0 }
  - { offset: 0x46D96, size: 0x8, addend: 0x0, symName: __ZN12dmGameObjectL12PROP_SCALE_YE, symObjAddr: 0x8C968, symBinAddr: 0x100358150, symSize: 0x0 }
  - { offset: 0x46DAF, size: 0x8, addend: 0x0, symName: __ZN12dmGameObjectL12PROP_SCALE_ZE, symObjAddr: 0x8C970, symBinAddr: 0x100358158, symSize: 0x0 }
  - { offset: 0x46DE3, size: 0x8, addend: 0x0, symName: __ZN12dmGameObject16DeleteCollectionEPNS_10CollectionE, symObjAddr: 0xE08, symBinAddr: 0x10001981C, symSize: 0x168 }
  - { offset: 0x46E0A, size: 0x8, addend: 0x0, symName: __ZZN12dmGameObject16DeleteCollectionEPNS_10CollectionEE9_scope552, symObjAddr: 0x8C980, symBinAddr: 0x100358168, symSize: 0x0 }
  - { offset: 0x470A3, size: 0x8, addend: 0x0, symName: __ZN12dmGameObject19GetCollectionByHashEPNS_8RegisterEy, symObjAddr: 0xF70, symBinAddr: 0x100019984, symSize: 0x7C }
  - { offset: 0x470BA, size: 0x8, addend: 0x0, symName: __ZN12dmGameObject16CreateComponentsEPNS_10CollectionEPNS_8InstanceE, symObjAddr: 0x2308, symBinAddr: 0x10001AC80, symSize: 0x290 }
  - { offset: 0x470E5, size: 0x8, addend: 0x0, symName: __ZZN12dmGameObject16CreateComponentsEPNS_10CollectionEPNS_8InstanceEE9_scope831, symObjAddr: 0x8C988, symBinAddr: 0x100358170, symSize: 0x0 }
  - { offset: 0x474B8, size: 0x8, addend: 0x0, symName: __ZN12dmGameObject16CreateInstanceIdEv, symObjAddr: 0x26E4, symBinAddr: 0x10001B03C, symSize: 0x8C }
  - { offset: 0x474E3, size: 0x8, addend: 0x0, symName: __ZZN12dmGameObject16CreateInstanceIdEvE5index, symObjAddr: 0x8C990, symBinAddr: 0x100358178, symSize: 0x0 }
  - { offset: 0x4754A, size: 0x8, addend: 0x0, symName: __ZN12dmGameObject24DispatchMessagesFunctionEPN9dmMessage7MessageEPv, symObjAddr: 0x5068, symBinAddr: 0x10001D7B0, symSize: 0xAA4 }
  - { offset: 0x47571, size: 0x8, addend: 0x0, symName: __ZZN12dmGameObject24DispatchMessagesFunctionEPN9dmMessage7MessageEPvE10_scope2392, symObjAddr: 0x8C998, symBinAddr: 0x100358180, symSize: 0x0 }
  - { offset: 0x47587, size: 0x8, addend: 0x0, symName: __ZZN12dmGameObject24DispatchMessagesFunctionEPN9dmMessage7MessageEPvE10_scope2427, symObjAddr: 0x8C9A0, symBinAddr: 0x100358188, symSize: 0x0 }
  - { offset: 0x485DE, size: 0x8, addend: 0x0, symName: __ZN12dmGameObject16UpdateTransformsEPNS_10CollectionE, symObjAddr: 0x641C, symBinAddr: 0x10001EACC, symSize: 0x478 }
  - { offset: 0x48605, size: 0x8, addend: 0x0, symName: __ZZN12dmGameObject16UpdateTransformsEPNS_10CollectionEE10_scope2515, symObjAddr: 0x8C9A8, symBinAddr: 0x100358190, symSize: 0x0 }
  - { offset: 0x4930F, size: 0x8, addend: 0x0, symName: __ZN12dmGameObject16UpdateTransformsEPNS_16CollectionHandleE, symObjAddr: 0x6894, symBinAddr: 0x10001EF44, symSize: 0x8 }
  - { offset: 0x49326, size: 0x8, addend: 0x0, symName: __ZN12dmGameObject27UpdateTransformsForInstanceEPNS_10CollectionEPNS_8InstanceE, symObjAddr: 0x689C, symBinAddr: 0x10001EF4C, symSize: 0x2FC }
  - { offset: 0x4934D, size: 0x8, addend: 0x0, symName: __ZZN12dmGameObject27UpdateTransformsForInstanceEPNS_10CollectionEPNS_8InstanceEE10_scope2561, symObjAddr: 0x8C9B0, symBinAddr: 0x100358198, symSize: 0x0 }
  - { offset: 0x49AB1, size: 0x8, addend: 0x0, symName: __ZN12dmGameObject6RenderEPNS_16CollectionHandleE, symObjAddr: 0x6E0C, symBinAddr: 0x10001F4BC, symSize: 0x110 }
  - { offset: 0x49ADC, size: 0x8, addend: 0x0, symName: __ZZN12dmGameObject6RenderEPNS_16CollectionHandleEE10_scope2787, symObjAddr: 0x8C9B8, symBinAddr: 0x1003581A0, symSize: 0x0 }
  - { offset: 0x49D19, size: 0x8, addend: 0x0, symName: __ZN12dmGameObject10PostUpdateEPNS_16CollectionHandleE, symObjAddr: 0x6F1C, symBinAddr: 0x10001F5CC, symSize: 0x2F8 }
  - { offset: 0x49D23, size: 0x8, addend: 0x0, symName: __ZN12dmGameObject10PostUpdateEPNS_8RegisterE, symObjAddr: 0x7214, symBinAddr: 0x10001F8C4, symSize: 0xD4 }
  - { offset: 0x49D4E, size: 0x8, addend: 0x0, symName: __ZZN12dmGameObject10PostUpdateEPNS_8RegisterEE10_scope2920, symObjAddr: 0x8C9C0, symBinAddr: 0x1003581A8, symSize: 0x0 }
  - { offset: 0x49F79, size: 0x8, addend: 0x0, symName: __ZN12dmGameObject13DispatchInputEPNS_10CollectionEPNS_11InputActionEj, symObjAddr: 0x72E8, symBinAddr: 0x10001F998, symSize: 0x1DC }
  - { offset: 0x49F83, size: 0x8, addend: 0x0, symName: __ZN12dmGameObject13DispatchInputEPNS_10CollectionEPNS_11InputActionEj, symObjAddr: 0x72E8, symBinAddr: 0x10001F998, symSize: 0x1DC }
  - { offset: 0x49FAE, size: 0x8, addend: 0x0, symName: __ZZN12dmGameObject13DispatchInputEPNS_10CollectionEPNS_11InputActionEjE10_scope2948, symObjAddr: 0x8C9C8, symBinAddr: 0x1003581B0, symSize: 0x0 }
  - { offset: 0x4A235, size: 0x8, addend: 0x0, symName: __ZN12dmGameObject13DispatchInputEPNS_16CollectionHandleEPNS_11InputActionEj, symObjAddr: 0x74C4, symBinAddr: 0x10001FB74, symSize: 0x8 }
  - { offset: 0x4A24B, size: 0x8, addend: 0x0, symName: __ZN12dmGameObjectL15g_ScriptContextE, symObjAddr: 0x8C978, symBinAddr: 0x100358160, symSize: 0x0 }
  - { offset: 0x4A258, size: 0x8, addend: 0x0, symName: __ZN12dmGameObjectL17DeallocCollectionEPNS_10CollectionE, symObjAddr: 0x1A30, symBinAddr: 0x10001A3E4, symSize: 0xE4 }
  - { offset: 0x4A27F, size: 0x8, addend: 0x0, symName: __ZZN12dmGameObjectL17DeallocCollectionEPNS_10CollectionEE9_scope407, symObjAddr: 0x8C9D0, symBinAddr: 0x1003581B8, symSize: 0x0 }
  - { offset: 0x4A4B6, size: 0x8, addend: 0x0, symName: __ZN12dmGameObjectL16DoDeleteInstanceEPNS_10CollectionEPNS_8InstanceE, symObjAddr: 0x8BE4, symBinAddr: 0x100021024, symSize: 0x378 }
  - { offset: 0x4A4DD, size: 0x8, addend: 0x0, symName: __ZZN12dmGameObjectL16DoDeleteInstanceEPNS_10CollectionEPNS_8InstanceEE10_scope2000, symObjAddr: 0x8C9D8, symBinAddr: 0x1003581C0, symSize: 0x0 }
  - { offset: 0x4A985, size: 0x8, addend: 0x0, symName: __ZN12dmGameObjectL17DestroyComponentsEPNS_10CollectionEPNS_8InstanceE, symObjAddr: 0x8F5C, symBinAddr: 0x10002139C, symSize: 0x144 }
  - { offset: 0x4A98F, size: 0x8, addend: 0x0, symName: __ZN12dmGameObjectL17DestroyComponentsEPNS_10CollectionEPNS_8InstanceE, symObjAddr: 0x8F5C, symBinAddr: 0x10002139C, symSize: 0x144 }
  - { offset: 0x4A9B6, size: 0x8, addend: 0x0, symName: __ZZN12dmGameObjectL17DestroyComponentsEPNS_10CollectionEPNS_8InstanceEE9_scope913, symObjAddr: 0x8C9E0, symBinAddr: 0x1003581C8, symSize: 0x0 }
  - { offset: 0x4ABE7, size: 0x8, addend: 0x0, symName: __ZN12dmGameObjectL18ReparentChildNodesEPNS_10CollectionEPNS_8InstanceE, symObjAddr: 0x90A0, symBinAddr: 0x1000214E0, symSize: 0x13C }
  - { offset: 0x4ABF2, size: 0x8, addend: 0x0, symName: __ZN12dmGameObjectL15FinalCollectionEPNS_10CollectionE, symObjAddr: 0xD20, symBinAddr: 0x100019734, symSize: 0xE8 }
  - { offset: 0x4AC1D, size: 0x8, addend: 0x0, symName: __ZZN12dmGameObjectL15FinalCollectionEPNS_10CollectionEE10_scope1908, symObjAddr: 0x8C9F0, symBinAddr: 0x1003581D8, symSize: 0x0 }
  - { offset: 0x4ADBA, size: 0x8, addend: 0x0, symName: __ZN12dmGameObject16DeleteCollectionEPNS_10CollectionE, symObjAddr: 0xE08, symBinAddr: 0x10001981C, symSize: 0x168 }
  - { offset: 0x4ADC5, size: 0x8, addend: 0x0, symName: __ZN12dmGameObjectL16DispatchMessagesEPNS_10CollectionEPyj, symObjAddr: 0x6304, symBinAddr: 0x10001E9B4, symSize: 0x118 }
  - { offset: 0x4ADF0, size: 0x8, addend: 0x0, symName: __ZZN12dmGameObjectL16DispatchMessagesEPNS_10CollectionEPyjE10_scope2452, symObjAddr: 0x8C9F8, symBinAddr: 0x1003581E0, symSize: 0x0 }
  - { offset: 0x4B02B, size: 0x8, addend: 0x0, symName: __ZN12dmGameObject10InitializeEPNS_8RegisterEPN8dmScript7ContextE, symObjAddr: 0x500, symBinAddr: 0x100018F18, symSize: 0x28 }
  - { offset: 0x4B096, size: 0x8, addend: 0x0, symName: __ZN12dmGameObject11NewRegisterEv, symObjAddr: 0x528, symBinAddr: 0x100018F40, symSize: 0x5C }
  - { offset: 0x4B17A, size: 0x8, addend: 0x0, symName: __ZN12dmGameObject28SetCollectionDefaultCapacityEPNS_8RegisterEj, symObjAddr: 0xAF0, symBinAddr: 0x100019504, symSize: 0x3C }
  - { offset: 0x4B1B9, size: 0x8, addend: 0x0, symName: __ZN12dmGameObject28GetCollectionDefaultCapacityEPNS_8RegisterE, symObjAddr: 0xB2C, symBinAddr: 0x100019540, symSize: 0x1C }
  - { offset: 0x4B1C3, size: 0x8, addend: 0x0, symName: __ZN12dmGameObject28GetCollectionDefaultCapacityEPNS_8RegisterE, symObjAddr: 0xB2C, symBinAddr: 0x100019540, symSize: 0x1C }
  - { offset: 0x4B1F5, size: 0x8, addend: 0x0, symName: __ZN12dmGameObject28SetInputStackDefaultCapacityEPNS_8RegisterEj, symObjAddr: 0xB48, symBinAddr: 0x10001955C, symSize: 0x1C }
  - { offset: 0x4B1FF, size: 0x8, addend: 0x0, symName: __ZN12dmGameObject28SetInputStackDefaultCapacityEPNS_8RegisterEj, symObjAddr: 0xB48, symBinAddr: 0x10001955C, symSize: 0x1C }
  - { offset: 0x4B23D, size: 0x8, addend: 0x0, symName: __ZN12dmGameObject22AddDynamicResourceHashEPNS_16CollectionHandleEy, symObjAddr: 0xB64, symBinAddr: 0x100019578, symSize: 0xC0 }
  - { offset: 0x4B247, size: 0x8, addend: 0x0, symName: __ZN12dmGameObject22AddDynamicResourceHashEPNS_16CollectionHandleEy, symObjAddr: 0xB64, symBinAddr: 0x100019578, symSize: 0xC0 }
  - { offset: 0x4B33D, size: 0x8, addend: 0x0, symName: __ZN12dmGameObject25RemoveDynamicResourceHashEPNS_16CollectionHandleEy, symObjAddr: 0xC24, symBinAddr: 0x100019638, symSize: 0x80 }
  - { offset: 0x4B347, size: 0x8, addend: 0x0, symName: __ZN12dmGameObject25RemoveDynamicResourceHashEPNS_16CollectionHandleEy, symObjAddr: 0xC24, symBinAddr: 0x100019638, symSize: 0x80 }
  - { offset: 0x4B415, size: 0x8, addend: 0x0, symName: __ZN12dmGameObject17DeleteCollectionsEPNS_8RegisterE, symObjAddr: 0xCA4, symBinAddr: 0x1000196B8, symSize: 0x7C }
  - { offset: 0x4B5D8, size: 0x8, addend: 0x0, symName: __ZN12dmGameObjectL15FinalCollectionEPNS_10CollectionE, symObjAddr: 0xD20, symBinAddr: 0x100019734, symSize: 0xE8 }
  - { offset: 0x4B5E3, size: 0x8, addend: 0x0, symName: __ZN12dmGameObjectL13FinalInstanceEPNS_10CollectionEPNS_8InstanceE, symObjAddr: 0x95BC, symBinAddr: 0x1000219FC, symSize: 0xBC }
  - { offset: 0x4B689, size: 0x8, addend: 0x0, symName: __ZN12dmGameObjectL15FinalComponentsEPNS_10CollectionEPNS_8InstanceE, symObjAddr: 0x9678, symBinAddr: 0x100021AB8, symSize: 0xF4 }
  - { offset: 0x4B70B, size: 0x8, addend: 0x0, symName: __ZN12dmGameObject16DetachCollectionEPNS_10CollectionE, symObjAddr: 0x1718, symBinAddr: 0x10001A0CC, symSize: 0x11C }
  - { offset: 0x4B864, size: 0x8, addend: 0x0, symName: __ZN12dmGameObject13NewCollectionEPKcP15ResourceFactoryPNS_8RegisterEjPv, symObjAddr: 0x1834, symBinAddr: 0x10001A1E8, symSize: 0x1FC }
  - { offset: 0x4B86E, size: 0x8, addend: 0x0, symName: __ZN12dmGameObject19GetCollectionByHashEPNS_8RegisterEy, symObjAddr: 0xF70, symBinAddr: 0x100019984, symSize: 0x7C }
  - { offset: 0x4B9AC, size: 0x8, addend: 0x0, symName: __ZN12dmGameObject14DeleteRegisterEPNS_8RegisterE, symObjAddr: 0xFEC, symBinAddr: 0x100019A00, symSize: 0x54 }
  - { offset: 0x4BA7C, size: 0x8, addend: 0x0, symName: __ZN12dmGameObject16AttachCollectionEPNS_10CollectionEPKcP15ResourceFactoryPNS_8RegisterEPNS_16CollectionHandleE, symObjAddr: 0x10A0, symBinAddr: 0x100019A54, symSize: 0x1B8 }
  - { offset: 0x4BEBF, size: 0x8, addend: 0x0, symName: __ZN12dmGameObjectL24ResourceReloadedCallbackEPK22ResourceReloadedParams, symObjAddr: 0x1258, symBinAddr: 0x100019C0C, symSize: 0x4C0 }
  - { offset: 0x4C53A, size: 0x8, addend: 0x0, symName: __ZN12dmGameObject16DetachCollectionEPNS_10CollectionE, symObjAddr: 0x1718, symBinAddr: 0x10001A0CC, symSize: 0x11C }
  - { offset: 0x4C545, size: 0x8, addend: 0x0, symName: __ZN12dmGameObjectL13AllocInstanceEPNS_9PrototypeEPKc, symObjAddr: 0x1EC4, symBinAddr: 0x10001A84C, symSize: 0xF4 }
  - { offset: 0x4C717, size: 0x8, addend: 0x0, symName: __ZN12dmGameObjectL26InsertInstanceInLevelIndexEPNS_10CollectionEPNS_8InstanceE, symObjAddr: 0x1FB8, symBinAddr: 0x10001A940, symSize: 0xF8 }
  - { offset: 0x4C722, size: 0x8, addend: 0x0, symName: __ZN12dmGameObjectL15FinalComponentsEPNS_10CollectionEPNS_8InstanceE, symObjAddr: 0x9678, symBinAddr: 0x100021AB8, symSize: 0xF4 }
  - { offset: 0x4C81D, size: 0x8, addend: 0x0, symName: __ZN12dmGameObjectL23UpdateComponentFunctionEPNS_10CollectionEjNS_18UpdateFunctionTypeERNS_22ComponentsUpdateParamsE, symObjAddr: 0x976C, symBinAddr: 0x100021BAC, symSize: 0x140 }
  - { offset: 0x4C828, size: 0x8, addend: 0x0, symName: __ZN12dmGameObjectL13DoAddToUpdateEPNS_10CollectionEPNS_8InstanceE, symObjAddr: 0x9478, symBinAddr: 0x1000218B8, symSize: 0x144 }
  - { offset: 0x4C97D, size: 0x8, addend: 0x0, symName: __ZN12dmGameObjectL13FinalInstanceEPNS_10CollectionEPNS_8InstanceE, symObjAddr: 0x95BC, symBinAddr: 0x1000219FC, symSize: 0xBC }
  - { offset: 0x4CA61, size: 0x8, addend: 0x0, symName: __ZN12dmGameObject13NewCollectionEPKcP15ResourceFactoryPNS_8RegisterEjPv, symObjAddr: 0x1834, symBinAddr: 0x10001A1E8, symSize: 0x1FC }
  - { offset: 0x4CD4B, size: 0x8, addend: 0x0, symName: __ZN12dmGameObjectL17DeallocCollectionEPNS_10CollectionE, symObjAddr: 0x1A30, symBinAddr: 0x10001A3E4, symSize: 0xE4 }
  - { offset: 0x4CD55, size: 0x8, addend: 0x0, symName: __ZN12dmGameObject16DeleteCollectionEPNS_16CollectionHandleE, symObjAddr: 0x1B14, symBinAddr: 0x10001A4C8, symSize: 0x18 }
  - { offset: 0x4CD9D, size: 0x8, addend: 0x0, symName: __ZN12dmGameObject21GetComponentTypeIndexEPNS_16CollectionHandleEy, symObjAddr: 0x1B2C, symBinAddr: 0x10001A4E0, symSize: 0x38 }
  - { offset: 0x4CDED, size: 0x8, addend: 0x0, symName: __ZN12dmGameObject21GetComponentTypeIndexEPNS_16CollectionHandleEy, symObjAddr: 0x1B2C, symBinAddr: 0x10001A4E0, symSize: 0x38 }
  - { offset: 0x4CE40, size: 0x8, addend: 0x0, symName: __ZN12dmGameObject11GetRegisterEPNS_16CollectionHandleE, symObjAddr: 0x1B64, symBinAddr: 0x10001A518, symSize: 0x1C }
  - { offset: 0x4CE5E, size: 0x8, addend: 0x0, symName: __ZN12dmGameObject8GetWorldEPNS_16CollectionHandleEj, symObjAddr: 0x1B80, symBinAddr: 0x10001A534, symSize: 0x28 }
  - { offset: 0x4CE8E, size: 0x8, addend: 0x0, symName: __ZN12dmGameObject8GetWorldEPNS_16CollectionHandleEj, symObjAddr: 0x1B80, symBinAddr: 0x10001A534, symSize: 0x28 }
  - { offset: 0x4CEA9, size: 0x8, addend: 0x0, symName: __ZN12dmGameObject17FindComponentTypeEPNS_8RegisterEP12ResourceTypePj, symObjAddr: 0x1BD4, symBinAddr: 0x10001A55C, symSize: 0x40 }
  - { offset: 0x4CEF0, size: 0x8, addend: 0x0, symName: __ZN12dmGameObject20GetNumComponentTypesEPNS_8RegisterE, symObjAddr: 0x1C14, symBinAddr: 0x10001A59C, symSize: 0x8 }
  - { offset: 0x4CF20, size: 0x8, addend: 0x0, symName: __ZN12dmGameObject16GetComponentTypeEPNS_8RegisterEj, symObjAddr: 0x1C1C, symBinAddr: 0x10001A5A4, symSize: 0x10 }
  - { offset: 0x4CFAF, size: 0x8, addend: 0x0, symName: __ZN12dmGameObject21RegisterComponentTypeEPNS_8RegisterERKNS_13ComponentTypeE, symObjAddr: 0x1C2C, symBinAddr: 0x10001A5B4, symSize: 0x138 }
  - { offset: 0x4D052, size: 0x8, addend: 0x0, symName: __ZN12dmGameObject18SetUpdateOrderPrioEPNS_8RegisterEP12ResourceTypet, symObjAddr: 0x1D64, symBinAddr: 0x10001A6EC, symSize: 0x38 }
  - { offset: 0x4D0C3, size: 0x8, addend: 0x0, symName: __ZN12dmGameObject18SortComponentTypesEPNS_8RegisterE, symObjAddr: 0x1D9C, symBinAddr: 0x10001A724, symSize: 0x50 }
  - { offset: 0x4D1B3, size: 0x8, addend: 0x0, symName: __ZN12dmGameObject11NewInstanceEPNS_10CollectionEPNS_9PrototypeEPKc, symObjAddr: 0x1DEC, symBinAddr: 0x10001A774, symSize: 0xD8 }
  - { offset: 0x4D2F7, size: 0x8, addend: 0x0, symName: __ZN12dmGameObjectL13AllocInstanceEPNS_9PrototypeEPKc, symObjAddr: 0x1EC4, symBinAddr: 0x10001A84C, symSize: 0xF4 }
  - { offset: 0x4D301, size: 0x8, addend: 0x0, symName: __ZN12dmGameObjectL26InsertInstanceInLevelIndexEPNS_10CollectionEPNS_8InstanceE, symObjAddr: 0x1FB8, symBinAddr: 0x10001A940, symSize: 0xF8 }
  - { offset: 0x4D56C, size: 0x8, addend: 0x0, symName: __ZN12dmGameObject15UndoNewInstanceEPNS_10CollectionEPNS_8InstanceE, symObjAddr: 0x20B8, symBinAddr: 0x10001AA38, symSize: 0xE8 }
  - { offset: 0x4D6C0, size: 0x8, addend: 0x0, symName: __ZN12dmGameObjectL19EraseSwapLevelIndexEPNS_10CollectionEPNS_8InstanceE, symObjAddr: 0x21A0, symBinAddr: 0x10001AB20, symSize: 0x9C }
  - { offset: 0x4D6CA, size: 0x8, addend: 0x0, symName: __ZN12dmGameObjectL19EraseSwapLevelIndexEPNS_10CollectionEPNS_8InstanceE, symObjAddr: 0x21A0, symBinAddr: 0x10001AB20, symSize: 0x9C }
  - { offset: 0x4D7ED, size: 0x8, addend: 0x0, symName: __ZN12dmGameObjectL6UnlinkEPNS_10CollectionEPNS_8InstanceE, symObjAddr: 0x223C, symBinAddr: 0x10001ABBC, symSize: 0xC4 }
  - { offset: 0x4D7F7, size: 0x8, addend: 0x0, symName: __ZN12dmGameObjectL6UnlinkEPNS_10CollectionEPNS_8InstanceE, symObjAddr: 0x223C, symBinAddr: 0x10001ABBC, symSize: 0xC4 }
  - { offset: 0x4D958, size: 0x8, addend: 0x0, symName: __ZN12dmGameObject3NewEPNS_16CollectionHandleEPKc, symObjAddr: 0x25B8, symBinAddr: 0x10001AF10, symSize: 0xE8 }
  - { offset: 0x4DB07, size: 0x8, addend: 0x0, symName: __ZN12dmGameObject17ReleaseIdentifierEPNS_10CollectionEPNS_8InstanceE, symObjAddr: 0x26A0, symBinAddr: 0x10001AFF8, symSize: 0x44 }
  - { offset: 0x4DB3A, size: 0x8, addend: 0x0, symName: __ZN12dmGameObject20AcquireInstanceIndexEPNS_16CollectionHandleE, symObjAddr: 0x2770, symBinAddr: 0x10001B0C8, symSize: 0x6C }
  - { offset: 0x4DC1A, size: 0x8, addend: 0x0, symName: __ZN12dmGameObject20ReleaseInstanceIndexEjPNS_16CollectionHandleE, symObjAddr: 0x2838, symBinAddr: 0x10001B134, symSize: 0x5C }
  - { offset: 0x4DCA0, size: 0x8, addend: 0x0, symName: __ZN12dmGameObject19AssignInstanceIndexEjPNS_8InstanceE, symObjAddr: 0x2894, symBinAddr: 0x10001B190, symSize: 0xC }
  - { offset: 0x4DCAA, size: 0x8, addend: 0x0, symName: __ZN12dmGameObject19AssignInstanceIndexEjPNS_8InstanceE, symObjAddr: 0x2894, symBinAddr: 0x10001B190, symSize: 0xC }
  - { offset: 0x4DD17, size: 0x8, addend: 0x0, symName: __ZN12dmGameObject13SetIdentifierEPNS_16CollectionHandleEPNS_8InstanceEy, symObjAddr: 0x2A9C, symBinAddr: 0x10001B2D8, symSize: 0xC0 }
  - { offset: 0x4DE27, size: 0x8, addend: 0x0, symName: __ZN11dmHashTableIyPN12dmGameObject8InstanceEE5EraseEy, symObjAddr: 0x2B5C, symBinAddr: 0x10001B398, symSize: 0xB4 }
  - { offset: 0x4DFA7, size: 0x8, addend: 0x0, symName: __ZN12dmGameObject5SpawnEPNS_16CollectionHandleEPNS_9PrototypeEPKcyPNS_17PropertyContainerERKN10Vectormath3Aos6Point3ERKNS9_4QuatERKNS9_7Vector3EPPNS_8InstanceE, symObjAddr: 0x2C10, symBinAddr: 0x10001B44C, symSize: 0x4D4 }
  - { offset: 0x4E85D, size: 0x8, addend: 0x0, symName: __ZN12dmGameObject11SetPositionEPNS_8InstanceEN10Vectormath3Aos6Point3E, symObjAddr: 0x30E4, symBinAddr: 0x10001B920, symSize: 0x14 }
  - { offset: 0x4E87D, size: 0x8, addend: 0x0, symName: __ZN12dmGameObjectL12InitInstanceEPNS_10CollectionEPNS_8InstanceE, symObjAddr: 0x3118, symBinAddr: 0x10001B954, symSize: 0x36C }
  - { offset: 0x4F02A, size: 0x8, addend: 0x0, symName: __ZN12dmGameObject6DeleteEPNS_10CollectionEPNS_8InstanceEb, symObjAddr: 0x3484, symBinAddr: 0x10001BCC0, symSize: 0x140 }
  - { offset: 0x4F034, size: 0x8, addend: 0x0, symName: __ZN12dmGameObject6DeleteEPNS_10CollectionEPNS_8InstanceEb, symObjAddr: 0x3484, symBinAddr: 0x10001BCC0, symSize: 0x140 }
  - { offset: 0x4F1ED, size: 0x8, addend: 0x0, symName: __ZN12dmGameObject19SpawnFromCollectionEPNS_16CollectionHandleEPvPKcP11dmHashTableIyPNS_17PropertyContainerEERKN10Vectormath3Aos6Point3ERKNSB_4QuatERKNSB_7Vector3EPS5_IyyE, symObjAddr: 0x35C4, symBinAddr: 0x10001BE00, symSize: 0x1160 }
  - { offset: 0x4F1F8, size: 0x8, addend: 0x0, symName: __ZN12dmGameObject11SetPositionEPNS_8InstanceEN10Vectormath3Aos6Point3E, symObjAddr: 0x30E4, symBinAddr: 0x10001B920, symSize: 0x14 }
  - { offset: 0x4F21E, size: 0x8, addend: 0x0, symName: __ZN12dmGameObject11SetPositionEPNS_8InstanceEN10Vectormath3Aos6Point3E, symObjAddr: 0x30E4, symBinAddr: 0x10001B920, symSize: 0x14 }
  - { offset: 0x4F23A, size: 0x8, addend: 0x0, symName: __ZN12dmGameObject11SetPositionEPNS_8InstanceEN10Vectormath3Aos6Point3E, symObjAddr: 0x30E4, symBinAddr: 0x10001B920, symSize: 0x14 }
  - { offset: 0x4F255, size: 0x8, addend: 0x0, symName: __ZN12dmGameObject11SetPositionEPNS_8InstanceEN10Vectormath3Aos6Point3E, symObjAddr: 0x30E4, symBinAddr: 0x10001B920, symSize: 0x14 }
  - { offset: 0x4F2D4, size: 0x8, addend: 0x0, symName: __ZN12dmGameObject11SetRotationEPNS_8InstanceEN10Vectormath3Aos4QuatE, symObjAddr: 0x30F8, symBinAddr: 0x10001B934, symSize: 0xC }
  - { offset: 0x4F2FA, size: 0x8, addend: 0x0, symName: __ZN12dmGameObject11SetRotationEPNS_8InstanceEN10Vectormath3Aos4QuatE, symObjAddr: 0x30F8, symBinAddr: 0x10001B934, symSize: 0xC }
  - { offset: 0x4F316, size: 0x8, addend: 0x0, symName: __ZN12dmGameObject11SetRotationEPNS_8InstanceEN10Vectormath3Aos4QuatE, symObjAddr: 0x30F8, symBinAddr: 0x10001B934, symSize: 0xC }
  - { offset: 0x4F36A, size: 0x8, addend: 0x0, symName: __ZN12dmGameObject8SetScaleEPNS_8InstanceEN10Vectormath3Aos7Vector3E, symObjAddr: 0x3104, symBinAddr: 0x10001B940, symSize: 0x14 }
  - { offset: 0x4F390, size: 0x8, addend: 0x0, symName: __ZN12dmGameObject8SetScaleEPNS_8InstanceEN10Vectormath3Aos7Vector3E, symObjAddr: 0x3104, symBinAddr: 0x10001B940, symSize: 0x14 }
  - { offset: 0x4F3AC, size: 0x8, addend: 0x0, symName: __ZN12dmGameObject8SetScaleEPNS_8InstanceEN10Vectormath3Aos7Vector3E, symObjAddr: 0x3104, symBinAddr: 0x10001B940, symSize: 0x14 }
  - { offset: 0x4F873, size: 0x8, addend: 0x0, symName: __ZN12dmGameObject19SpawnFromCollectionEPNS_16CollectionHandleEPvPKcP11dmHashTableIyPNS_17PropertyContainerEERKN10Vectormath3Aos6Point3ERKNSB_4QuatERKNSB_7Vector3EPS5_IyyE, symObjAddr: 0x35C4, symBinAddr: 0x10001BE00, symSize: 0x1160 }
  - { offset: 0x514BD, size: 0x8, addend: 0x0, symName: __ZN12dmGameObject21GetAbsoluteIdentifierEPNS_8InstanceEPKc, symObjAddr: 0x4A80, symBinAddr: 0x10001D1C8, symSize: 0x90 }
  - { offset: 0x51595, size: 0x8, addend: 0x0, symName: __ZN12dmGameObject9SetParentEPNS_8InstanceES1_, symObjAddr: 0x607C, symBinAddr: 0x10001E72C, symSize: 0x280 }
  - { offset: 0x51823, size: 0x8, addend: 0x0, symName: __ZN12dmGameObject16DispatchMessagesEPNS_16CollectionHandleEPyj, symObjAddr: 0x62FC, symBinAddr: 0x10001E9AC, symSize: 0x8 }
  - { offset: 0x5186D, size: 0x8, addend: 0x0, symName: __ZN12dmGameObjectL18ReparentChildNodesEPNS_10CollectionEPNS_8InstanceE, symObjAddr: 0x90A0, symBinAddr: 0x1000214E0, symSize: 0x13C }
  - { offset: 0x51A1E, size: 0x8, addend: 0x0, symName: __ZN11dmHashTableIyyE11SetCapacityEjj, symObjAddr: 0x91DC, symBinAddr: 0x10002161C, symSize: 0x15C }
  - { offset: 0x51A28, size: 0x8, addend: 0x0, symName: __ZN12dmGameObjectL9MoveAllUpEPNS_10CollectionEPNS_8InstanceE, symObjAddr: 0x7AF0, symBinAddr: 0x1000200E0, symSize: 0xC4 }
  - { offset: 0x51B93, size: 0x8, addend: 0x0, symName: __ZN12dmGameObject9GetParentEPNS_8InstanceE, symObjAddr: 0x7BB4, symBinAddr: 0x1000201A4, symSize: 0x4C }
  - { offset: 0x51B9E, size: 0x8, addend: 0x0, symName: __ZN12dmGameObject23IsCollectionInitializedEPNS_10CollectionE, symObjAddr: 0x4798, symBinAddr: 0x10001CF60, symSize: 0x10 }
  - { offset: 0x51C5F, size: 0x8, addend: 0x0, symName: __ZN12dmGameObject4InitEPNS_16CollectionHandleE, symObjAddr: 0x47A8, symBinAddr: 0x10001CF70, symSize: 0x15C }
  - { offset: 0x51EB9, size: 0x8, addend: 0x0, symName: __ZN12dmGameObject5FinalEPNS_16CollectionHandleE, symObjAddr: 0x4904, symBinAddr: 0x10001D0CC, symSize: 0x8 }
  - { offset: 0x51EF6, size: 0x8, addend: 0x0, symName: __ZN12dmGameObject6DeleteEPNS_16CollectionHandleEPNS_8InstanceEb, symObjAddr: 0x490C, symBinAddr: 0x10001D0D4, symSize: 0x8 }
  - { offset: 0x51F74, size: 0x8, addend: 0x0, symName: __ZN12dmGameObject13SetIdentifierEPNS_10CollectionEPNS_8InstanceEPKc, symObjAddr: 0x498C, symBinAddr: 0x10001D0DC, symSize: 0xE4 }
  - { offset: 0x520DF, size: 0x8, addend: 0x0, symName: __ZN12dmGameObject13GetIdentifierEPNS_8InstanceE, symObjAddr: 0x4A78, symBinAddr: 0x10001D1C0, symSize: 0x8 }
  - { offset: 0x5210F, size: 0x8, addend: 0x0, symName: __ZN12dmGameObject25GetInstanceFromIdentifierEPNS_10CollectionEy, symObjAddr: 0x4B10, symBinAddr: 0x10001D258, symSize: 0x54 }
  - { offset: 0x5213F, size: 0x8, addend: 0x0, symName: __ZN12dmGameObject25GetInstanceFromIdentifierEPNS_10CollectionEy, symObjAddr: 0x4B10, symBinAddr: 0x10001D258, symSize: 0x54 }
  - { offset: 0x52165, size: 0x8, addend: 0x0, symName: __ZN12dmGameObject25GetInstanceFromIdentifierEPNS_10CollectionEy, symObjAddr: 0x4B10, symBinAddr: 0x10001D258, symSize: 0x54 }
  - { offset: 0x521B4, size: 0x8, addend: 0x0, symName: __ZN12dmGameObject25GetInstanceFromIdentifierEPNS_16CollectionHandleEy, symObjAddr: 0x4B64, symBinAddr: 0x10001D2AC, symSize: 0x58 }
  - { offset: 0x52278, size: 0x8, addend: 0x0, symName: __ZN12dmGameObject17GetComponentIndexEPNS_8InstanceEyPt, symObjAddr: 0x4BBC, symBinAddr: 0x10001D304, symSize: 0x58 }
  - { offset: 0x522C5, size: 0x8, addend: 0x0, symName: __ZN12dmGameObject14GetComponentIdEPNS_8InstanceEtPy, symObjAddr: 0x4C14, symBinAddr: 0x10001D35C, symSize: 0x40 }
  - { offset: 0x522CF, size: 0x8, addend: 0x0, symName: __ZN12dmGameObject14GetComponentIdEPNS_8InstanceEtPy, symObjAddr: 0x4C14, symBinAddr: 0x10001D35C, symSize: 0x40 }
  - { offset: 0x52321, size: 0x8, addend: 0x0, symName: __ZN12dmGameObject12GetComponentEPNS_8InstanceEyPjPPvS4_, symObjAddr: 0x4C54, symBinAddr: 0x10001D39C, symSize: 0x114 }
  - { offset: 0x5237F, size: 0x8, addend: 0x0, symName: __ZN12dmGameObject12GetComponentEPNS_8InstanceEyPjPPvS4_, symObjAddr: 0x4C54, symBinAddr: 0x10001D39C, symSize: 0x114 }
  - { offset: 0x52517, size: 0x8, addend: 0x0, symName: __ZN12dmGameObject13GetCollectionEPNS_8InstanceE, symObjAddr: 0x4D68, symBinAddr: 0x10001D4B0, symSize: 0xC }
  - { offset: 0x52522, size: 0x8, addend: 0x0, symName: __ZN12dmGameObject13GetCollectionEPNS_8InstanceE, symObjAddr: 0x4D68, symBinAddr: 0x10001D4B0, symSize: 0xC }
  - { offset: 0x5253F, size: 0x8, addend: 0x0, symName: __ZN12dmGameObject7SetBoneEPNS_8InstanceEb, symObjAddr: 0x4D74, symBinAddr: 0x10001D4BC, symSize: 0x24 }
  - { offset: 0x5257C, size: 0x8, addend: 0x0, symName: __ZN12dmGameObject6IsBoneEPNS_8InstanceE, symObjAddr: 0x4D98, symBinAddr: 0x10001D4E0, symSize: 0xC }
  - { offset: 0x525AC, size: 0x8, addend: 0x0, symName: __ZN12dmGameObject17SetBoneTransformsEPNS_8InstanceERN11dmTransform9TransformEPS3_j, symObjAddr: 0x4DA4, symBinAddr: 0x10001D4EC, symSize: 0x1C }
  - { offset: 0x5262D, size: 0x8, addend: 0x0, symName: __ZN12dmGameObjectL19DoSetBoneTransformsEPNS_16CollectionHandleEPN11dmTransform9TransformEtS4_j, symObjAddr: 0x4DC0, symBinAddr: 0x10001D508, symSize: 0x204 }
  - { offset: 0x529D3, size: 0x8, addend: 0x0, symName: __ZN12dmGameObject11DeleteBonesEPNS_8InstanceE, symObjAddr: 0x4FC4, symBinAddr: 0x10001D70C, symSize: 0x10 }
  - { offset: 0x529DD, size: 0x8, addend: 0x0, symName: __ZN12dmGameObject11DeleteBonesEPNS_8InstanceE, symObjAddr: 0x4FC4, symBinAddr: 0x10001D70C, symSize: 0x10 }
  - { offset: 0x52A15, size: 0x8, addend: 0x0, symName: __ZN12dmGameObjectL11DeleteBonesEPNS_10CollectionEt, symObjAddr: 0x4FD4, symBinAddr: 0x10001D71C, symSize: 0x94 }
  - { offset: 0x52AE3, size: 0x8, addend: 0x0, symName: __ZN12dmGameObject24DispatchMessagesFunctionEPN9dmMessage7MessageEPv, symObjAddr: 0x5068, symBinAddr: 0x10001D7B0, symSize: 0xAA4 }
  - { offset: 0x52B7F, size: 0x8, addend: 0x0, symName: __ZN12dmGameObject17AcquireInputFocusEPNS_10CollectionEPNS_8InstanceE, symObjAddr: 0x5B0C, symBinAddr: 0x10001E254, symSize: 0xFC }
  - { offset: 0x52CCB, size: 0x8, addend: 0x0, symName: __ZN12dmGameObjectL11MoveAllDownEPNS_10CollectionEPNS_8InstanceE, symObjAddr: 0x7A28, symBinAddr: 0x100020018, symSize: 0xC8 }
  - { offset: 0x52E36, size: 0x8, addend: 0x0, symName: __ZN12dmGameObjectL9MoveAllUpEPNS_10CollectionEPNS_8InstanceE, symObjAddr: 0x7AF0, symBinAddr: 0x1000200E0, symSize: 0xC4 }
  - { offset: 0x52E41, size: 0x8, addend: 0x0, symName: __ZN12dmGameObject16DispatchMessagesEPNS_16CollectionHandleEPyj, symObjAddr: 0x62FC, symBinAddr: 0x10001E9AC, symSize: 0x8 }
  - { offset: 0x52F3C, size: 0x8, addend: 0x0, symName: __ZN12dmGameObject16UpdateTransformsEPNS_16CollectionHandleE, symObjAddr: 0x6894, symBinAddr: 0x10001EF44, symSize: 0x8 }
  - { offset: 0x53082, size: 0x8, addend: 0x0, symName: __ZN12dmGameObject6UpdateEPNS_16CollectionHandleEPKNS_13UpdateContextE, symObjAddr: 0x6B98, symBinAddr: 0x10001F248, symSize: 0x274 }
  - { offset: 0x5336C, size: 0x8, addend: 0x0, symName: __ZN12dmGameObject6RenderEPNS_16CollectionHandleE, symObjAddr: 0x6E0C, symBinAddr: 0x10001F4BC, symSize: 0x110 }
  - { offset: 0x53377, size: 0x8, addend: 0x0, symName: __ZN12dmGameObjectL23UpdateComponentFunctionEPNS_10CollectionEjNS_18UpdateFunctionTypeERNS_22ComponentsUpdateParamsE, symObjAddr: 0x976C, symBinAddr: 0x100021BAC, symSize: 0x140 }
  - { offset: 0x536AC, size: 0x8, addend: 0x0, symName: __ZN12dmGameObject10PostUpdateEPNS_16CollectionHandleE, symObjAddr: 0x6F1C, symBinAddr: 0x10001F5CC, symSize: 0x2F8 }
  - { offset: 0x53B2A, size: 0x8, addend: 0x0, symName: __ZN12dmGameObject13DispatchInputEPNS_16CollectionHandleEPNS_11InputActionEj, symObjAddr: 0x74C4, symBinAddr: 0x10001FB74, symSize: 0x8 }
  - { offset: 0x53B92, size: 0x8, addend: 0x0, symName: __ZN12dmGameObject10GetFactoryEPNS_16CollectionHandleE, symObjAddr: 0x7570, symBinAddr: 0x10001FB7C, symSize: 0x1C }
  - { offset: 0x53BC2, size: 0x8, addend: 0x0, symName: __ZN12dmGameObject10GetFactoryEPNS_8InstanceE, symObjAddr: 0x758C, symBinAddr: 0x10001FB98, symSize: 0xC }
  - { offset: 0x53BF2, size: 0x8, addend: 0x0, symName: __ZN12dmGameObject16GetMessageSocketEPNS_16CollectionHandleE, symObjAddr: 0x7598, symBinAddr: 0x10001FBA4, symSize: 0x1C }
  - { offset: 0x53C22, size: 0x8, addend: 0x0, symName: __ZN12dmGameObject11GetPositionEPNS_8InstanceE, symObjAddr: 0x75D0, symBinAddr: 0x10001FBC0, symSize: 0x14 }
  - { offset: 0x53C52, size: 0x8, addend: 0x0, symName: __ZN12dmGameObject11GetPositionEPNS_8InstanceE, symObjAddr: 0x75D0, symBinAddr: 0x10001FBC0, symSize: 0x14 }
  - { offset: 0x53C6E, size: 0x8, addend: 0x0, symName: __ZN12dmGameObject11GetPositionEPNS_8InstanceE, symObjAddr: 0x75D0, symBinAddr: 0x10001FBC0, symSize: 0x14 }
  - { offset: 0x53C8B, size: 0x8, addend: 0x0, symName: __ZN12dmGameObject11GetPositionEPNS_8InstanceE, symObjAddr: 0x75D0, symBinAddr: 0x10001FBC0, symSize: 0x14 }
  - { offset: 0x53CE3, size: 0x8, addend: 0x0, symName: __ZN12dmGameObject11GetRotationEPNS_8InstanceE, symObjAddr: 0x75E4, symBinAddr: 0x10001FBD4, symSize: 0xC }
  - { offset: 0x53D13, size: 0x8, addend: 0x0, symName: __ZN12dmGameObject11GetRotationEPNS_8InstanceE, symObjAddr: 0x75E4, symBinAddr: 0x10001FBD4, symSize: 0xC }
  - { offset: 0x53D2F, size: 0x8, addend: 0x0, symName: __ZN12dmGameObject11GetRotationEPNS_8InstanceE, symObjAddr: 0x75E4, symBinAddr: 0x10001FBD4, symSize: 0xC }
  - { offset: 0x53D51, size: 0x8, addend: 0x0, symName: __ZN12dmGameObject11GetRotationEPNS_8InstanceE, symObjAddr: 0x75E4, symBinAddr: 0x10001FBD4, symSize: 0xC }
  - { offset: 0x53D73, size: 0x8, addend: 0x0, symName: __ZN12dmGameObject8SetScaleEPNS_8InstanceEf, symObjAddr: 0x75F0, symBinAddr: 0x10001FBE0, symSize: 0xC }
  - { offset: 0x53DAE, size: 0x8, addend: 0x0, symName: __ZN12dmGameObject8SetScaleEPNS_8InstanceEf, symObjAddr: 0x75F0, symBinAddr: 0x10001FBE0, symSize: 0xC }
  - { offset: 0x53DD2, size: 0x8, addend: 0x0, symName: __ZN12dmGameObject8SetScaleEPNS_8InstanceEf, symObjAddr: 0x75F0, symBinAddr: 0x10001FBE0, symSize: 0xC }
  - { offset: 0x53DEE, size: 0x8, addend: 0x0, symName: __ZN12dmGameObject10SetScaleXYEPNS_8InstanceEff, symObjAddr: 0x75FC, symBinAddr: 0x10001FBEC, symSize: 0x8 }
  - { offset: 0x53E38, size: 0x8, addend: 0x0, symName: __ZN12dmGameObject10SetScaleXYEPNS_8InstanceEff, symObjAddr: 0x75FC, symBinAddr: 0x10001FBEC, symSize: 0x8 }
  - { offset: 0x53E64, size: 0x8, addend: 0x0, symName: __ZN12dmGameObject10SetScaleXYEPNS_8InstanceEff, symObjAddr: 0x75FC, symBinAddr: 0x10001FBEC, symSize: 0x8 }
  - { offset: 0x53E89, size: 0x8, addend: 0x0, symName: __ZN12dmGameObject15GetUniformScaleEPNS_8InstanceE, symObjAddr: 0x7604, symBinAddr: 0x10001FBF4, symSize: 0x1C }
  - { offset: 0x53EB9, size: 0x8, addend: 0x0, symName: __ZN12dmGameObject15GetUniformScaleEPNS_8InstanceE, symObjAddr: 0x7604, symBinAddr: 0x10001FBF4, symSize: 0x1C }
  - { offset: 0x53ED5, size: 0x8, addend: 0x0, symName: __ZN12dmGameObject15GetUniformScaleEPNS_8InstanceE, symObjAddr: 0x7604, symBinAddr: 0x10001FBF4, symSize: 0x1C }
  - { offset: 0x53EFB, size: 0x8, addend: 0x0, symName: __ZN12dmGameObject15GetUniformScaleEPNS_8InstanceE, symObjAddr: 0x7604, symBinAddr: 0x10001FBF4, symSize: 0x1C }
  - { offset: 0x53F39, size: 0x8, addend: 0x0, symName: __ZN12dmGameObject8GetScaleEPNS_8InstanceE, symObjAddr: 0x7620, symBinAddr: 0x10001FC10, symSize: 0x14 }
  - { offset: 0x53F69, size: 0x8, addend: 0x0, symName: __ZN12dmGameObject8GetScaleEPNS_8InstanceE, symObjAddr: 0x7620, symBinAddr: 0x10001FC10, symSize: 0x14 }
  - { offset: 0x53F85, size: 0x8, addend: 0x0, symName: __ZN12dmGameObject8GetScaleEPNS_8InstanceE, symObjAddr: 0x7620, symBinAddr: 0x10001FC10, symSize: 0x14 }
  - { offset: 0x53FA9, size: 0x8, addend: 0x0, symName: __ZN12dmGameObject8GetScaleEPNS_8InstanceE, symObjAddr: 0x7620, symBinAddr: 0x10001FC10, symSize: 0x14 }
  - { offset: 0x53FCD, size: 0x8, addend: 0x0, symName: __ZN12dmGameObject16GetWorldPositionEPNS_8InstanceE, symObjAddr: 0x7634, symBinAddr: 0x10001FC24, symSize: 0x4C }
  - { offset: 0x540F2, size: 0x8, addend: 0x0, symName: __ZN12dmGameObject16GetWorldRotationEPNS_8InstanceE, symObjAddr: 0x7680, symBinAddr: 0x10001FC70, symSize: 0x1C4 }
  - { offset: 0x540FC, size: 0x8, addend: 0x0, symName: __ZN12dmGameObject16GetWorldRotationEPNS_8InstanceE, symObjAddr: 0x7680, symBinAddr: 0x10001FC70, symSize: 0x1C4 }
  - { offset: 0x54410, size: 0x8, addend: 0x0, symName: __ZN12dmGameObject20GetWorldUniformScaleEPNS_8InstanceE, symObjAddr: 0x7844, symBinAddr: 0x10001FE34, symSize: 0xA0 }
  - { offset: 0x54438, size: 0x8, addend: 0x0, symName: __ZN12dmGameObject20GetWorldUniformScaleEPNS_8InstanceE, symObjAddr: 0x7844, symBinAddr: 0x10001FE34, symSize: 0xA0 }
  - { offset: 0x54707, size: 0x8, addend: 0x0, symName: __ZN12dmGameObject13GetWorldScaleEPNS_8InstanceE, symObjAddr: 0x78E4, symBinAddr: 0x10001FED4, symSize: 0x98 }
  - { offset: 0x54711, size: 0x8, addend: 0x0, symName: __ZN12dmGameObject13GetWorldScaleEPNS_8InstanceE, symObjAddr: 0x78E4, symBinAddr: 0x10001FED4, symSize: 0x98 }
  - { offset: 0x549C6, size: 0x8, addend: 0x0, symName: __ZN12dmGameObject17GetWorldTransformEPNS_8InstanceE, symObjAddr: 0x797C, symBinAddr: 0x10001FF6C, symSize: 0x70 }
  - { offset: 0x549D0, size: 0x8, addend: 0x0, symName: __ZN12dmGameObject17GetWorldTransformEPNS_8InstanceE, symObjAddr: 0x797C, symBinAddr: 0x10001FF6C, symSize: 0x70 }
  - { offset: 0x54B24, size: 0x8, addend: 0x0, symName: __ZN12dmGameObject14GetWorldMatrixEPNS_8InstanceE, symObjAddr: 0x79EC, symBinAddr: 0x10001FFDC, symSize: 0x3C }
  - { offset: 0x54B2E, size: 0x8, addend: 0x0, symName: __ZN12dmGameObject14GetWorldMatrixEPNS_8InstanceE, symObjAddr: 0x79EC, symBinAddr: 0x10001FFDC, symSize: 0x3C }
  - { offset: 0x54B96, size: 0x8, addend: 0x0, symName: __ZN12dmGameObjectL11MoveAllDownEPNS_10CollectionEPNS_8InstanceE, symObjAddr: 0x7A28, symBinAddr: 0x100020018, symSize: 0xC8 }
  - { offset: 0x54BEC, size: 0x8, addend: 0x0, symName: __ZN12dmGameObject9GetParentEPNS_8InstanceE, symObjAddr: 0x7BB4, symBinAddr: 0x1000201A4, symSize: 0x4C }
  - { offset: 0x54C55, size: 0x8, addend: 0x0, symName: __ZN12dmGameObject11GetPropertyEPNS_8InstanceEyyNS_15PropertyOptionsERNS_12PropertyDescE, symObjAddr: 0x7CE8, symBinAddr: 0x1000201F0, symSize: 0x788 }
  - { offset: 0x55577, size: 0x8, addend: 0x0, symName: __ZN12dmGameObjectL21UpdateEulerToRotationEPNS_8InstanceE, symObjAddr: 0x8470, symBinAddr: 0x100020978, symSize: 0x50 }
  - { offset: 0x5566C, size: 0x8, addend: 0x0, symName: __ZN12dmGameObjectL21UpdateRotationToEulerEPNS_8InstanceE, symObjAddr: 0x84C0, symBinAddr: 0x1000209C8, symSize: 0x4C }
  - { offset: 0x5575F, size: 0x8, addend: 0x0, symName: __ZN12dmGameObject11SetPropertyEPNS_8InstanceEyyNS_15PropertyOptionsERKNS_11PropertyVarE, symObjAddr: 0x850C, symBinAddr: 0x100020A14, symSize: 0x514 }
  - { offset: 0x55CAF, size: 0x8, addend: 0x0, symName: __ZN11dmTransform11ToTransformERKN10Vectormath3Aos7Matrix4E, symObjAddr: 0x5CA0, symBinAddr: 0x10001E350, symSize: 0x1B4 }
  - { offset: 0x55D0F, size: 0x8, addend: 0x0, symName: __ZN11dmTransform11ToTransformERKN10Vectormath3Aos7Matrix4E, symObjAddr: 0x5CA0, symBinAddr: 0x10001E350, symSize: 0x1B4 }
  - { offset: 0x55D2B, size: 0x8, addend: 0x0, symName: __ZN11dmTransform11ToTransformERKN10Vectormath3Aos7Matrix4E, symObjAddr: 0x5CA0, symBinAddr: 0x10001E350, symSize: 0x1B4 }
  - { offset: 0x55D47, size: 0x8, addend: 0x0, symName: __ZN11dmTransform11ToTransformERKN10Vectormath3Aos7Matrix4E, symObjAddr: 0x5CA0, symBinAddr: 0x10001E350, symSize: 0x1B4 }
  - { offset: 0x56160, size: 0x8, addend: 0x0, symName: __ZN7dmVMath11EulerToQuatEN10Vectormath3Aos7Vector3E, symObjAddr: 0x98AC, symBinAddr: 0x100021CEC, symSize: 0x2E8 }
  - { offset: 0x56225, size: 0x8, addend: 0x0, symName: __ZN7dmVMath11EulerToQuatEN10Vectormath3Aos7Vector3E, symObjAddr: 0x98AC, symBinAddr: 0x100021CEC, symSize: 0x2E8 }
  - { offset: 0x564F0, size: 0x8, addend: 0x0, symName: __ZN7dmVMath11QuatToEulerEffff, symObjAddr: 0x9B94, symBinAddr: 0x100021FD4, symSize: 0x1BC }
  - { offset: 0x5685B, size: 0x8, addend: 0x0, symName: __ZN10Vectormath3Aos7inverseERKNS0_7Matrix4E, symObjAddr: 0x5E54, symBinAddr: 0x10001E504, symSize: 0x228 }
  - { offset: 0x580D2, size: 0x8, addend: 0x0, symName: __ZNSt3__111__introsortINS_17_ClassicAlgPolicyERN12dmGameObject21ComponentTypeSortPredEPtLb0EEEvT1_S6_T0_NS_15iterator_traitsIS6_E15difference_typeEb, symObjAddr: 0x9D50, symBinAddr: 0x100022190, symSize: 0xA04 }
  - { offset: 0x59BFF, size: 0x8, addend: 0x0, symName: __ZNSt3__111__sift_downB8nn200100INS_17_ClassicAlgPolicyERN12dmGameObject21ComponentTypeSortPredEPtEEvT1_OT0_NS_15iterator_traitsIS6_E15difference_typeES6_, symObjAddr: 0xB058, symBinAddr: 0x100023498, symSize: 0x114 }
  - { offset: 0x59CE8, size: 0x8, addend: 0x0, symName: __ZNSt3__127__insertion_sort_incompleteB8nn200100INS_17_ClassicAlgPolicyERN12dmGameObject21ComponentTypeSortPredEPtEEbT1_S6_T0_, symObjAddr: 0xA960, symBinAddr: 0x100022DA0, symSize: 0x3F0 }
  - { offset: 0x5ACA1, size: 0x8, addend: 0x0, symName: __ZNSt3__17__sort5B8nn200100INS_17_ClassicAlgPolicyERN12dmGameObject21ComponentTypeSortPredEPtLi0EEEvT1_S6_S6_S6_S6_T0_, symObjAddr: 0xA754, symBinAddr: 0x100022B94, symSize: 0x20C }
  - { offset: 0x5AD0C, size: 0x8, addend: 0x0, symName: __ZNSt3__17__sort5B8nn200100INS_17_ClassicAlgPolicyERN12dmGameObject21ComponentTypeSortPredEPtLi0EEEvT1_S6_S6_S6_S6_T0_, symObjAddr: 0xA754, symBinAddr: 0x100022B94, symSize: 0x20C }
  - { offset: 0x5AD6C, size: 0x8, addend: 0x0, symName: __ZNSt3__17__sort5B8nn200100INS_17_ClassicAlgPolicyERN12dmGameObject21ComponentTypeSortPredEPtLi0EEEvT1_S6_S6_S6_S6_T0_, symObjAddr: 0xA754, symBinAddr: 0x100022B94, symSize: 0x20C }
  - { offset: 0x5B3D9, size: 0x8, addend: 0x0, symName: __ZNSt3__119__partial_sort_implB8nn200100INS_17_ClassicAlgPolicyERN12dmGameObject21ComponentTypeSortPredEPtS5_EET1_S6_S6_T2_OT0_, symObjAddr: 0xAD50, symBinAddr: 0x100023190, symSize: 0x308 }
  - { offset: 0x5C923, size: 0x8, addend: 0x0, symName: __Z15rmtp_GameObjectv.cold.1, symObjAddr: 0xB16C, symBinAddr: 0x10024D338, symSize: 0x50 }
  - { offset: 0x5C98F, size: 0x8, addend: 0x0, symName: __ZN12dmGameObject9PrototypeD1Ev, symObjAddr: 0x90, symBinAddr: 0x100018DD8, symSize: 0x3C }
  - { offset: 0x5CA4F, size: 0x8, addend: 0x0, symName: __ZN12dmGameObject11InputActionC1Ev, symObjAddr: 0x130, symBinAddr: 0x100018E14, symSize: 0x28 }
  - { offset: 0x5CAB8, size: 0x8, addend: 0x0, symName: __ZN12dmGameObject15PropertyOptionsC1Ev, symObjAddr: 0x16C, symBinAddr: 0x100018E3C, symSize: 0x14 }
  - { offset: 0x5CAE5, size: 0x8, addend: 0x0, symName: __ZN12dmGameObject15PropertyOptionsC1Ev, symObjAddr: 0x16C, symBinAddr: 0x100018E3C, symSize: 0x14 }
  - { offset: 0x5CB2A, size: 0x8, addend: 0x0, symName: __ZN12dmGameObject11PropertyVarC1Ef, symObjAddr: 0x1B8, symBinAddr: 0x100018E50, symSize: 0x10 }
  - { offset: 0x5CB55, size: 0x8, addend: 0x0, symName: __ZN12dmGameObject11PropertyVarC1Ef, symObjAddr: 0x1B8, symBinAddr: 0x100018E50, symSize: 0x10 }
  - { offset: 0x5CB9E, size: 0x8, addend: 0x0, symName: __ZN12dmGameObject11PropertyVarC1Ey, symObjAddr: 0x1F0, symBinAddr: 0x100018E60, symSize: 0x10 }
  - { offset: 0x5CC69, size: 0x8, addend: 0x0, symName: __ZN12dmGameObject11PropertyVarC1EN10Vectormath3Aos7Vector3E, symObjAddr: 0x254, symBinAddr: 0x100018E70, symSize: 0x24 }
  - { offset: 0x5CDA5, size: 0x8, addend: 0x0, symName: __ZN12dmGameObject11PropertyVarC1EN10Vectormath3Aos7Vector4E, symObjAddr: 0x2A4, symBinAddr: 0x100018E94, symSize: 0x2C }
  - { offset: 0x5CE9D, size: 0x8, addend: 0x0, symName: __ZN12dmGameObject11PropertyVarC1Eb, symObjAddr: 0x338, symBinAddr: 0x100018EC0, symSize: 0x10 }
  - { offset: 0x5CF39, size: 0x8, addend: 0x0, symName: __ZN12dmGameObject11PropertyVarC1EN10Vectormath3Aos7Matrix4E, symObjAddr: 0x36C, symBinAddr: 0x100018ED0, symSize: 0x24 }
  - { offset: 0x5D025, size: 0x8, addend: 0x0, symName: __ZN12dmGameObject13ComponentTypeC1Ev, symObjAddr: 0x3E4, symBinAddr: 0x100018EF4, symSize: 0x24 }
  - { offset: 0x5D047, size: 0x8, addend: 0x0, symName: __ZN12dmGameObject13ComponentTypeC1Ev, symObjAddr: 0x3E4, symBinAddr: 0x100018EF4, symSize: 0x24 }
  - { offset: 0x5D4E2, size: 0x8, addend: 0x0, symName: __ZN12dmGameObject10CollectionC2EP15ResourceFactoryPNS_8RegisterEjj, symObjAddr: 0x584, symBinAddr: 0x100018F9C, symSize: 0x40C }
  - { offset: 0x5D94E, size: 0x8, addend: 0x0, symName: __ZN11dmHashTableIyPN12dmGameObject8InstanceEE11SetCapacityEjj, symObjAddr: 0x990, symBinAddr: 0x1000193A8, symSize: 0x15C }
  - { offset: 0x5D9A1, size: 0x8, addend: 0x0, symName: __ZN11dmHashTableIyPN12dmGameObject8InstanceEE11SetCapacityEjj, symObjAddr: 0x990, symBinAddr: 0x1000193A8, symSize: 0x15C }
  - { offset: 0x5DBB3, size: 0x8, addend: 0x0, symName: __ZN12dmGameObject10CollectionC2EP15ResourceFactoryPNS_8RegisterEjj.cold.6, symObjAddr: 0xB31C, symBinAddr: 0x10024D388, symSize: 0x24 }
  - { offset: 0x5DD16, size: 0x8, addend: 0x0, symName: __ZN11dmHashTableIyPN12dmGameObject8InstanceEE3PutEyRKS2_, symObjAddr: 0x2960, symBinAddr: 0x10001B19C, symSize: 0x13C }
  - { offset: 0x5DE66, size: 0x8, addend: 0x0, symName: __ZN12dmGameObject13SetIdentifierEPNS_16CollectionHandleEPNS_8InstanceEy, symObjAddr: 0x2A9C, symBinAddr: 0x10001B2D8, symSize: 0xC0 }
  - { offset: 0x5DE99, size: 0x8, addend: 0x0, symName: __ZN12dmGameObject28SetCollectionDefaultCapacityEPNS_8RegisterEj.cold.1, symObjAddr: 0xB42C, symBinAddr: 0x10024D3AC, symSize: 0x24 }
  - { offset: 0x5DEB1, size: 0x8, addend: 0x0, symName: __ZN12dmGameObject28GetCollectionDefaultCapacityEPNS_8RegisterE.cold.1, symObjAddr: 0xB450, symBinAddr: 0x10024D3D0, symSize: 0x28 }
  - { offset: 0x5DEC9, size: 0x8, addend: 0x0, symName: __ZN12dmGameObject28SetInputStackDefaultCapacityEPNS_8RegisterEj.cold.1, symObjAddr: 0xB478, symBinAddr: 0x10024D3F8, symSize: 0x28 }
  - { offset: 0x5E1FE, size: 0x8, addend: 0x0, symName: __ZN12dmGameObjectL15FinalCollectionEPNS_10CollectionE.cold.1, symObjAddr: 0xB534, symBinAddr: 0x10024D420, symSize: 0x28 }
  - { offset: 0x5E25F, size: 0x8, addend: 0x0, symName: __ZN12dmGameObject16DeleteCollectionEPNS_10CollectionE.cold.1, symObjAddr: 0xB580, symBinAddr: 0x10024D448, symSize: 0x28 }
  - { offset: 0x5E581, size: 0x8, addend: 0x0, symName: __ZN12dmGameObjectL24ResourceReloadedCallbackEPK22ResourceReloadedParams.cold.6, symObjAddr: 0xB6F8, symBinAddr: 0x10024D4C0, symSize: 0x28 }
  - { offset: 0x5E60F, size: 0x8, addend: 0x0, symName: __ZN12dmGameObjectL24ResourceReloadedCallbackEPK22ResourceReloadedParams.cold.4, symObjAddr: 0xB6A8, symBinAddr: 0x10024D470, symSize: 0x28 }
  - { offset: 0x5E63D, size: 0x8, addend: 0x0, symName: __ZN12dmGameObjectL24ResourceReloadedCallbackEPK22ResourceReloadedParams.cold.5, symObjAddr: 0xB6D0, symBinAddr: 0x10024D498, symSize: 0x28 }
  - { offset: 0x5E70E, size: 0x8, addend: 0x0, symName: __ZN12dmGameObject13NewCollectionEPKcP15ResourceFactoryPNS_8RegisterEjPv.cold.1, symObjAddr: 0xB78C, symBinAddr: 0x10024D4E8, symSize: 0x28 }
  - { offset: 0x5E76D, size: 0x8, addend: 0x0, symName: __ZN12dmGameObject10CollectionD2Ev, symObjAddr: 0x8AE8, symBinAddr: 0x100020F28, symSize: 0xFC }
  - { offset: 0x5EAF1, size: 0x8, addend: 0x0, symName: __ZN12dmGameObject11NewInstanceEPNS_10CollectionEPNS_9PrototypeEPKc.cold.3, symObjAddr: 0xB800, symBinAddr: 0x10024D510, symSize: 0x28 }
  - { offset: 0x5EB7A, size: 0x8, addend: 0x0, symName: __ZN12dmGameObjectL13AllocInstanceEPNS_9PrototypeEPKc.cold.1, symObjAddr: 0xB850, symBinAddr: 0x10024D538, symSize: 0x4C }
  - { offset: 0x5EC29, size: 0x8, addend: 0x0, symName: __ZN12dmGameObjectL26InsertInstanceInLevelIndexEPNS_10CollectionEPNS_8InstanceE.cold.4, symObjAddr: 0xB908, symBinAddr: 0x10024D584, symSize: 0x28 }
  - { offset: 0x5ED1F, size: 0x8, addend: 0x0, symName: __ZN12dmGameObject15UndoNewInstanceEPNS_10CollectionEPNS_8InstanceE.cold.2, symObjAddr: 0xB954, symBinAddr: 0x10024D5AC, symSize: 0x28 }
  - { offset: 0x5ED5A, size: 0x8, addend: 0x0, symName: __ZN12dmGameObjectL19EraseSwapLevelIndexEPNS_10CollectionEPNS_8InstanceE.cold.5, symObjAddr: 0xBA60, symBinAddr: 0x10024D624, symSize: 0x28 }
  - { offset: 0x5ED72, size: 0x8, addend: 0x0, symName: __ZN12dmGameObjectL19EraseSwapLevelIndexEPNS_10CollectionEPNS_8InstanceE.cold.1, symObjAddr: 0xB9C4, symBinAddr: 0x10024D5D4, symSize: 0x28 }
  - { offset: 0x5EDB4, size: 0x8, addend: 0x0, symName: __ZN12dmGameObjectL19EraseSwapLevelIndexEPNS_10CollectionEPNS_8InstanceE.cold.3, symObjAddr: 0xBA10, symBinAddr: 0x10024D5FC, symSize: 0x28 }
  - { offset: 0x5EDE1, size: 0x8, addend: 0x0, symName: __ZN12dmGameObjectL6UnlinkEPNS_10CollectionEPNS_8InstanceE.cold.3, symObjAddr: 0xBAD0, symBinAddr: 0x10024D64C, symSize: 0x28 }
  - { offset: 0x5EE77, size: 0x8, addend: 0x0, symName: __ZN12dmGameObject16CreateComponentsEPNS_10CollectionEPNS_8InstanceE.cold.4, symObjAddr: 0xBB70, symBinAddr: 0x10024D6EC, symSize: 0x28 }
  - { offset: 0x5EE8F, size: 0x8, addend: 0x0, symName: __ZN12dmGameObject16CreateComponentsEPNS_10CollectionEPNS_8InstanceE.cold.3, symObjAddr: 0xBB48, symBinAddr: 0x10024D6C4, symSize: 0x28 }
  - { offset: 0x5EEA7, size: 0x8, addend: 0x0, symName: __ZN12dmGameObject16CreateComponentsEPNS_10CollectionEPNS_8InstanceE.cold.2, symObjAddr: 0xBB20, symBinAddr: 0x10024D69C, symSize: 0x28 }
  - { offset: 0x5EEBF, size: 0x8, addend: 0x0, symName: __ZN12dmGameObject16CreateComponentsEPNS_10CollectionEPNS_8InstanceE.cold.1, symObjAddr: 0xBAF8, symBinAddr: 0x10024D674, symSize: 0x28 }
  - { offset: 0x5EED7, size: 0x8, addend: 0x0, symName: __ZN11dmHashTableIyPN12dmGameObject8InstanceEE5EraseEy, symObjAddr: 0x2B5C, symBinAddr: 0x10001B398, symSize: 0xB4 }
  - { offset: 0x5EF8D, size: 0x8, addend: 0x0, symName: __ZN12dmGameObject5SpawnEPNS_16CollectionHandleEPNS_9PrototypeEPKcyPNS_17PropertyContainerERKN10Vectormath3Aos6Point3ERKNS9_4QuatERKNS9_7Vector3EPPNS_8InstanceE, symObjAddr: 0x2C10, symBinAddr: 0x10001B44C, symSize: 0x4D4 }
  - { offset: 0x5F147, size: 0x8, addend: 0x0, symName: __ZN11dmHashTableIyPN12dmGameObject8InstanceEE3PutEyRKS2_.cold.2, symObjAddr: 0xBCC4, symBinAddr: 0x10024D714, symSize: 0x24 }
  - { offset: 0x5F174, size: 0x8, addend: 0x0, symName: __ZN12dmGameObject13SetIdentifierEPNS_16CollectionHandleEPNS_8InstanceEy.cold.1, symObjAddr: 0xBCE8, symBinAddr: 0x10024D738, symSize: 0x24 }
  - { offset: 0x5F5E0, size: 0x8, addend: 0x0, symName: __ZN12dmGameObject5SpawnEPNS_16CollectionHandleEPNS_9PrototypeEPKcyPNS_17PropertyContainerERKN10Vectormath3Aos6Point3ERKNS9_4QuatERKNS9_7Vector3EPPNS_8InstanceE.cold.2, symObjAddr: 0xBDA8, symBinAddr: 0x10024D75C, symSize: 0x28 }
  - { offset: 0x5F765, size: 0x8, addend: 0x0, symName: __ZN12dmGameObjectL12InitInstanceEPNS_10CollectionEPNS_8InstanceE.cold.2, symObjAddr: 0xBE3C, symBinAddr: 0x10024D784, symSize: 0x28 }
  - { offset: 0x5F7BC, size: 0x8, addend: 0x0, symName: __ZN12dmGameObject6DeleteEPNS_10CollectionEPNS_8InstanceEb.cold.5, symObjAddr: 0xBF6C, symBinAddr: 0x10024D7FC, symSize: 0x28 }
  - { offset: 0x5F7E9, size: 0x8, addend: 0x0, symName: __ZN12dmGameObject6DeleteEPNS_10CollectionEPNS_8InstanceEb.cold.2, symObjAddr: 0xBEF8, symBinAddr: 0x10024D7AC, symSize: 0x28 }
  - { offset: 0x5F801, size: 0x8, addend: 0x0, symName: __ZN12dmGameObject6DeleteEPNS_10CollectionEPNS_8InstanceEb.cold.3, symObjAddr: 0xBF20, symBinAddr: 0x10024D7D4, symSize: 0x28 }
  - { offset: 0x5FEC8, size: 0x8, addend: 0x0, symName: __ZN11dmHashTableIyyE11SetCapacityEjj, symObjAddr: 0x91DC, symBinAddr: 0x10002161C, symSize: 0x15C }
  - { offset: 0x60093, size: 0x8, addend: 0x0, symName: __ZN11dmHashTableIyyE3PutEyRKy, symObjAddr: 0x9338, symBinAddr: 0x100021778, symSize: 0x140 }
  - { offset: 0x600CB, size: 0x8, addend: 0x0, symName: __ZN11dmHashTableIyyE3PutEyRKy, symObjAddr: 0x9338, symBinAddr: 0x100021778, symSize: 0x140 }
  - { offset: 0x6021B, size: 0x8, addend: 0x0, symName: __ZN12dmGameObjectL13DoAddToUpdateEPNS_10CollectionEPNS_8InstanceE, symObjAddr: 0x9478, symBinAddr: 0x1000218B8, symSize: 0x144 }
  - { offset: 0x60270, size: 0x8, addend: 0x0, symName: __ZN12dmGameObject19SpawnFromCollectionEPNS_16CollectionHandleEPvPKcP11dmHashTableIyPNS_17PropertyContainerEERKN10Vectormath3Aos6Point3ERKNSB_4QuatERKNSB_7Vector3EPS5_IyyE.cold.5, symObjAddr: 0xC048, symBinAddr: 0x10024D848, symSize: 0x24 }
  - { offset: 0x602D4, size: 0x8, addend: 0x0, symName: __ZN12dmGameObject19SpawnFromCollectionEPNS_16CollectionHandleEPvPKcP11dmHashTableIyPNS_17PropertyContainerEERKN10Vectormath3Aos6Point3ERKNSB_4QuatERKNSB_7Vector3EPS5_IyyE.cold.15, symObjAddr: 0xC1B8, symBinAddr: 0x10024D8BC, symSize: 0x28 }
  - { offset: 0x60318, size: 0x8, addend: 0x0, symName: __ZN12dmGameObject19SpawnFromCollectionEPNS_16CollectionHandleEPvPKcP11dmHashTableIyPNS_17PropertyContainerEERKN10Vectormath3Aos6Point3ERKNSB_4QuatERKNSB_7Vector3EPS5_IyyE.cold.1, symObjAddr: 0xBFB8, symBinAddr: 0x10024D824, symSize: 0x24 }
  - { offset: 0x60507, size: 0x8, addend: 0x0, symName: __ZN12dmGameObject19SpawnFromCollectionEPNS_16CollectionHandleEPvPKcP11dmHashTableIyPNS_17PropertyContainerEERKN10Vectormath3Aos6Point3ERKNSB_4QuatERKNSB_7Vector3EPS5_IyyE.cold.11, symObjAddr: 0xC124, symBinAddr: 0x10024D894, symSize: 0x28 }
  - { offset: 0x60535, size: 0x8, addend: 0x0, symName: __ZN12dmGameObject19SpawnFromCollectionEPNS_16CollectionHandleEPvPKcP11dmHashTableIyPNS_17PropertyContainerEERKN10Vectormath3Aos6Point3ERKNSB_4QuatERKNSB_7Vector3EPS5_IyyE.cold.10, symObjAddr: 0xC0FC, symBinAddr: 0x10024D86C, symSize: 0x28 }
  - { offset: 0x6058E, size: 0x8, addend: 0x0, symName: __ZN12dmGameObject19SpawnFromCollectionEPNS_16CollectionHandleEPvPKcP11dmHashTableIyPNS_17PropertyContainerEERKN10Vectormath3Aos6Point3ERKNSB_4QuatERKNSB_7Vector3EPS5_IyyE.cold.17, symObjAddr: 0xC204, symBinAddr: 0x10024D8E4, symSize: 0x28 }
  - { offset: 0x60628, size: 0x8, addend: 0x0, symName: __ZN12dmGameObject4InitEPNS_16CollectionHandleE.cold.1, symObjAddr: 0xC2E4, symBinAddr: 0x10024D90C, symSize: 0x28 }
  - { offset: 0x6066B, size: 0x8, addend: 0x0, symName: __ZN12dmGameObject17GetComponentIndexEPNS_8InstanceEyPt.cold.1, symObjAddr: 0xC378, symBinAddr: 0x10024D934, symSize: 0x28 }
  - { offset: 0x60683, size: 0x8, addend: 0x0, symName: __ZN12dmGameObject14GetComponentIdEPNS_8InstanceEtPy.cold.1, symObjAddr: 0xC3A0, symBinAddr: 0x10024D95C, symSize: 0x28 }
  - { offset: 0x6069B, size: 0x8, addend: 0x0, symName: __ZN12dmGameObject12GetComponentEPNS_8InstanceEyPjPPvS4_.cold.1, symObjAddr: 0xC3C8, symBinAddr: 0x10024D984, symSize: 0x28 }
  - { offset: 0x6079B, size: 0x8, addend: 0x0, symName: __ZN12dmGameObject24DispatchMessagesFunctionEPN9dmMessage7MessageEPv.cold.6, symObjAddr: 0xC4F0, symBinAddr: 0x10024D9F8, symSize: 0x28 }
  - { offset: 0x607B3, size: 0x8, addend: 0x0, symName: __ZN12dmGameObject24DispatchMessagesFunctionEPN9dmMessage7MessageEPv.cold.5, symObjAddr: 0xC4C8, symBinAddr: 0x10024D9D0, symSize: 0x28 }
  - { offset: 0x607F5, size: 0x8, addend: 0x0, symName: __ZN12dmGameObject24DispatchMessagesFunctionEPN9dmMessage7MessageEPv.cold.4, symObjAddr: 0xC4A4, symBinAddr: 0x10024D9AC, symSize: 0x24 }
  - { offset: 0x60BCA, size: 0x8, addend: 0x0, symName: __ZN12dmGameObject9SetParentEPNS_8InstanceES1_.cold.4, symObjAddr: 0xC5F8, symBinAddr: 0x10024DA70, symSize: 0x28 }
  - { offset: 0x60BF7, size: 0x8, addend: 0x0, symName: __ZN12dmGameObject9SetParentEPNS_8InstanceES1_.cold.2, symObjAddr: 0xC5A8, symBinAddr: 0x10024DA20, symSize: 0x28 }
  - { offset: 0x60C0F, size: 0x8, addend: 0x0, symName: __ZN12dmGameObject9SetParentEPNS_8InstanceES1_.cold.3, symObjAddr: 0xC5D0, symBinAddr: 0x10024DA48, symSize: 0x28 }
  - { offset: 0x60C3C, size: 0x8, addend: 0x0, symName: __ZN12dmGameObject9SetParentEPNS_8InstanceES1_.cold.6, symObjAddr: 0xC644, symBinAddr: 0x10024DA98, symSize: 0x28 }
  - { offset: 0x60C9D, size: 0x8, addend: 0x0, symName: __ZN12dmGameObject16UpdateTransformsEPNS_10CollectionE.cold.9, symObjAddr: 0xC790, symBinAddr: 0x10024DAE8, symSize: 0x28 }
  - { offset: 0x60D09, size: 0x8, addend: 0x0, symName: __ZN12dmGameObject16UpdateTransformsEPNS_10CollectionE.cold.4, symObjAddr: 0xC6D8, symBinAddr: 0x10024DAC0, symSize: 0x28 }
  - { offset: 0x60DEB, size: 0x8, addend: 0x0, symName: __ZN12dmGameObject6RenderEPNS_16CollectionHandleE.cold.1, symObjAddr: 0xC86C, symBinAddr: 0x10024DB10, symSize: 0x28 }
  - { offset: 0x60E43, size: 0x8, addend: 0x0, symName: __ZN12dmGameObject10PostUpdateEPNS_16CollectionHandleE.cold.3, symObjAddr: 0xC8DC, symBinAddr: 0x10024DB38, symSize: 0x28 }
  - { offset: 0x60E71, size: 0x8, addend: 0x0, symName: __ZN12dmGameObject10PostUpdateEPNS_16CollectionHandleE.cold.8, symObjAddr: 0xC99C, symBinAddr: 0x10024DBB0, symSize: 0x28 }
  - { offset: 0x60EDF, size: 0x8, addend: 0x0, symName: __ZN12dmGameObject10PostUpdateEPNS_16CollectionHandleE.cold.6, symObjAddr: 0xC94C, symBinAddr: 0x10024DB60, symSize: 0x28 }
  - { offset: 0x60F0D, size: 0x8, addend: 0x0, symName: __ZN12dmGameObject10PostUpdateEPNS_16CollectionHandleE.cold.7, symObjAddr: 0xC974, symBinAddr: 0x10024DB88, symSize: 0x28 }
  - { offset: 0x60F3B, size: 0x8, addend: 0x0, symName: __ZN12dmGameObject10PostUpdateEPNS_16CollectionHandleE.cold.10, symObjAddr: 0xC9EC, symBinAddr: 0x10024DC00, symSize: 0x28 }
  - { offset: 0x60F69, size: 0x8, addend: 0x0, symName: __ZN12dmGameObject10PostUpdateEPNS_16CollectionHandleE.cold.9, symObjAddr: 0xC9C4, symBinAddr: 0x10024DBD8, symSize: 0x28 }
  - { offset: 0x60FAC, size: 0x8, addend: 0x0, symName: __ZN12dmGameObject10PostUpdateEPNS_8RegisterE.cold.2, symObjAddr: 0xCA38, symBinAddr: 0x10024DC28, symSize: 0x28 }
  - { offset: 0x60FC4, size: 0x8, addend: 0x0, symName: __ZN12dmGameObject13DispatchInputEPNS_10CollectionEPNS_11InputActionEj.cold.2, symObjAddr: 0xCA84, symBinAddr: 0x10024DC50, symSize: 0x28 }
  - { offset: 0x61259, size: 0x8, addend: 0x0, symName: __ZN12dmGameObjectL11MoveAllDownEPNS_10CollectionEPNS_8InstanceE.cold.3, symObjAddr: 0xCBF0, symBinAddr: 0x10024DC78, symSize: 0x28 }
  - { offset: 0x612B1, size: 0x8, addend: 0x0, symName: __ZN12dmGameObjectL9MoveAllUpEPNS_10CollectionEPNS_8InstanceE.cold.3, symObjAddr: 0xCC60, symBinAddr: 0x10024DCA0, symSize: 0x28 }
  - { offset: 0x6150E, size: 0x8, addend: 0x0, symName: __ZN12dmGameObjectL16DoDeleteInstanceEPNS_10CollectionEPNS_8InstanceE.cold.9, symObjAddr: 0xCE68, symBinAddr: 0x10024DD40, symSize: 0x28 }
  - { offset: 0x61551, size: 0x8, addend: 0x0, symName: __ZN12dmGameObjectL16DoDeleteInstanceEPNS_10CollectionEPNS_8InstanceE.cold.3, symObjAddr: 0xCD88, symBinAddr: 0x10024DCF0, symSize: 0x28 }
  - { offset: 0x61593, size: 0x8, addend: 0x0, symName: __ZN12dmGameObjectL16DoDeleteInstanceEPNS_10CollectionEPNS_8InstanceE.cold.6, symObjAddr: 0xCDF8, symBinAddr: 0x10024DD18, symSize: 0x28 }
  - { offset: 0x615EB, size: 0x8, addend: 0x0, symName: __ZN12dmGameObjectL16DoDeleteInstanceEPNS_10CollectionEPNS_8InstanceE.cold.1, symObjAddr: 0xCD3C, symBinAddr: 0x10024DCC8, symSize: 0x28 }
  - { offset: 0x61619, size: 0x8, addend: 0x0, symName: __ZN12dmGameObjectL17DestroyComponentsEPNS_10CollectionEPNS_8InstanceE.cold.1, symObjAddr: 0xCED8, symBinAddr: 0x10024DD68, symSize: 0x28 }
  - { offset: 0x61646, size: 0x8, addend: 0x0, symName: __ZN12dmGameObjectL18ReparentChildNodesEPNS_10CollectionEPNS_8InstanceE.cold.2, symObjAddr: 0xCF24, symBinAddr: 0x10024DD90, symSize: 0x28 }
  - { offset: 0x6169D, size: 0x8, addend: 0x0, symName: __ZN12dmGameObjectL18ReparentChildNodesEPNS_10CollectionEPNS_8InstanceE.cold.6, symObjAddr: 0xCFB8, symBinAddr: 0x10024DDB8, symSize: 0x28 }
  - { offset: 0x6182D, size: 0x8, addend: 0x0, symName: __ZN12dmGameObjectL13DoAddToUpdateEPNS_10CollectionEPNS_8InstanceE.cold.3, symObjAddr: 0xD118, symBinAddr: 0x10024DE08, symSize: 0x28 }
  - { offset: 0x6185A, size: 0x8, addend: 0x0, symName: __ZN12dmGameObjectL13DoAddToUpdateEPNS_10CollectionEPNS_8InstanceE.cold.2, symObjAddr: 0xD0F0, symBinAddr: 0x10024DDE0, symSize: 0x28 }
  - { offset: 0x61887, size: 0x8, addend: 0x0, symName: __ZN12dmGameObjectL13FinalInstanceEPNS_10CollectionEPNS_8InstanceE.cold.2, symObjAddr: 0xD164, symBinAddr: 0x10024DE30, symSize: 0x28 }
  - { offset: 0x6189F, size: 0x8, addend: 0x0, symName: __ZN12dmGameObjectL15FinalComponentsEPNS_10CollectionEPNS_8InstanceE.cold.2, symObjAddr: 0xD1B4, symBinAddr: 0x10024DE80, symSize: 0x28 }
  - { offset: 0x618B7, size: 0x8, addend: 0x0, symName: __ZN12dmGameObjectL15FinalComponentsEPNS_10CollectionEPNS_8InstanceE.cold.1, symObjAddr: 0xD18C, symBinAddr: 0x10024DE58, symSize: 0x28 }
  - { offset: 0x61C22, size: 0x8, addend: 0x0, symName: __GLOBAL__sub_I_gameobject.cpp, symObjAddr: 0xD2B0, symBinAddr: 0x1000235DC, symSize: 0x218 }
  - { offset: 0x61F8F, size: 0x8, addend: 0x0, symName: __GLOBAL__sub_I_gameobject.cpp.cold.1, symObjAddr: 0xD4C8, symBinAddr: 0x10024DEA8, symSize: 0x50 }
  - { offset: 0x61FD1, size: 0x8, addend: 0x0, symName: __GLOBAL__sub_I_gameobject.cpp.cold.2, symObjAddr: 0xD518, symBinAddr: 0x10024DEF8, symSize: 0x5C }
  - { offset: 0x62013, size: 0x8, addend: 0x0, symName: __GLOBAL__sub_I_gameobject.cpp.cold.3, symObjAddr: 0xD574, symBinAddr: 0x10024DF54, symSize: 0x5C }
  - { offset: 0x62055, size: 0x8, addend: 0x0, symName: _OUTLINED_FUNCTION_3, symObjAddr: 0xD1F4, symBinAddr: 0x1000235AC, symSize: 0x8 }
  - { offset: 0x6206D, size: 0x8, addend: 0x0, symName: _OUTLINED_FUNCTION_6, symObjAddr: 0xD20C, symBinAddr: 0x1000235B4, symSize: 0x8 }
  - { offset: 0x62085, size: 0x8, addend: 0x0, symName: _OUTLINED_FUNCTION_7, symObjAddr: 0xD214, symBinAddr: 0x1000235BC, symSize: 0x8 }
  - { offset: 0x6209D, size: 0x8, addend: 0x0, symName: _OUTLINED_FUNCTION_8, symObjAddr: 0xD21C, symBinAddr: 0x1000235C4, symSize: 0x8 }
  - { offset: 0x620B5, size: 0x8, addend: 0x0, symName: _OUTLINED_FUNCTION_9, symObjAddr: 0xD224, symBinAddr: 0x1000235CC, symSize: 0x8 }
  - { offset: 0x620CD, size: 0x8, addend: 0x0, symName: _OUTLINED_FUNCTION_10, symObjAddr: 0xD22C, symBinAddr: 0x1000235D4, symSize: 0x8 }
  - { offset: 0x63FAB, size: 0x8, addend: 0x0, symName: _ComponentTypeAnim, symObjAddr: 0x0, symBinAddr: 0x1000237F4, symSize: 0x20 }
  - { offset: 0x63FC6, size: 0x8, addend: 0x0, symName: _ComponentTypeAnim64, symObjAddr: 0xACC0, symBinAddr: 0x100368B20, symSize: 0x0 }
  - { offset: 0x64003, size: 0x8, addend: 0x0, symName: _ComponentTypeScript65, symObjAddr: 0xAD40, symBinAddr: 0x100368BA0, symSize: 0x0 }
  - { offset: 0x64215, size: 0x8, addend: 0x0, symName: __ZN12dmGameObjectL13CompAnimcInitEPKNS_22ComponentTypeCreateCtxEPNS_13ComponentTypeE, symObjAddr: 0x20, symBinAddr: 0x100023814, symSize: 0x78 }
  - { offset: 0x6435D, size: 0x8, addend: 0x0, symName: __ZN12dmGameObjectL15CompScriptcInitEPKNS_22ComponentTypeCreateCtxEPNS_13ComponentTypeE, symObjAddr: 0xB8, symBinAddr: 0x1000238AC, symSize: 0x164 }
  - { offset: 0x647C8, size: 0x8, addend: 0x0, symName: _ComponentTypeAnim, symObjAddr: 0x0, symBinAddr: 0x1000237F4, symSize: 0x20 }
  - { offset: 0x647F2, size: 0x8, addend: 0x0, symName: _ComponentTypeScript, symObjAddr: 0x98, symBinAddr: 0x10002388C, symSize: 0x20 }
  - { offset: 0x649F0, size: 0x8, addend: 0x0, symName: __ZN12dmGameObject15TraverseGetRootEPNS_8RegisterEPNS_9SceneNodeE, symObjAddr: 0x0, symBinAddr: 0x100023A10, symSize: 0x74 }
  - { offset: 0x64A03, size: 0x8, addend: 0x0, symName: __ZN12dmGameObject23TraverseIterateChildrenEPNS_9SceneNodeE, symObjAddr: 0x74, symBinAddr: 0x100023A84, symSize: 0x68 }
  - { offset: 0x64A2D, size: 0x8, addend: 0x0, symName: __ZZN12dmGameObject23TraverseIterateChildrenEPNS_9SceneNodeEE9_scope216, symObjAddr: 0x16240, symBinAddr: 0x100358228, symSize: 0x0 }
  - { offset: 0x64B2C, size: 0x8, addend: 0x0, symName: __ZN12dmGameObject19TraverseIterateNextEPNS_17SceneNodeIteratorE, symObjAddr: 0x1C8, symBinAddr: 0x100023BD8, symSize: 0x60 }
  - { offset: 0x64B56, size: 0x8, addend: 0x0, symName: __ZZN12dmGameObject19TraverseIterateNextEPNS_17SceneNodeIteratorEE9_scope238, symObjAddr: 0x16248, symBinAddr: 0x100358230, symSize: 0x0 }
  - { offset: 0x64C44, size: 0x8, addend: 0x0, symName: __ZN12dmGameObject25TraverseIteratePropertiesEPNS_9SceneNodeE, symObjAddr: 0x228, symBinAddr: 0x100023C38, symSize: 0x138 }
  - { offset: 0x64C6F, size: 0x8, addend: 0x0, symName: __ZZN12dmGameObject25TraverseIteratePropertiesEPNS_9SceneNodeEE9_scope498, symObjAddr: 0x16250, symBinAddr: 0x100358238, symSize: 0x0 }
  - { offset: 0x64C85, size: 0x8, addend: 0x0, symName: __ZZN12dmGameObject25TraverseIteratePropertiesEPNS_9SceneNodeEE5first, symObjAddr: 0x16258, symBinAddr: 0x100358240, symSize: 0x0 }
  - { offset: 0x64E1D, size: 0x8, addend: 0x0, symName: __ZN12dmGameObject29TraverseIteratePropertiesNextEPNS_25SceneNodePropertyIteratorE, symObjAddr: 0x460, symBinAddr: 0x100023E70, symSize: 0x68 }
  - { offset: 0x64E48, size: 0x8, addend: 0x0, symName: __ZZN12dmGameObject29TraverseIteratePropertiesNextEPNS_25SceneNodePropertyIteratorEE9_scope528, symObjAddr: 0x16260, symBinAddr: 0x100358248, symSize: 0x0 }
  - { offset: 0x64F42, size: 0x8, addend: 0x0, symName: __ZN12dmGameObjectL26g_SceneNodePropertyName_idE, symObjAddr: 0x16268, symBinAddr: 0x100358250, symSize: 0x0 }
  - { offset: 0x64F5B, size: 0x8, addend: 0x0, symName: __ZN12dmGameObjectL28g_SceneNodePropertyName_typeE, symObjAddr: 0x16270, symBinAddr: 0x100358258, symSize: 0x0 }
  - { offset: 0x64F74, size: 0x8, addend: 0x0, symName: __ZN12dmGameObjectL32g_SceneNodePropertyName_resourceE, symObjAddr: 0x16278, symBinAddr: 0x100358260, symSize: 0x0 }
  - { offset: 0x64F8D, size: 0x8, addend: 0x0, symName: __ZN12dmGameObjectL32g_SceneNodePropertyName_positionE, symObjAddr: 0x16280, symBinAddr: 0x100358268, symSize: 0x0 }
  - { offset: 0x64FA6, size: 0x8, addend: 0x0, symName: __ZN12dmGameObjectL32g_SceneNodePropertyName_rotationE, symObjAddr: 0x16288, symBinAddr: 0x100358270, symSize: 0x0 }
  - { offset: 0x64FBF, size: 0x8, addend: 0x0, symName: __ZN12dmGameObjectL29g_SceneNodePropertyName_scaleE, symObjAddr: 0x16290, symBinAddr: 0x100358278, symSize: 0x0 }
  - { offset: 0x64FD8, size: 0x8, addend: 0x0, symName: __ZN12dmGameObjectL38g_SceneNodePropertyName_world_positionE, symObjAddr: 0x16298, symBinAddr: 0x100358280, symSize: 0x0 }
  - { offset: 0x64FF1, size: 0x8, addend: 0x0, symName: __ZN12dmGameObjectL38g_SceneNodePropertyName_world_rotationE, symObjAddr: 0x162A0, symBinAddr: 0x100358288, symSize: 0x0 }
  - { offset: 0x6500A, size: 0x8, addend: 0x0, symName: __ZN12dmGameObjectL35g_SceneNodePropertyName_world_scaleE, symObjAddr: 0x162A8, symBinAddr: 0x100358290, symSize: 0x0 }
  - { offset: 0x656BF, size: 0x8, addend: 0x0, symName: __ZN12dmGameObject15TraverseGetRootEPNS_8RegisterEPNS_9SceneNodeE, symObjAddr: 0x0, symBinAddr: 0x100023A10, symSize: 0x74 }
  - { offset: 0x657D3, size: 0x8, addend: 0x0, symName: __ZN12dmGameObject23TraverseIterateChildrenEPNS_9SceneNodeE, symObjAddr: 0x74, symBinAddr: 0x100023A84, symSize: 0x68 }
  - { offset: 0x657DD, size: 0x8, addend: 0x0, symName: __ZN12dmGameObjectL25IterateCollectionChildrenEPNS_17SceneNodeIteratorEPNS_9SceneNodeE, symObjAddr: 0xDC, symBinAddr: 0x100023AEC, symSize: 0x4C }
  - { offset: 0x65834, size: 0x8, addend: 0x0, symName: __ZN12dmGameObjectL25IterateGameObjectChildrenEPNS_17SceneNodeIteratorEPNS_9SceneNodeE, symObjAddr: 0x128, symBinAddr: 0x100023B38, symSize: 0x48 }
  - { offset: 0x6583E, size: 0x8, addend: 0x0, symName: __ZN12dmGameObjectL25IterateGameObjectChildrenEPNS_17SceneNodeIteratorEPNS_9SceneNodeE, symObjAddr: 0x128, symBinAddr: 0x100023B38, symSize: 0x48 }
  - { offset: 0x65879, size: 0x8, addend: 0x0, symName: __ZN12dmGameObjectL24IterateComponentChildrenEPNS_17SceneNodeIteratorEPNS_9SceneNodeE, symObjAddr: 0x170, symBinAddr: 0x100023B80, symSize: 0x58 }
  - { offset: 0x658A6, size: 0x8, addend: 0x0, symName: __ZN12dmGameObjectL24IterateComponentChildrenEPNS_17SceneNodeIteratorEPNS_9SceneNodeE, symObjAddr: 0x170, symBinAddr: 0x100023B80, symSize: 0x58 }
  - { offset: 0x6591F, size: 0x8, addend: 0x0, symName: __ZN12dmGameObject19TraverseIterateNextEPNS_17SceneNodeIteratorE, symObjAddr: 0x1C8, symBinAddr: 0x100023BD8, symSize: 0x60 }
  - { offset: 0x65936, size: 0x8, addend: 0x0, symName: __ZN12dmGameObjectL27IterateCollectionPropertiesEPNS_25SceneNodePropertyIteratorEPNS_9SceneNodeE, symObjAddr: 0x360, symBinAddr: 0x100023D70, symSize: 0x3C }
  - { offset: 0x65981, size: 0x8, addend: 0x0, symName: __ZN12dmGameObjectL27IterateGameObjectPropertiesEPNS_25SceneNodePropertyIteratorEPNS_9SceneNodeE, symObjAddr: 0x39C, symBinAddr: 0x100023DAC, symSize: 0x40 }
  - { offset: 0x6598B, size: 0x8, addend: 0x0, symName: __ZN12dmGameObjectL27IterateGameObjectPropertiesEPNS_25SceneNodePropertyIteratorEPNS_9SceneNodeE, symObjAddr: 0x39C, symBinAddr: 0x100023DAC, symSize: 0x40 }
  - { offset: 0x659D6, size: 0x8, addend: 0x0, symName: __ZN12dmGameObjectL26IterateComponentPropertiesEPNS_25SceneNodePropertyIteratorEPNS_9SceneNodeE, symObjAddr: 0x3DC, symBinAddr: 0x100023DEC, symSize: 0x40 }
  - { offset: 0x659E0, size: 0x8, addend: 0x0, symName: __ZN12dmGameObjectL26IterateComponentPropertiesEPNS_25SceneNodePropertyIteratorEPNS_9SceneNodeE, symObjAddr: 0x3DC, symBinAddr: 0x100023DEC, symSize: 0x40 }
  - { offset: 0x65A2B, size: 0x8, addend: 0x0, symName: __ZN12dmGameObjectL29IterateSubComponentPropertiesEPNS_25SceneNodePropertyIteratorEPNS_9SceneNodeE, symObjAddr: 0x41C, symBinAddr: 0x100023E2C, symSize: 0x44 }
  - { offset: 0x65A5B, size: 0x8, addend: 0x0, symName: __ZN12dmGameObjectL29IterateSubComponentPropertiesEPNS_25SceneNodePropertyIteratorEPNS_9SceneNodeE, symObjAddr: 0x41C, symBinAddr: 0x100023E2C, symSize: 0x44 }
  - { offset: 0x65ACF, size: 0x8, addend: 0x0, symName: __ZN12dmGameObject29TraverseIteratePropertiesNextEPNS_25SceneNodePropertyIteratorE, symObjAddr: 0x460, symBinAddr: 0x100023E70, symSize: 0x68 }
  - { offset: 0x65ADA, size: 0x8, addend: 0x0, symName: __ZN12dmGameObjectL24IterateCollectionGetNextEPNS_17SceneNodeIteratorE, symObjAddr: 0x4C8, symBinAddr: 0x100023ED8, symSize: 0xBC }
  - { offset: 0x65C16, size: 0x8, addend: 0x0, symName: __ZN12dmGameObjectL24IterateGameObjectGetNextEPNS_17SceneNodeIteratorE, symObjAddr: 0x584, symBinAddr: 0x100023F94, symSize: 0x184 }
  - { offset: 0x65C21, size: 0x8, addend: 0x0, symName: __ZN12dmGameObjectL24IterateGameObjectGetNextEPNS_17SceneNodeIteratorE, symObjAddr: 0x584, symBinAddr: 0x100023F94, symSize: 0x184 }
  - { offset: 0x65DB0, size: 0x8, addend: 0x0, symName: __ZN12dmGameObjectL27IterateComponentNullGetNextEPNS_17SceneNodeIteratorE, symObjAddr: 0x708, symBinAddr: 0x100024118, symSize: 0x8 }
  - { offset: 0x65DBB, size: 0x8, addend: 0x0, symName: __ZN12dmGameObjectL27IterateComponentNullGetNextEPNS_17SceneNodeIteratorE, symObjAddr: 0x708, symBinAddr: 0x100024118, symSize: 0x8 }
  - { offset: 0x65DE5, size: 0x8, addend: 0x0, symName: __ZN12dmGameObjectL34IterateCollectionPropertiesGetNextEPNS_25SceneNodePropertyIteratorE, symObjAddr: 0x710, symBinAddr: 0x100024120, symSize: 0x120 }
  - { offset: 0x65E78, size: 0x8, addend: 0x0, symName: __ZN12dmGameObjectL34IterateGameObjectPropertiesGetNextEPNS_25SceneNodePropertyIteratorE, symObjAddr: 0x830, symBinAddr: 0x100024240, symSize: 0x234 }
  - { offset: 0x66170, size: 0x8, addend: 0x0, symName: __ZN12dmGameObjectL33IterateComponentPropertiesGetNextEPNS_25SceneNodePropertyIteratorE, symObjAddr: 0xA64, symBinAddr: 0x100024474, symSize: 0x144 }
  - { offset: 0x665E0, size: 0x8, addend: 0x0, symName: __ZN12dmGameObjectL25IterateCollectionChildrenEPNS_17SceneNodeIteratorEPNS_9SceneNodeE.cold.1, symObjAddr: 0xBCC, symBinAddr: 0x10024DFB0, symSize: 0x28 }
  - { offset: 0x665F8, size: 0x8, addend: 0x0, symName: __ZN12dmGameObjectL25IterateGameObjectChildrenEPNS_17SceneNodeIteratorEPNS_9SceneNodeE.cold.1, symObjAddr: 0xBF4, symBinAddr: 0x10024DFD8, symSize: 0x28 }
  - { offset: 0x66610, size: 0x8, addend: 0x0, symName: __ZN12dmGameObjectL24IterateComponentChildrenEPNS_17SceneNodeIteratorEPNS_9SceneNodeE.cold.1, symObjAddr: 0xC1C, symBinAddr: 0x10024E000, symSize: 0x28 }
  - { offset: 0x6663A, size: 0x8, addend: 0x0, symName: __ZN12dmGameObjectL27IterateCollectionPropertiesEPNS_25SceneNodePropertyIteratorEPNS_9SceneNodeE.cold.1, symObjAddr: 0xC44, symBinAddr: 0x10024E028, symSize: 0x28 }
  - { offset: 0x66652, size: 0x8, addend: 0x0, symName: __ZN12dmGameObjectL27IterateCollectionPropertiesEPNS_25SceneNodePropertyIteratorEPNS_9SceneNodeE.cold.2, symObjAddr: 0xC6C, symBinAddr: 0x10024E050, symSize: 0x28 }
  - { offset: 0x6666A, size: 0x8, addend: 0x0, symName: __ZN12dmGameObjectL27IterateGameObjectPropertiesEPNS_25SceneNodePropertyIteratorEPNS_9SceneNodeE.cold.1, symObjAddr: 0xC94, symBinAddr: 0x10024E078, symSize: 0x28 }
  - { offset: 0x66682, size: 0x8, addend: 0x0, symName: __ZN12dmGameObjectL27IterateGameObjectPropertiesEPNS_25SceneNodePropertyIteratorEPNS_9SceneNodeE.cold.2, symObjAddr: 0xCBC, symBinAddr: 0x10024E0A0, symSize: 0x28 }
  - { offset: 0x6669A, size: 0x8, addend: 0x0, symName: __ZN12dmGameObjectL26IterateComponentPropertiesEPNS_25SceneNodePropertyIteratorEPNS_9SceneNodeE.cold.1, symObjAddr: 0xCE4, symBinAddr: 0x10024E0C8, symSize: 0x28 }
  - { offset: 0x666B2, size: 0x8, addend: 0x0, symName: __ZN12dmGameObjectL26IterateComponentPropertiesEPNS_25SceneNodePropertyIteratorEPNS_9SceneNodeE.cold.2, symObjAddr: 0xD0C, symBinAddr: 0x10024E0F0, symSize: 0x28 }
  - { offset: 0x666CA, size: 0x8, addend: 0x0, symName: __ZN12dmGameObjectL29IterateSubComponentPropertiesEPNS_25SceneNodePropertyIteratorEPNS_9SceneNodeE.cold.2, symObjAddr: 0xD5C, symBinAddr: 0x10024E140, symSize: 0x28 }
  - { offset: 0x666E2, size: 0x8, addend: 0x0, symName: __ZN12dmGameObjectL29IterateSubComponentPropertiesEPNS_25SceneNodePropertyIteratorEPNS_9SceneNodeE.cold.1, symObjAddr: 0xD34, symBinAddr: 0x10024E118, symSize: 0x28 }
  - { offset: 0x6677B, size: 0x8, addend: 0x0, symName: __ZN12dmGameObjectL24IterateCollectionGetNextEPNS_17SceneNodeIteratorE.cold.1, symObjAddr: 0xD84, symBinAddr: 0x10024E168, symSize: 0x28 }
  - { offset: 0x667BB, size: 0x8, addend: 0x0, symName: __ZN12dmGameObjectL24IterateGameObjectGetNextEPNS_17SceneNodeIteratorE.cold.1, symObjAddr: 0xDF8, symBinAddr: 0x10024E190, symSize: 0x28 }
  - { offset: 0x667ED, size: 0x8, addend: 0x0, symName: __ZN12dmGameObjectL34IterateCollectionPropertiesGetNextEPNS_25SceneNodePropertyIteratorE.cold.1, symObjAddr: 0xE44, symBinAddr: 0x10024E1B8, symSize: 0x28 }
  - { offset: 0x66805, size: 0x8, addend: 0x0, symName: __ZN12dmGameObjectL34IterateCollectionPropertiesGetNextEPNS_25SceneNodePropertyIteratorE.cold.2, symObjAddr: 0xE6C, symBinAddr: 0x10024E1E0, symSize: 0x28 }
  - { offset: 0x669BA, size: 0x8, addend: 0x0, symName: __ZN12dmGameObjectL34IterateGameObjectPropertiesGetNextEPNS_25SceneNodePropertyIteratorE.cold.1, symObjAddr: 0xE94, symBinAddr: 0x10024E208, symSize: 0x28 }
  - { offset: 0x669D2, size: 0x8, addend: 0x0, symName: __ZN12dmGameObjectL34IterateGameObjectPropertiesGetNextEPNS_25SceneNodePropertyIteratorE.cold.2, symObjAddr: 0xEBC, symBinAddr: 0x10024E230, symSize: 0x28 }
  - { offset: 0x669EA, size: 0x8, addend: 0x0, symName: __ZN12dmGameObjectL33IterateComponentPropertiesGetNextEPNS_25SceneNodePropertyIteratorE.cold.1, symObjAddr: 0xEE4, symBinAddr: 0x10024E258, symSize: 0x28 }
  - { offset: 0x66A02, size: 0x8, addend: 0x0, symName: __ZN12dmGameObjectL33IterateComponentPropertiesGetNextEPNS_25SceneNodePropertyIteratorE.cold.3, symObjAddr: 0xF34, symBinAddr: 0x10024E2A8, symSize: 0x28 }
  - { offset: 0x66A1A, size: 0x8, addend: 0x0, symName: __ZN12dmGameObjectL33IterateComponentPropertiesGetNextEPNS_25SceneNodePropertyIteratorE.cold.2, symObjAddr: 0xF0C, symBinAddr: 0x10024E280, symSize: 0x28 }
  - { offset: 0x66D61, size: 0x8, addend: 0x0, symName: __ZN12dmGameObject13NewPropertiesERKNS_19NewPropertiesParamsE, symObjAddr: 0xD8, symBinAddr: 0x100024604, symSize: 0x44 }
  - { offset: 0x66DD6, size: 0x8, addend: 0x0, symName: __ZN12dmGameObject16DeletePropertiesEPNS_10PropertiesE, symObjAddr: 0x11C, symBinAddr: 0x100024648, symSize: 0x58 }
  - { offset: 0x66E5E, size: 0x8, addend: 0x0, symName: __ZN12dmGameObject14SetPropertySetEPNS_10PropertiesENS_13PropertyLayerERKNS_11PropertySetE, symObjAddr: 0x174, symBinAddr: 0x1000246A0, symSize: 0x1C }
  - { offset: 0x66EB8, size: 0x8, addend: 0x0, symName: __ZN12dmGameObject11GetPropertyEPNS_10PropertiesEyRNS_11PropertyVarE, symObjAddr: 0x190, symBinAddr: 0x1000246BC, symSize: 0xC8 }
  - { offset: 0x67024, size: 0x8, addend: 0x0, symName: __ZN12dmGameObject21LoadPropertyResourcesEP15ResourceFactoryPPKcjR7dmArrayIPvE, symObjAddr: 0x258, symBinAddr: 0x100024784, symSize: 0x16C }
  - { offset: 0x67297, size: 0x8, addend: 0x0, symName: __ZN12dmGameObject23UnloadPropertyResourcesEP15ResourceFactoryR7dmArrayIPvE, symObjAddr: 0x3C4, symBinAddr: 0x1000248F0, symSize: 0x8C }
  - { offset: 0x672A1, size: 0x8, addend: 0x0, symName: __ZN12dmGameObject23UnloadPropertyResourcesEP15ResourceFactoryR7dmArrayIPvE, symObjAddr: 0x3C4, symBinAddr: 0x1000248F0, symSize: 0x8C }
  - { offset: 0x6756E, size: 0x8, addend: 0x0, symName: __ZN12dmGameObject30PropertyContainerCreateBuilderERKNS_30PropertyContainerBuilderParamsE, symObjAddr: 0x470, symBinAddr: 0x10002498C, symSize: 0x118 }
  - { offset: 0x676DA, size: 0x8, addend: 0x0, symName: __ZN12dmGameObject24PropertyContainerDestroyEPNS_17PropertyContainerE, symObjAddr: 0x588, symBinAddr: 0x100024AA4, symSize: 0x4 }
  - { offset: 0x676F8, size: 0x8, addend: 0x0, symName: __ZN12dmGameObject24PropertyContainerDestroyEPNS_17PropertyContainerE, symObjAddr: 0x588, symBinAddr: 0x100024AA4, symSize: 0x4 }
  - { offset: 0x677C7, size: 0x8, addend: 0x0, symName: __ZN12dmGameObject26PropertyContainerPushFloatEPNS_24PropertyContainerBuilderEyf, symObjAddr: 0x58C, symBinAddr: 0x100024AA8, symSize: 0x54 }
  - { offset: 0x67880, size: 0x8, addend: 0x0, symName: __ZN12dmGameObject28PropertyContainerPushVector3EPNS_24PropertyContainerBuilderEyPKf, symObjAddr: 0x5E0, symBinAddr: 0x100024AFC, symSize: 0x74 }
  - { offset: 0x6788A, size: 0x8, addend: 0x0, symName: __ZN12dmGameObject28PropertyContainerPushVector3EPNS_24PropertyContainerBuilderEyPKf, symObjAddr: 0x5E0, symBinAddr: 0x100024AFC, symSize: 0x74 }
  - { offset: 0x6794A, size: 0x8, addend: 0x0, symName: __ZN12dmGameObject28PropertyContainerPushVector4EPNS_24PropertyContainerBuilderEyPKf, symObjAddr: 0x654, symBinAddr: 0x100024B70, symSize: 0x80 }
  - { offset: 0x67954, size: 0x8, addend: 0x0, symName: __ZN12dmGameObject28PropertyContainerPushVector4EPNS_24PropertyContainerBuilderEyPKf, symObjAddr: 0x654, symBinAddr: 0x100024B70, symSize: 0x80 }
  - { offset: 0x67A14, size: 0x8, addend: 0x0, symName: __ZN12dmGameObject25PropertyContainerPushQuatEPNS_24PropertyContainerBuilderEyPKf, symObjAddr: 0x6D4, symBinAddr: 0x100024BF0, symSize: 0x80 }
  - { offset: 0x67A1E, size: 0x8, addend: 0x0, symName: __ZN12dmGameObject25PropertyContainerPushQuatEPNS_24PropertyContainerBuilderEyPKf, symObjAddr: 0x6D4, symBinAddr: 0x100024BF0, symSize: 0x80 }
  - { offset: 0x67ADE, size: 0x8, addend: 0x0, symName: __ZN12dmGameObject25PropertyContainerPushBoolEPNS_24PropertyContainerBuilderEyb, symObjAddr: 0x754, symBinAddr: 0x100024C70, symSize: 0x5C }
  - { offset: 0x67AE8, size: 0x8, addend: 0x0, symName: __ZN12dmGameObject25PropertyContainerPushBoolEPNS_24PropertyContainerBuilderEyb, symObjAddr: 0x754, symBinAddr: 0x100024C70, symSize: 0x5C }
  - { offset: 0x67B4B, size: 0x8, addend: 0x0, symName: __ZN12dmGameObject25PropertyContainerPushHashEPNS_24PropertyContainerBuilderEyy, symObjAddr: 0x7B0, symBinAddr: 0x100024CCC, symSize: 0x54 }
  - { offset: 0x67B55, size: 0x8, addend: 0x0, symName: __ZN12dmGameObject25PropertyContainerPushHashEPNS_24PropertyContainerBuilderEyy, symObjAddr: 0x7B0, symBinAddr: 0x100024CCC, symSize: 0x54 }
  - { offset: 0x67BB8, size: 0x8, addend: 0x0, symName: __ZN12dmGameObject30PropertyContainerPushURLStringEPNS_24PropertyContainerBuilderEyPKc, symObjAddr: 0x804, symBinAddr: 0x100024D20, symSize: 0x98 }
  - { offset: 0x67BC2, size: 0x8, addend: 0x0, symName: __ZN12dmGameObject30PropertyContainerPushURLStringEPNS_24PropertyContainerBuilderEyPKc, symObjAddr: 0x804, symBinAddr: 0x100024D20, symSize: 0x98 }
  - { offset: 0x67C3C, size: 0x8, addend: 0x0, symName: __ZN12dmGameObject24PropertyContainerPushURLEPNS_24PropertyContainerBuilderEyPKc, symObjAddr: 0x89C, symBinAddr: 0x100024DB8, symSize: 0x64 }
  - { offset: 0x67C46, size: 0x8, addend: 0x0, symName: __ZN12dmGameObject24PropertyContainerPushURLEPNS_24PropertyContainerBuilderEyPKc, symObjAddr: 0x89C, symBinAddr: 0x100024DB8, symSize: 0x64 }
  - { offset: 0x67CA6, size: 0x8, addend: 0x0, symName: __ZN12dmGameObject23PropertyContainerCreateEPNS_24PropertyContainerBuilderE, symObjAddr: 0x900, symBinAddr: 0x100024E1C, symSize: 0x24 }
  - { offset: 0x67CB0, size: 0x8, addend: 0x0, symName: __ZN12dmGameObject23PropertyContainerCreateEPNS_24PropertyContainerBuilderE, symObjAddr: 0x900, symBinAddr: 0x100024E1C, symSize: 0x24 }
  - { offset: 0x67CD6, size: 0x8, addend: 0x0, symName: __ZN12dmGameObject33PropertyContainerAllocateWithSizeEj, symObjAddr: 0x92C, symBinAddr: 0x100024E40, symSize: 0x60 }
  - { offset: 0x67D44, size: 0x8, addend: 0x0, symName: __ZN12dmGameObject26PropertyContainerSerializeEPNS_17PropertyContainerEPhj, symObjAddr: 0x98C, symBinAddr: 0x100024EA0, symSize: 0x74 }
  - { offset: 0x67DA2, size: 0x8, addend: 0x0, symName: __ZN12dmGameObject28PropertyContainerDeserializeEPKhjPNS_17PropertyContainerE, symObjAddr: 0xA00, symBinAddr: 0x100024F14, symSize: 0x84 }
  - { offset: 0x67DAC, size: 0x8, addend: 0x0, symName: __ZN12dmGameObject28PropertyContainerDeserializeEPKhjPNS_17PropertyContainerE, symObjAddr: 0xA00, symBinAddr: 0x100024F14, symSize: 0x84 }
  - { offset: 0x67E27, size: 0x8, addend: 0x0, symName: __ZN12dmGameObject21PropertyContainerCopyEPNS_17PropertyContainerE, symObjAddr: 0xA84, symBinAddr: 0x100024F98, symSize: 0x8C }
  - { offset: 0x67E31, size: 0x8, addend: 0x0, symName: __ZN12dmGameObject21PropertyContainerCopyEPNS_17PropertyContainerE, symObjAddr: 0xA84, symBinAddr: 0x100024F98, symSize: 0x8C }
  - { offset: 0x67F95, size: 0x8, addend: 0x0, symName: __ZN12dmGameObject22PropertyContainerMergeEPNS_17PropertyContainerES1_, symObjAddr: 0xD84, symBinAddr: 0x100025024, symSize: 0x378 }
  - { offset: 0x68208, size: 0x8, addend: 0x0, symName: __ZN12dmGameObjectL26PropertyContainerPushEntryEPNS_24PropertyContainerBuilderEPNS_17PropertyContainerEj, symObjAddr: 0x10FC, symBinAddr: 0x10002539C, symSize: 0x3F8 }
  - { offset: 0x68212, size: 0x8, addend: 0x0, symName: __ZN12dmGameObjectL26PropertyContainerPushEntryEPNS_24PropertyContainerBuilderEPNS_17PropertyContainerEj, symObjAddr: 0x10FC, symBinAddr: 0x10002539C, symSize: 0x3F8 }
  - { offset: 0x6869F, size: 0x8, addend: 0x0, symName: __ZN12dmGameObject36PropertyContainerGetPropertyCallbackEPNS_10PropertiesEmyRNS_11PropertyVarE, symObjAddr: 0x14F4, symBinAddr: 0x100025794, symSize: 0x248 }
  - { offset: 0x688F3, size: 0x8, addend: 0x0, symName: __ZN12dmGameObject36PropertyContainerGetPropertyCallbackEPNS_10PropertiesEmyRNS_11PropertyVarE, symObjAddr: 0x14F4, symBinAddr: 0x100025794, symSize: 0x248 }
  - { offset: 0x68A41, size: 0x8, addend: 0x0, symName: __ZN12dmGameObject32PropertyContainerDestroyCallbackEm, symObjAddr: 0x173C, symBinAddr: 0x1000259DC, symSize: 0xC }
  - { offset: 0x68A65, size: 0x8, addend: 0x0, symName: __ZN12dmGameObject32PropertyContainerDestroyCallbackEm, symObjAddr: 0x173C, symBinAddr: 0x1000259DC, symSize: 0xC }
  - { offset: 0x68C67, size: 0x8, addend: 0x0, symName: __ZN12dmGameObject11PropertySetC1Ev, symObjAddr: 0xC, symBinAddr: 0x1000245B8, symSize: 0xC }
  - { offset: 0x68C94, size: 0x8, addend: 0x0, symName: __ZN12dmGameObject11PropertySetC1Ev, symObjAddr: 0xC, symBinAddr: 0x1000245B8, symSize: 0xC }
  - { offset: 0x68CD5, size: 0x8, addend: 0x0, symName: __ZN12dmGameObject12PropertyDescC1Ev, symObjAddr: 0x58, symBinAddr: 0x1000245C4, symSize: 0x40 }
  - { offset: 0x68E93, size: 0x8, addend: 0x0, symName: __ZN12dmGameObject21LoadPropertyResourcesEP15ResourceFactoryPPKcjR7dmArrayIPvE.cold.1, symObjAddr: 0x1748, symBinAddr: 0x10024E2D0, symSize: 0x28 }
  - { offset: 0x68F16, size: 0x8, addend: 0x0, symName: __ZN12dmGameObject30PropertyContainerBuilderParamsC1Ev, symObjAddr: 0x460, symBinAddr: 0x10002497C, symSize: 0x10 }
  - { offset: 0x68F38, size: 0x8, addend: 0x0, symName: __ZN12dmGameObject30PropertyContainerBuilderParamsC1Ev, symObjAddr: 0x460, symBinAddr: 0x10002497C, symSize: 0x10 }
  - { offset: 0x68FB6, size: 0x8, addend: 0x0, symName: __ZN12dmGameObject26PropertyContainerPushFloatEPNS_24PropertyContainerBuilderEyf.cold.1, symObjAddr: 0x1804, symBinAddr: 0x10024E2F8, symSize: 0x24 }
  - { offset: 0x690C0, size: 0x8, addend: 0x0, symName: __ZN12dmGameObject26PropertyContainerSerializeEPNS_17PropertyContainerEPhj.cold.1, symObjAddr: 0x1924, symBinAddr: 0x10024E31C, symSize: 0x28 }
  - { offset: 0x690D8, size: 0x8, addend: 0x0, symName: __ZN12dmGameObject28PropertyContainerDeserializeEPKhjPNS_17PropertyContainerE.cold.2, symObjAddr: 0x1974, symBinAddr: 0x10024E36C, symSize: 0x28 }
  - { offset: 0x690F0, size: 0x8, addend: 0x0, symName: __ZN12dmGameObject28PropertyContainerDeserializeEPKhjPNS_17PropertyContainerE.cold.1, symObjAddr: 0x194C, symBinAddr: 0x10024E344, symSize: 0x28 }
  - { offset: 0x69128, size: 0x8, addend: 0x0, symName: __ZN12dmGameObject22PropertyContainerMergeEPNS_17PropertyContainerES1_.cold.1, symObjAddr: 0x199C, symBinAddr: 0x10024E394, symSize: 0x28 }
  - { offset: 0x69297, size: 0x8, addend: 0x0, symName: __ZN12dmGameObjectL26PropertyContainerPushEntryEPNS_24PropertyContainerBuilderEPNS_17PropertyContainerEj.cold.9, symObjAddr: 0x1B0C, symBinAddr: 0x10024E3BC, symSize: 0x28 }
  - { offset: 0x692DF, size: 0x8, addend: 0x0, symName: __ZN12dmGameObject36PropertyContainerGetPropertyCallbackEPNS_10PropertiesEmyRNS_11PropertyVarE.cold.1, symObjAddr: 0x1B34, symBinAddr: 0x10024E3E4, symSize: 0x28 }
  - { offset: 0x692F7, size: 0x8, addend: 0x0, symName: _OUTLINED_FUNCTION_0, symObjAddr: 0x1B5C, symBinAddr: 0x1000259E8, symSize: 0x8 }
  - { offset: 0x69512, size: 0x8, addend: 0x0, symName: __ZN12dmGameObject30PropertyContainerCreateFromDDFEPKN15dmPropertiesDDF20PropertyDeclarationsE, symObjAddr: 0x0, symBinAddr: 0x1000259F0, symSize: 0x310 }
  - { offset: 0x69617, size: 0x8, addend: 0x0, symName: __ZN12dmGameObject30PropertyContainerCreateFromDDFEPKN15dmPropertiesDDF20PropertyDeclarationsE, symObjAddr: 0x0, symBinAddr: 0x1000259F0, symSize: 0x310 }
  - { offset: 0x699B2, size: 0x8, addend: 0x0, symName: __ZN12dmGameObject30PropertyContainerCreateFromDDFEPKN15dmPropertiesDDF20PropertyDeclarationsE.cold.1, symObjAddr: 0x310, symBinAddr: 0x10024E40C, symSize: 0x28 }
  - { offset: 0x69ADB, size: 0x8, addend: 0x0, symName: __ZN12dmGameObject30PropertyContainerCreateFromDDFEPKN15dmPropertiesDDF20PropertyDeclarationsE.cold.1, symObjAddr: 0x310, symBinAddr: 0x10024E40C, symSize: 0x28 }
  - { offset: 0x69B08, size: 0x8, addend: 0x0, symName: __ZN12dmGameObject30PropertyContainerCreateFromDDFEPKN15dmPropertiesDDF20PropertyDeclarationsE.cold.2, symObjAddr: 0x338, symBinAddr: 0x10024E434, symSize: 0x24 }
  - { offset: 0x69B85, size: 0x8, addend: 0x0, symName: __ZN12dmGameObject30PropertyContainerCreateFromDDFEPKN15dmPropertiesDDF20PropertyDeclarationsE.cold.7, symObjAddr: 0x3EC, symBinAddr: 0x10024E458, symSize: 0x28 }
  - { offset: 0x69BB2, size: 0x8, addend: 0x0, symName: __ZN12dmGameObject30PropertyContainerCreateFromDDFEPKN15dmPropertiesDDF20PropertyDeclarationsE.cold.8, symObjAddr: 0x414, symBinAddr: 0x10024E480, symSize: 0x28 }
  - { offset: 0x69BDF, size: 0x8, addend: 0x0, symName: _OUTLINED_FUNCTION_0, symObjAddr: 0x43C, symBinAddr: 0x100025D00, symSize: 0x8 }
  - { offset: 0x69DE9, size: 0x8, addend: 0x0, symName: __ZN12dmGameObject8LuaToVarEP9lua_StateiRNS_11PropertyVarE, symObjAddr: 0x0, symBinAddr: 0x100025D08, symSize: 0x18C }
  - { offset: 0x69E0F, size: 0x8, addend: 0x0, symName: __ZN12dmGameObject8LuaToVarEP9lua_StateiRNS_11PropertyVarE, symObjAddr: 0x0, symBinAddr: 0x100025D08, symSize: 0x18C }
  - { offset: 0x69FBD, size: 0x8, addend: 0x0, symName: __ZN12dmGameObjectL15GetPropertyTypeEP9lua_StateiPPv, symObjAddr: 0x18C, symBinAddr: 0x100025E94, symSize: 0x140 }
  - { offset: 0x6A0F7, size: 0x8, addend: 0x0, symName: __ZN12dmGameObject10LuaPushVarEP9lua_StateRKNS_11PropertyVarE, symObjAddr: 0x2CC, symBinAddr: 0x100025FD4, symSize: 0x114 }
  - { offset: 0x6A2E2, size: 0x8, addend: 0x0, symName: __ZN12dmGameObject30PropertyContainerCreateFromLuaEP9lua_Statei, symObjAddr: 0x3E0, symBinAddr: 0x1000260E8, symSize: 0x314 }
  - { offset: 0x6AE8E, size: 0x8, addend: 0x0, symName: __ZN12dmGameObject30PropertyContainerCreateFromLuaEP9lua_Statei.cold.1, symObjAddr: 0x6F8, symBinAddr: 0x10024E4A8, symSize: 0x28 }
  - { offset: 0x6B0DE, size: 0x8, addend: 0x0, symName: __ZN12dmGameObject21SCRIPT_FUNCTION_NAMESE, symObjAddr: 0x57F8, symBinAddr: 0x100341CD8, symSize: 0x0 }
  - { offset: 0x6B0F7, size: 0x8, addend: 0x0, symName: __ZN12dmGameObject10g_RegisterE, symObjAddr: 0x31278, symBinAddr: 0x100368C20, symSize: 0x0 }
  - { offset: 0x6B6CD, size: 0x8, addend: 0x0, symName: __ZN12dmGameObjectL24SCRIPTINSTANCE_TYPE_HASHE, symObjAddr: 0x31280, symBinAddr: 0x100358298, symSize: 0x0 }
  - { offset: 0x6B6E6, size: 0x8, addend: 0x0, symName: __ZN12dmGameObjectL14Script_methodsE, symObjAddr: 0x5838, symBinAddr: 0x1002641B0, symSize: 0x0 }
  - { offset: 0x6B6FF, size: 0x8, addend: 0x0, symName: __ZN12dmGameObjectL11Script_metaE, symObjAddr: 0x5858, symBinAddr: 0x1002C0FE8, symSize: 0x0 }
  - { offset: 0x6B718, size: 0x8, addend: 0x0, symName: __ZN12dmGameObjectL16SCRIPT_TYPE_HASHE, symObjAddr: 0x31284, symBinAddr: 0x10035829C, symSize: 0x0 }
  - { offset: 0x6B733, size: 0x8, addend: 0x0, symName: __ZN12dmGameObjectL22ScriptInstance_methodsE, symObjAddr: 0x5848, symBinAddr: 0x1002641C0, symSize: 0x0 }
  - { offset: 0x6B74E, size: 0x8, addend: 0x0, symName: __ZN12dmGameObjectL19ScriptInstance_metaE, symObjAddr: 0x5898, symBinAddr: 0x1002C1028, symSize: 0x0 }
  - { offset: 0x6B769, size: 0x8, addend: 0x0, symName: __ZN12dmGameObjectL10GO_methodsE, symObjAddr: 0x5948, symBinAddr: 0x1002C10D8, symSize: 0x0 }
  - { offset: 0x6B8EF, size: 0x8, addend: 0x0, symName: __ZN12dmGameObject19GetComponentFromLuaEP9lua_StateiPNS_16CollectionHandleEPKcPPvPN9dmMessage3URLES7_, symObjAddr: 0x90, symBinAddr: 0x100026444, symSize: 0x1F4 }
  - { offset: 0x6BC43, size: 0x8, addend: 0x0, symName: __ZN12dmGameObject18GetInstanceFromLuaEP9lua_State, symObjAddr: 0x284, symBinAddr: 0x100026638, symSize: 0x34 }
  - { offset: 0x6BC9D, size: 0x8, addend: 0x0, symName: __ZN12dmGameObject17PostScriptMessageEPKN5dmDDF10DescriptorEPKhjPKN9dmMessage3URLES9_ib, symObjAddr: 0x2B8, symBinAddr: 0x10002666C, symSize: 0x1A8 }
  - { offset: 0x6BF52, size: 0x8, addend: 0x0, symName: __ZN12dmGameObject22PostScriptUnrefMessageEPKN9dmMessage3URLES3_i, symObjAddr: 0x460, symBinAddr: 0x100026814, symSize: 0x100 }
  - { offset: 0x6C112, size: 0x8, addend: 0x0, symName: __ZN12dmGameObject10Script_GetEP9lua_State, symObjAddr: 0x560, symBinAddr: 0x100026914, symSize: 0x310 }
  - { offset: 0x6C65E, size: 0x8, addend: 0x0, symName: __ZN12dmGameObject10Script_SetEP9lua_State, symObjAddr: 0x870, symBinAddr: 0x100026C24, symSize: 0x330 }
  - { offset: 0x6CC18, size: 0x8, addend: 0x0, symName: __ZN12dmGameObject18Script_GetPositionEP9lua_State, symObjAddr: 0xBA0, symBinAddr: 0x100026F54, symSize: 0x54 }
  - { offset: 0x6CD23, size: 0x8, addend: 0x0, symName: __ZN12dmGameObjectL15ResolveInstanceEP9lua_Statei, symObjAddr: 0xBF4, symBinAddr: 0x100026FA8, symSize: 0x114 }
  - { offset: 0x6CF2B, size: 0x8, addend: 0x0, symName: __ZN12dmGameObject18Script_GetRotationEP9lua_State, symObjAddr: 0xD08, symBinAddr: 0x1000270BC, symSize: 0x44 }
  - { offset: 0x6CFC8, size: 0x8, addend: 0x0, symName: __ZN12dmGameObject22Script_GetScaleUniformEP9lua_State, symObjAddr: 0xD4C, symBinAddr: 0x100027100, symSize: 0x38 }
  - { offset: 0x6D058, size: 0x8, addend: 0x0, symName: __ZN12dmGameObject18Script_SetPositionEP9lua_State, symObjAddr: 0xD84, symBinAddr: 0x100027138, symSize: 0x5C }
  - { offset: 0x6D18D, size: 0x8, addend: 0x0, symName: __ZN12dmGameObject18Script_SetRotationEP9lua_State, symObjAddr: 0xDE0, symBinAddr: 0x100027194, symSize: 0x54 }
  - { offset: 0x6D287, size: 0x8, addend: 0x0, symName: __ZN12dmGameObject16Script_SetParentEP9lua_State, symObjAddr: 0xE34, symBinAddr: 0x1000271E8, symSize: 0x25C }
  - { offset: 0x6D68C, size: 0x8, addend: 0x0, symName: __ZN12dmGameObject16Script_GetParentEP9lua_State, symObjAddr: 0x1090, symBinAddr: 0x100027444, symSize: 0x48 }
  - { offset: 0x6D740, size: 0x8, addend: 0x0, symName: __ZN12dmGameObject23Script_GetWorldPositionEP9lua_State, symObjAddr: 0x10D8, symBinAddr: 0x10002748C, symSize: 0x54 }
  - { offset: 0x6D860, size: 0x8, addend: 0x0, symName: __ZN12dmGameObject23Script_GetWorldRotationEP9lua_State, symObjAddr: 0x112C, symBinAddr: 0x1000274E0, symSize: 0x44 }
  - { offset: 0x6D8FD, size: 0x8, addend: 0x0, symName: __ZN12dmGameObject20Script_GetWorldScaleEP9lua_State, symObjAddr: 0x1170, symBinAddr: 0x100027524, symSize: 0x44 }
  - { offset: 0x6D99A, size: 0x8, addend: 0x0, symName: __ZN12dmGameObject27Script_GetWorldScaleUniformEP9lua_State, symObjAddr: 0x11B4, symBinAddr: 0x100027568, symSize: 0x38 }
  - { offset: 0x6DA2A, size: 0x8, addend: 0x0, symName: __ZN12dmGameObject24Script_GetWorldTransformEP9lua_State, symObjAddr: 0x11EC, symBinAddr: 0x1000275A0, symSize: 0x38 }
  - { offset: 0x6DABA, size: 0x8, addend: 0x0, symName: __ZN12dmGameObject12Script_GetIdEP9lua_State, symObjAddr: 0x1224, symBinAddr: 0x1000275D8, symSize: 0x94 }
  - { offset: 0x6DC0A, size: 0x8, addend: 0x0, symName: __ZN12dmGameObject15LuaCurveReleaseEPN8dmEasing5CurveE, symObjAddr: 0x12B8, symBinAddr: 0x10002766C, symSize: 0x60 }
  - { offset: 0x6DCA4, size: 0x8, addend: 0x0, symName: __ZN12dmGameObject14Script_AnimateEP9lua_State, symObjAddr: 0x1318, symBinAddr: 0x1000276CC, symSize: 0x50C }
  - { offset: 0x6DCAE, size: 0x8, addend: 0x0, symName: __ZN12dmGameObject14Script_AnimateEP9lua_State, symObjAddr: 0x1318, symBinAddr: 0x1000276CC, symSize: 0x50C }
  - { offset: 0x6E464, size: 0x8, addend: 0x0, symName: __ZN12dmGameObjectL19LuaAnimationStoppedEPNS_8InstanceEyybPvS2_, symObjAddr: 0x1824, symBinAddr: 0x100027BD8, symSize: 0x8C }
  - { offset: 0x6E5C6, size: 0x8, addend: 0x0, symName: __ZN12dmGameObject23Script_CancelAnimationsEP9lua_State, symObjAddr: 0x18B0, symBinAddr: 0x100027C64, symSize: 0x2E0 }
  - { offset: 0x6EAEC, size: 0x8, addend: 0x0, symName: __ZN12dmGameObject15Script_PropertyEP9lua_State, symObjAddr: 0x1B90, symBinAddr: 0x100027F44, symSize: 0x170 }
  - { offset: 0x6ED38, size: 0x8, addend: 0x0, symName: __ZN12dmGameObject13Script_ExistsEP9lua_State, symObjAddr: 0x1D00, symBinAddr: 0x1000280B4, symSize: 0x168 }
  - { offset: 0x6ED42, size: 0x8, addend: 0x0, symName: __ZN12dmGameObject13Script_ExistsEP9lua_State, symObjAddr: 0x1D00, symBinAddr: 0x1000280B4, symSize: 0x168 }
  - { offset: 0x6F070, size: 0x8, addend: 0x0, symName: __ZN12dmGameObject27Script_WorldToLocalPositionEP9lua_State, symObjAddr: 0x1E68, symBinAddr: 0x10002821C, symSize: 0xBC }
  - { offset: 0x6F2E4, size: 0x8, addend: 0x0, symName: __ZN12dmGameObject28Script_WorldToLocalTransfromEP9lua_State, symObjAddr: 0x1F24, symBinAddr: 0x1000282D8, symSize: 0x100 }
  - { offset: 0x6F687, size: 0x8, addend: 0x0, symName: __ZN12dmGameObject16InitializeScriptEPNS_8RegisterEPN8dmScript7ContextE, symObjAddr: 0x2024, symBinAddr: 0x1000283D8, symSize: 0x6F0 }
  - { offset: 0x6FEEB, size: 0x8, addend: 0x0, symName: __ZN12dmGameObject9NewScriptEP9lua_StatePN8dmLuaDDF9LuaModuleE, symObjAddr: 0x2714, symBinAddr: 0x100028AC8, symSize: 0xEC }
  - { offset: 0x6FF1D, size: 0x8, addend: 0x0, symName: __ZN12dmGameObject9NewScriptEP9lua_StatePN8dmLuaDDF9LuaModuleE, symObjAddr: 0x2714, symBinAddr: 0x100028AC8, symSize: 0xEC }
  - { offset: 0x70054, size: 0x8, addend: 0x0, symName: __ZN12dmGameObjectL10LoadScriptEP9lua_StatePN8dmLuaDDF9LuaSourceEPNS_6ScriptE, symObjAddr: 0x2B3C, symBinAddr: 0x100028EF0, symSize: 0x26C }
  - { offset: 0x703D3, size: 0x8, addend: 0x0, symName: __ZN12dmGameObject12DeleteScriptEPNS_6ScriptE, symObjAddr: 0x2DA8, symBinAddr: 0x10002915C, symSize: 0x140 }
  - { offset: 0x703DD, size: 0x8, addend: 0x0, symName: __ZN12dmGameObject12DeleteScriptEPNS_6ScriptE, symObjAddr: 0x2DA8, symBinAddr: 0x10002915C, symSize: 0x140 }
  - { offset: 0x70597, size: 0x8, addend: 0x0, symName: __ZN12dmGameObjectL18GetPropertyDefaultEPNS_10PropertiesEmyRNS_11PropertyVarE, symObjAddr: 0x2800, symBinAddr: 0x100028BB4, symSize: 0x33C }
  - { offset: 0x70A7E, size: 0x8, addend: 0x0, symName: __ZN12dmGameObjectL10LoadScriptEP9lua_StatePN8dmLuaDDF9LuaSourceEPNS_6ScriptE, symObjAddr: 0x2B3C, symBinAddr: 0x100028EF0, symSize: 0x26C }
  - { offset: 0x70A89, size: 0x8, addend: 0x0, symName: __ZN12dmGameObject12ReloadScriptEPNS_6ScriptEPN8dmLuaDDF9LuaModuleE, symObjAddr: 0x2EE8, symBinAddr: 0x10002929C, symSize: 0x10 }
  - { offset: 0x70B07, size: 0x8, addend: 0x0, symName: __ZN12dmGameObject17NewScriptInstanceEPNS_15CompScriptWorldEPNS_6ScriptEPNS_8InstanceEt, symObjAddr: 0x2EF8, symBinAddr: 0x1000292AC, symSize: 0x1A8 }
  - { offset: 0x70D66, size: 0x8, addend: 0x0, symName: __ZN12dmGameObjectL27ScriptInstanceResolvePathCBEmPKc, symObjAddr: 0x30A0, symBinAddr: 0x100029454, symSize: 0x20 }
  - { offset: 0x70DA0, size: 0x8, addend: 0x0, symName: __ZN12dmGameObjectL27ScriptInstanceResolvePathCBEmPKc, symObjAddr: 0x30A0, symBinAddr: 0x100029454, symSize: 0x20 }
  - { offset: 0x70DFA, size: 0x8, addend: 0x0, symName: __ZN12dmGameObjectL22ScriptInstanceGetURLCBEP9lua_StatePN9dmMessage3URLE, symObjAddr: 0x30C0, symBinAddr: 0x100029474, symSize: 0x9C }
  - { offset: 0x70F2D, size: 0x8, addend: 0x0, symName: __ZN12dmGameObject20DeleteScriptInstanceEPNS_14ScriptInstanceE, symObjAddr: 0x315C, symBinAddr: 0x100029510, symSize: 0xE8 }
  - { offset: 0x710A7, size: 0x8, addend: 0x0, symName: __ZN12dmGameObject20PropertiesToLuaTableEPNS_8InstanceEPNS_6ScriptEPNS_10PropertiesEP9lua_Statei, symObjAddr: 0x3244, symBinAddr: 0x1000295F8, symSize: 0x504 }
  - { offset: 0x710D9, size: 0x8, addend: 0x0, symName: __ZN12dmGameObject20PropertiesToLuaTableEPNS_8InstanceEPNS_6ScriptEPNS_10PropertiesEP9lua_Statei, symObjAddr: 0x3244, symBinAddr: 0x1000295F8, symSize: 0x504 }
  - { offset: 0x71800, size: 0x8, addend: 0x0, symName: __ZN12dmGameObjectL27LuaAnimationStoppedCallbackEP9lua_StatePv, symObjAddr: 0x3748, symBinAddr: 0x100029AFC, symSize: 0x2C }
  - { offset: 0x71875, size: 0x8, addend: 0x0, symName: __ZN12dmGameObjectL12ScriptGetURLEP9lua_State, symObjAddr: 0x3774, symBinAddr: 0x100029B28, symSize: 0x44 }
  - { offset: 0x71917, size: 0x8, addend: 0x0, symName: __ZN12dmGameObjectL17ScriptResolvePathEP9lua_State, symObjAddr: 0x37B8, symBinAddr: 0x100029B6C, symSize: 0x3C }
  - { offset: 0x71994, size: 0x8, addend: 0x0, symName: __ZN12dmGameObjectL13ScriptIsValidEP9lua_State, symObjAddr: 0x37F4, symBinAddr: 0x100029BA8, symSize: 0x48 }
  - { offset: 0x719FF, size: 0x8, addend: 0x0, symName: __ZN12dmGameObjectL23ScriptInstance_tostringEP9lua_State, symObjAddr: 0x383C, symBinAddr: 0x100029BF0, symSize: 0x44 }
  - { offset: 0x71A5B, size: 0x8, addend: 0x0, symName: __ZN12dmGameObjectL20ScriptInstance_indexEP9lua_State, symObjAddr: 0x3880, symBinAddr: 0x100029C34, symSize: 0x58 }
  - { offset: 0x71AF5, size: 0x8, addend: 0x0, symName: __ZN12dmGameObjectL23ScriptInstance_newindexEP9lua_State, symObjAddr: 0x38D8, symBinAddr: 0x100029C8C, symSize: 0x90 }
  - { offset: 0x71B00, size: 0x8, addend: 0x0, symName: __ZN12dmGameObjectL23ScriptInstance_newindexEP9lua_State, symObjAddr: 0x38D8, symBinAddr: 0x100029C8C, symSize: 0x90 }
  - { offset: 0x71C0F, size: 0x8, addend: 0x0, symName: __ZN12dmGameObjectL20ScriptInstanceGetURLEP9lua_State, symObjAddr: 0x3968, symBinAddr: 0x100029D1C, symSize: 0x80 }
  - { offset: 0x71C1A, size: 0x8, addend: 0x0, symName: __ZN12dmGameObjectL20ScriptInstanceGetURLEP9lua_State, symObjAddr: 0x3968, symBinAddr: 0x100029D1C, symSize: 0x80 }
  - { offset: 0x71CF3, size: 0x8, addend: 0x0, symName: __ZN12dmGameObjectL25ScriptInstanceGetUserDataEP9lua_State, symObjAddr: 0x39E8, symBinAddr: 0x100029D9C, symSize: 0x34 }
  - { offset: 0x71D61, size: 0x8, addend: 0x0, symName: __ZN12dmGameObjectL25ScriptInstanceResolvePathEP9lua_State, symObjAddr: 0x3A1C, symBinAddr: 0x100029DD0, symSize: 0x6C }
  - { offset: 0x71E0A, size: 0x8, addend: 0x0, symName: __ZN12dmGameObjectL21ScriptInstanceIsValidEP9lua_State, symObjAddr: 0x3A88, symBinAddr: 0x100029E3C, symSize: 0x48 }
  - { offset: 0x71E78, size: 0x8, addend: 0x0, symName: __ZN12dmGameObjectL32ScriptGetInstanceContextTableRefEP9lua_State, symObjAddr: 0x3AD0, symBinAddr: 0x100029E84, symSize: 0x78 }
  - { offset: 0x71F04, size: 0x8, addend: 0x0, symName: __ZN12dmGameObjectL29ScriptGetInstanceDataTableRefEP9lua_State, symObjAddr: 0x3B48, symBinAddr: 0x100029EFC, symSize: 0x78 }
  - { offset: 0x71F80, size: 0x8, addend: 0x0, symName: __ZN12dmGameObjectL23ScriptGetUniqueScriptIdEP9lua_State, symObjAddr: 0x3BC0, symBinAddr: 0x100029F74, symSize: 0x34 }
  - { offset: 0x71FED, size: 0x8, addend: 0x0, symName: __ZN12dmGameObjectL15Script_GetScaleEP9lua_State, symObjAddr: 0x3BF4, symBinAddr: 0x100029FA8, symSize: 0x44 }
  - { offset: 0x7209C, size: 0x8, addend: 0x0, symName: __ZN12dmGameObjectL21Script_GetScaleVectorEP9lua_State, symObjAddr: 0x3C38, symBinAddr: 0x100029FEC, symSize: 0x44 }
  - { offset: 0x7213A, size: 0x8, addend: 0x0, symName: __ZN12dmGameObjectL15Script_SetScaleEP9lua_State, symObjAddr: 0x3C7C, symBinAddr: 0x10002A030, symSize: 0xC8 }
  - { offset: 0x722D7, size: 0x8, addend: 0x0, symName: __ZN12dmGameObjectL17Script_SetScaleXYEP9lua_State, symObjAddr: 0x3D44, symBinAddr: 0x10002A0F8, symSize: 0xA4 }
  - { offset: 0x72418, size: 0x8, addend: 0x0, symName: __ZN12dmGameObjectL27Script_UpdateWorldTransformEP9lua_State, symObjAddr: 0x3DE8, symBinAddr: 0x10002A19C, symSize: 0x64 }
  - { offset: 0x72524, size: 0x8, addend: 0x0, symName: __ZN12dmGameObjectL13Script_DeleteEP9lua_State, symObjAddr: 0x3E4C, symBinAddr: 0x10002A200, symSize: 0x3C0 }
  - { offset: 0x72A40, size: 0x8, addend: 0x0, symName: __ZN12dmGameObjectL16Script_DeleteAllEP9lua_State, symObjAddr: 0x420C, symBinAddr: 0x10002A5C0, symSize: 0x4 }
  - { offset: 0x72A70, size: 0x8, addend: 0x0, symName: __ZN12dmGameObjectL16Script_DeleteAllEP9lua_State, symObjAddr: 0x420C, symBinAddr: 0x10002A5C0, symSize: 0x4 }
  - { offset: 0x73C1A, size: 0x8, addend: 0x0, symName: __ZN12dmGameObject15CompScriptWorldC1Ej, symObjAddr: 0x48, symBinAddr: 0x1000263FC, symSize: 0x48 }
  - { offset: 0x744C4, size: 0x8, addend: 0x0, symName: __ZN12dmGameObject15LuaCurveReleaseEPN8dmEasing5CurveE.cold.1, symObjAddr: 0x4210, symBinAddr: 0x10024E4D0, symSize: 0x28 }
  - { offset: 0x74542, size: 0x8, addend: 0x0, symName: __ZN12dmGameObject14Script_AnimateEP9lua_State.cold.1, symObjAddr: 0x4238, symBinAddr: 0x10024E4F8, symSize: 0x28 }
  - { offset: 0x745CB, size: 0x8, addend: 0x0, symName: __ZN12dmGameObject23Script_CancelAnimationsEP9lua_State.cold.1, symObjAddr: 0x4260, symBinAddr: 0x10024E520, symSize: 0x28 }
  - { offset: 0x745FF, size: 0x8, addend: 0x0, symName: __ZN12dmGameObject15Script_PropertyEP9lua_State.cold.1, symObjAddr: 0x4288, symBinAddr: 0x10024E548, symSize: 0x28 }
  - { offset: 0x7462D, size: 0x8, addend: 0x0, symName: __ZN12dmGameObject15Script_PropertyEP9lua_State.cold.2, symObjAddr: 0x42B0, symBinAddr: 0x10024E570, symSize: 0x28 }
  - { offset: 0x74942, size: 0x8, addend: 0x0, symName: __ZN12dmGameObject16InitializeScriptEPNS_8RegisterEPN8dmScript7ContextE.cold.1, symObjAddr: 0x42D8, symBinAddr: 0x10024E598, symSize: 0x28 }
  - { offset: 0x74B26, size: 0x8, addend: 0x0, symName: __ZN12dmGameObjectL18GetPropertyDefaultEPNS_10PropertiesEmyRNS_11PropertyVarE.cold.2, symObjAddr: 0x4324, symBinAddr: 0x10024E5C0, symSize: 0x28 }
  - { offset: 0x74B54, size: 0x8, addend: 0x0, symName: __ZN12dmGameObjectL18GetPropertyDefaultEPNS_10PropertiesEmyRNS_11PropertyVarE.cold.4, symObjAddr: 0x4374, symBinAddr: 0x10024E5E8, symSize: 0x28 }
  - { offset: 0x74B97, size: 0x8, addend: 0x0, symName: __ZN12dmGameObjectL18GetPropertyDefaultEPNS_10PropertiesEmyRNS_11PropertyVarE.cold.8, symObjAddr: 0x4410, symBinAddr: 0x10024E610, symSize: 0x28 }
  - { offset: 0x74BC5, size: 0x8, addend: 0x0, symName: __ZN12dmGameObjectL18GetPropertyDefaultEPNS_10PropertiesEmyRNS_11PropertyVarE.cold.10, symObjAddr: 0x445C, symBinAddr: 0x10024E638, symSize: 0x28 }
  - { offset: 0x74BF3, size: 0x8, addend: 0x0, symName: __ZN12dmGameObjectL18GetPropertyDefaultEPNS_10PropertiesEmyRNS_11PropertyVarE.cold.12, symObjAddr: 0x44A8, symBinAddr: 0x10024E660, symSize: 0x28 }
  - { offset: 0x74C21, size: 0x8, addend: 0x0, symName: __ZN12dmGameObjectL18GetPropertyDefaultEPNS_10PropertiesEmyRNS_11PropertyVarE.cold.14, symObjAddr: 0x44F4, symBinAddr: 0x10024E688, symSize: 0x28 }
  - { offset: 0x74CE9, size: 0x8, addend: 0x0, symName: __ZN12dmGameObjectL10LoadScriptEP9lua_StatePN8dmLuaDDF9LuaSourceEPNS_6ScriptE.cold.1, symObjAddr: 0x451C, symBinAddr: 0x10024E6B0, symSize: 0x28 }
  - { offset: 0x74D89, size: 0x8, addend: 0x0, symName: __ZN12dmGameObject17NewScriptInstanceEPNS_15CompScriptWorldEPNS_6ScriptEPNS_8InstanceEt.cold.1, symObjAddr: 0x4544, symBinAddr: 0x10024E6D8, symSize: 0x28 }
  - { offset: 0x74DA1, size: 0x8, addend: 0x0, symName: __ZN12dmGameObject20DeleteScriptInstanceEPNS_14ScriptInstanceE.cold.1, symObjAddr: 0x456C, symBinAddr: 0x10024E700, symSize: 0x28 }
  - { offset: 0x74FE2, size: 0x8, addend: 0x0, symName: __ZN12dmGameObjectL20ScriptInstance_indexEP9lua_State.cold.1, symObjAddr: 0x46AC, symBinAddr: 0x10024E728, symSize: 0x28 }
  - { offset: 0x74FFA, size: 0x8, addend: 0x0, symName: __ZN12dmGameObjectL23ScriptInstance_newindexEP9lua_State.cold.2, symObjAddr: 0x46FC, symBinAddr: 0x10024E778, symSize: 0x28 }
  - { offset: 0x75012, size: 0x8, addend: 0x0, symName: __ZN12dmGameObjectL23ScriptInstance_newindexEP9lua_State.cold.1, symObjAddr: 0x46D4, symBinAddr: 0x10024E750, symSize: 0x28 }
  - { offset: 0x750AC, size: 0x8, addend: 0x0, symName: __ZN12dmGameObjectL13Script_DeleteEP9lua_State.cold.1, symObjAddr: 0x4724, symBinAddr: 0x10024E7A0, symSize: 0x28 }
  - { offset: 0x752D2, size: 0x8, addend: 0x0, symName: __ZN12dmGameObject18RegisterSubModulesEP15ResourceFactoryPN8dmScript7ContextEPN8dmLuaDDF9LuaModuleE, symObjAddr: 0x0, symBinAddr: 0x10002A5C4, symSize: 0x13C }
  - { offset: 0x75303, size: 0x8, addend: 0x0, symName: __ZN12dmGameObjectL10TYPE_NAMESE, symObjAddr: 0xE68, symBinAddr: 0x1002C12A8, symSize: 0x0 }
  - { offset: 0x75311, size: 0x8, addend: 0x0, symName: __ZN12dmGameObject18RegisterSubModulesEP15ResourceFactoryPN8dmScript7ContextEPN8dmLuaDDF9LuaModuleE, symObjAddr: 0x0, symBinAddr: 0x10002A5C4, symSize: 0x13C }
  - { offset: 0x7551B, size: 0x8, addend: 0x0, symName: __ZN12dmGameObject7LuaLoadEP15ResourceFactoryPN8dmScript7ContextEPN8dmLuaDDF9LuaModuleE, symObjAddr: 0x13C, symBinAddr: 0x10002A700, symSize: 0x8C }
  - { offset: 0x75526, size: 0x8, addend: 0x0, symName: __ZN12dmGameObject7LuaLoadEP15ResourceFactoryPN8dmScript7ContextEPN8dmLuaDDF9LuaModuleE, symObjAddr: 0x13C, symBinAddr: 0x10002A700, symSize: 0x8C }
  - { offset: 0x7560C, size: 0x8, addend: 0x0, symName: __ZN12dmGameObject20LuaToPropertyOptionsEP9lua_StateiPNS_15PropertyOptionsEyPb, symObjAddr: 0x1C8, symBinAddr: 0x10002A78C, symSize: 0x158 }
  - { offset: 0x7579A, size: 0x8, addend: 0x0, symName: __ZN12dmGameObject22CheckGetPropertyResultEP9lua_StatePKcNS_14PropertyResultERKNS_12PropertyDescEyRKN9dmMessage3URLERKNS_15PropertyOptionsEb, symObjAddr: 0x320, symBinAddr: 0x10002A8E4, symSize: 0x2B8 }
  - { offset: 0x75A53, size: 0x8, addend: 0x0, symName: __ZN12dmGameObject17HandleGoSetResultEP9lua_StateNS_14PropertyResultEyPNS_8InstanceERKN9dmMessage3URLERKNS_15PropertyOptionsE, symObjAddr: 0x5D8, symBinAddr: 0x10002AB9C, symSize: 0x2FC }
  - { offset: 0x765A3, size: 0x8, addend: 0x0, symName: __ZN12dmGameObject18RegisterSubModulesEP15ResourceFactoryPN8dmScript7ContextEPN8dmLuaDDF9LuaModuleE.cold.1, symObjAddr: 0x8D4, symBinAddr: 0x10024E7C8, symSize: 0x28 }
  - { offset: 0x765D0, size: 0x8, addend: 0x0, symName: __ZN12dmGameObject18RegisterSubModulesEP15ResourceFactoryPN8dmScript7ContextEPN8dmLuaDDF9LuaModuleE.cold.2, symObjAddr: 0x8FC, symBinAddr: 0x10024E7F0, symSize: 0x28 }
  - { offset: 0x765FD, size: 0x8, addend: 0x0, symName: __ZN12dmGameObject18RegisterSubModulesEP15ResourceFactoryPN8dmScript7ContextEPN8dmLuaDDF9LuaModuleE.cold.3, symObjAddr: 0x924, symBinAddr: 0x10024E818, symSize: 0x28 }
  - { offset: 0x76A89, size: 0x8, addend: 0x0, symName: _ResourceTypeAnim, symObjAddr: 0x0, symBinAddr: 0x10002AE98, symSize: 0x24 }
  - { offset: 0x76AA4, size: 0x8, addend: 0x0, symName: _ResourceTypeAnim35, symObjAddr: 0x1BF0, symBinAddr: 0x100368C30, symSize: 0x0 }
  - { offset: 0x76C31, size: 0x8, addend: 0x0, symName: _ResourceTypeAnim, symObjAddr: 0x0, symBinAddr: 0x10002AE98, symSize: 0x24 }
  - { offset: 0x76CF1, size: 0x8, addend: 0x0, symName: __ZN12dmGameObjectL24RegisterResourceTypeAnimEP19ResourceTypeContextP12ResourceType, symObjAddr: 0x24, symBinAddr: 0x10002AEBC, symSize: 0x24 }
  - { offset: 0x76D5A, size: 0x8, addend: 0x0, symName: __ZN12dmGameObjectL13ResAnimCreateEPK20ResourceCreateParams, symObjAddr: 0x48, symBinAddr: 0x10002AEE0, symSize: 0x8 }
  - { offset: 0x76D84, size: 0x8, addend: 0x0, symName: __ZN12dmGameObjectL14ResAnimDestroyEPK21ResourceDestroyParams, symObjAddr: 0x50, symBinAddr: 0x10002AEE8, symSize: 0x8 }
  - { offset: 0x7712C, size: 0x8, addend: 0x0, symName: _ResourceTypeCollection, symObjAddr: 0x0, symBinAddr: 0x10002AEF0, symSize: 0x24 }
  - { offset: 0x77148, size: 0x8, addend: 0x0, symName: _ResourceTypeCollection369, symObjAddr: 0x18220, symBinAddr: 0x100368CB0, symSize: 0x0 }
  - { offset: 0x778C0, size: 0x8, addend: 0x0, symName: __ZN12dmGameObjectL30RegisterResourceTypeCollectionEP19ResourceTypeContextP12ResourceType, symObjAddr: 0x24, symBinAddr: 0x10002AF14, symSize: 0x6C }
  - { offset: 0x7794E, size: 0x8, addend: 0x0, symName: __ZN12dmGameObjectL20ResCollectionPreloadEPK21ResourcePreloadParams, symObjAddr: 0x90, symBinAddr: 0x10002AF80, symSize: 0xC0 }
  - { offset: 0x77959, size: 0x8, addend: 0x0, symName: __ZN12dmGameObjectL20ResCollectionPreloadEPK21ResourcePreloadParams, symObjAddr: 0x90, symBinAddr: 0x10002AF80, symSize: 0xC0 }
  - { offset: 0x77A88, size: 0x8, addend: 0x0, symName: __ZN12dmGameObjectL19ResCollectionCreateEPK20ResourceCreateParams, symObjAddr: 0x150, symBinAddr: 0x10002B040, symSize: 0xDC }
  - { offset: 0x77C05, size: 0x8, addend: 0x0, symName: __ZN12dmGameObjectL16AcquireResourcesEPKcP15ResourceFactoryPNS_8RegisterEPN15dmGameObjectDDF14CollectionDescES1_PPNS_16CollectionHandleE, symObjAddr: 0x478, symBinAddr: 0x10002B368, symSize: 0x658 }
  - { offset: 0x7851A, size: 0x8, addend: 0x0, symName: __ZN12dmGameObjectL20ResCollectionDestroyEPK21ResourceDestroyParams, symObjAddr: 0x22C, symBinAddr: 0x10002B11C, symSize: 0x44 }
  - { offset: 0x785AF, size: 0x8, addend: 0x0, symName: __ZN12dmGameObjectL21ResCollectionRecreateEPK22ResourceRecreateParams, symObjAddr: 0x270, symBinAddr: 0x10002B160, symSize: 0x208 }
  - { offset: 0x79818, size: 0x8, addend: 0x0, symName: _ResourceTypeCollection, symObjAddr: 0x0, symBinAddr: 0x10002AEF0, symSize: 0x24 }
  - { offset: 0x79B2E, size: 0x8, addend: 0x0, symName: __ZN12dmGameObjectL30RegisterResourceTypeCollectionEP19ResourceTypeContextP12ResourceType.cold.1, symObjAddr: 0xAD0, symBinAddr: 0x10024E840, symSize: 0x28 }
  - { offset: 0x79FB0, size: 0x8, addend: 0x0, symName: __ZN12dmGameObjectL16AcquireResourcesEPKcP15ResourceFactoryPNS_8RegisterEPN15dmGameObjectDDF14CollectionDescES1_PPNS_16CollectionHandleE.cold.8, symObjAddr: 0xBF8, symBinAddr: 0x10024E868, symSize: 0x28 }
  - { offset: 0x7A1DE, size: 0x8, addend: 0x0, symName: _ResourceTypeGameObject, symObjAddr: 0x0, symBinAddr: 0x10002B9C0, symSize: 0x24 }
  - { offset: 0x7A1F9, size: 0x8, addend: 0x0, symName: _ResourceTypeGameObject230, symObjAddr: 0x14A10, symBinAddr: 0x100368D30, symSize: 0x0 }
  - { offset: 0x7A8C6, size: 0x8, addend: 0x0, symName: __ZN12dmGameObjectL30RegisterResourceTypeGameObjectEP19ResourceTypeContextP12ResourceType, symObjAddr: 0x24, symBinAddr: 0x10002B9E4, symSize: 0x6C }
  - { offset: 0x7A950, size: 0x8, addend: 0x0, symName: __ZN12dmGameObjectL20ResGameObjectPreloadEPK21ResourcePreloadParams, symObjAddr: 0x90, symBinAddr: 0x10002BA50, symSize: 0xE0 }
  - { offset: 0x7A95B, size: 0x8, addend: 0x0, symName: __ZN12dmGameObjectL20ResGameObjectPreloadEPK21ResourcePreloadParams, symObjAddr: 0x90, symBinAddr: 0x10002BA50, symSize: 0xE0 }
  - { offset: 0x7AADA, size: 0x8, addend: 0x0, symName: __ZN12dmGameObjectL19ResGameObjectCreateEPK20ResourceCreateParams, symObjAddr: 0x170, symBinAddr: 0x10002BB30, symSize: 0xF8 }
  - { offset: 0x7AC8D, size: 0x8, addend: 0x0, symName: __ZN12dmGameObjectL16AcquireResourcesEP15ResourceFactoryPNS_8RegisterEPN15dmGameObjectDDF13PrototypeDescEPNS_9PrototypeEPKc, symObjAddr: 0x44C, symBinAddr: 0x10002BE0C, symSize: 0x300 }
  - { offset: 0x7B24B, size: 0x8, addend: 0x0, symName: __ZN12dmGameObjectL20ResGameObjectDestroyEPK21ResourceDestroyParams, symObjAddr: 0x268, symBinAddr: 0x10002BC28, symSize: 0x98 }
  - { offset: 0x7B321, size: 0x8, addend: 0x0, symName: __ZN12dmGameObjectL21ResGameObjectRecreateEPK22ResourceRecreateParams, symObjAddr: 0x300, symBinAddr: 0x10002BCC0, symSize: 0x14C }
  - { offset: 0x7BACF, size: 0x8, addend: 0x0, symName: _ResourceTypeGameObject, symObjAddr: 0x0, symBinAddr: 0x10002B9C0, symSize: 0x24 }
  - { offset: 0x7BDE4, size: 0x8, addend: 0x0, symName: __ZN12dmGameObjectL30RegisterResourceTypeGameObjectEP19ResourceTypeContextP12ResourceType.cold.1, symObjAddr: 0x74C, symBinAddr: 0x10024E890, symSize: 0x28 }
  - { offset: 0x7C1AA, size: 0x8, addend: 0x0, symName: __ZN12dmGameObjectL16AcquireResourcesEP15ResourceFactoryPNS_8RegisterEPN15dmGameObjectDDF13PrototypeDescEPNS_9PrototypeEPKc.cold.1, symObjAddr: 0x774, symBinAddr: 0x10024E8B8, symSize: 0x28 }
  - { offset: 0x7C1C2, size: 0x8, addend: 0x0, symName: __ZN12dmGameObjectL16AcquireResourcesEP15ResourceFactoryPNS_8RegisterEPN15dmGameObjectDDF13PrototypeDescEPNS_9PrototypeEPKc.cold.2, symObjAddr: 0x79C, symBinAddr: 0x10024E8E0, symSize: 0x28 }
  - { offset: 0x7C1DA, size: 0x8, addend: 0x0, symName: __ZN12dmGameObjectL16AcquireResourcesEP15ResourceFactoryPNS_8RegisterEPN15dmGameObjectDDF13PrototypeDescEPNS_9PrototypeEPKc.cold.3, symObjAddr: 0x7C4, symBinAddr: 0x10024E908, symSize: 0x4C }
  - { offset: 0x7C3DA, size: 0x8, addend: 0x0, symName: _ResourceTypeLua170, symObjAddr: 0x6950, symBinAddr: 0x100368DB0, symSize: 0x0 }
  - { offset: 0x7C557, size: 0x8, addend: 0x0, symName: __ZN12dmGameObject16PatchLuaBytecodeEPN8dmLuaDDF9LuaSourceE, symObjAddr: 0x1D0, symBinAddr: 0x10002C10C, symSize: 0x28 }
  - { offset: 0x7C573, size: 0x8, addend: 0x0, symName: __ZN12dmGameObjectL23RegisterResourceTypeLuaEP19ResourceTypeContextP12ResourceType, symObjAddr: 0x21C, symBinAddr: 0x10002C158, symSize: 0x68 }
  - { offset: 0x7C602, size: 0x8, addend: 0x0, symName: __ZN12dmGameObjectL12ResLuaCreateEPK20ResourceCreateParams, symObjAddr: 0x284, symBinAddr: 0x10002C1C0, symSize: 0xB8 }
  - { offset: 0x7C626, size: 0x8, addend: 0x0, symName: __ZN12dmGameObjectL12ResLuaCreateEPK20ResourceCreateParams, symObjAddr: 0x284, symBinAddr: 0x10002C1C0, symSize: 0xB8 }
  - { offset: 0x7C744, size: 0x8, addend: 0x0, symName: __ZN12dmGameObjectL13ResLuaDestroyEPK21ResourceDestroyParams, symObjAddr: 0x33C, symBinAddr: 0x10002C278, symSize: 0x38 }
  - { offset: 0x7C79B, size: 0x8, addend: 0x0, symName: __ZN12dmGameObjectL14ResLuaRecreateEPK22ResourceRecreateParams, symObjAddr: 0x374, symBinAddr: 0x10002C2B0, symSize: 0x120 }
  - { offset: 0x7C943, size: 0x8, addend: 0x0, symName: __ZN12dmGameObjectL23RegisterResourceTypeLuaEP19ResourceTypeContextP12ResourceType.cold.1, symObjAddr: 0x494, symBinAddr: 0x10024E954, symSize: 0x28 }
  - { offset: 0x7CD0C, size: 0x8, addend: 0x0, symName: _ResourceTypeLua, symObjAddr: 0x1F8, symBinAddr: 0x10002C134, symSize: 0x24 }
  - { offset: 0x7CF7A, size: 0x8, addend: 0x0, symName: __ZN12dmGameObjectL23RegisterResourceTypeLuaEP19ResourceTypeContextP12ResourceType.cold.1, symObjAddr: 0x494, symBinAddr: 0x10024E954, symSize: 0x28 }
  - { offset: 0x7D27A, size: 0x8, addend: 0x0, symName: _ResourceTypeScript, symObjAddr: 0x0, symBinAddr: 0x10002C3D0, symSize: 0x24 }
  - { offset: 0x7D295, size: 0x8, addend: 0x0, symName: _ResourceTypeScript151, symObjAddr: 0xB800, symBinAddr: 0x100368E30, symSize: 0x0 }
  - { offset: 0x7D446, size: 0x8, addend: 0x0, symName: __ZN12dmGameObjectL26RegisterResourceTypeScriptEP19ResourceTypeContextP12ResourceType, symObjAddr: 0x24, symBinAddr: 0x10002C3F4, symSize: 0x6C }
  - { offset: 0x7D4D0, size: 0x8, addend: 0x0, symName: __ZN12dmGameObjectL16ResScriptPreloadEPK21ResourcePreloadParams, symObjAddr: 0x90, symBinAddr: 0x10002C460, symSize: 0xD4 }
  - { offset: 0x7D4DB, size: 0x8, addend: 0x0, symName: __ZN12dmGameObjectL16ResScriptPreloadEPK21ResourcePreloadParams, symObjAddr: 0x90, symBinAddr: 0x10002C460, symSize: 0xD4 }
  - { offset: 0x7D603, size: 0x8, addend: 0x0, symName: __ZN12dmGameObjectL15ResScriptCreateEPK20ResourceCreateParams, symObjAddr: 0x164, symBinAddr: 0x10002C534, symSize: 0xC4 }
  - { offset: 0x7D61F, size: 0x8, addend: 0x0, symName: __ZN12dmGameObjectL15ResScriptCreateEPK20ResourceCreateParams, symObjAddr: 0x164, symBinAddr: 0x10002C534, symSize: 0xC4 }
  - { offset: 0x7D7B2, size: 0x8, addend: 0x0, symName: __ZN12dmGameObjectL16ResScriptDestroyEPK21ResourceDestroyParams, symObjAddr: 0x228, symBinAddr: 0x10002C5F8, symSize: 0x48 }
  - { offset: 0x7D848, size: 0x8, addend: 0x0, symName: __ZN12dmGameObjectL17ResScriptRecreateEPK22ResourceRecreateParams, symObjAddr: 0x270, symBinAddr: 0x10002C640, symSize: 0x13C }
  - { offset: 0x7DED8, size: 0x8, addend: 0x0, symName: _ResourceTypeScript, symObjAddr: 0x0, symBinAddr: 0x10002C3D0, symSize: 0x24 }
  - { offset: 0x7E217, size: 0x8, addend: 0x0, symName: __ZN12dmGameObjectL26RegisterResourceTypeScriptEP19ResourceTypeContextP12ResourceType.cold.1, symObjAddr: 0x3AC, symBinAddr: 0x10024E97C, symSize: 0x28 }
  - { offset: 0x7E597, size: 0x8, addend: 0x0, symName: _dmGameObjectDDF_PropertyDesc_id_DEFAULT_VALUE, symObjAddr: 0xC2B8, symBinAddr: 0x100368EB0, symSize: 0x0 }
  - { offset: 0x7E5BA, size: 0x8, addend: 0x0, symName: _dmGameObjectDDF_PropertyDesc_value_DEFAULT_VALUE, symObjAddr: 0xC2BC, symBinAddr: 0x100368EB4, symSize: 0x0 }
  - { offset: 0x7E5D0, size: 0x8, addend: 0x0, symName: _dmGameObjectDDF_PropertyDesc_FIELDS_DESCRIPTOR, symObjAddr: 0xB30, symBinAddr: 0x100341D18, symSize: 0x0 }
  - { offset: 0x7E60F, size: 0x8, addend: 0x0, symName: _dmGameObjectDDF_PropertyDesc_ONEOF_OFFSETS, symObjAddr: 0xC2C0, symBinAddr: 0x100368EB8, symSize: 0x0 }
  - { offset: 0x7E625, size: 0x8, addend: 0x0, symName: _dmGameObjectDDF_PropertyDesc_DESCRIPTOR, symObjAddr: 0xC2C8, symBinAddr: 0x100368EC0, symSize: 0x0 }
  - { offset: 0x7E6D2, size: 0x8, addend: 0x0, symName: _g_Register_dmGameObjectDDF_PropertyDesc, symObjAddr: 0xC310, symBinAddr: 0x100368F08, symSize: 0x0 }
  - { offset: 0x7E6E9, size: 0x8, addend: 0x0, symName: _dmGameObjectDDF_ComponentDesc_id_DEFAULT_VALUE, symObjAddr: 0xC314, symBinAddr: 0x100368F0C, symSize: 0x0 }
  - { offset: 0x7E700, size: 0x8, addend: 0x0, symName: _dmGameObjectDDF_ComponentDesc_component_DEFAULT_VALUE, symObjAddr: 0xC318, symBinAddr: 0x100368F10, symSize: 0x0 }
  - { offset: 0x7E716, size: 0x8, addend: 0x0, symName: _dmGameObjectDDF_ComponentDesc_FIELDS_DESCRIPTOR, symObjAddr: 0xBC8, symBinAddr: 0x100341DA8, symSize: 0x0 }
  - { offset: 0x7E738, size: 0x8, addend: 0x0, symName: _dmGameObjectDDF_ComponentDesc_ONEOF_OFFSETS, symObjAddr: 0xC320, symBinAddr: 0x100368F18, symSize: 0x0 }
  - { offset: 0x7E74E, size: 0x8, addend: 0x0, symName: _dmGameObjectDDF_ComponentDesc_DESCRIPTOR, symObjAddr: 0xC328, symBinAddr: 0x100368F20, symSize: 0x0 }
  - { offset: 0x7E76B, size: 0x8, addend: 0x0, symName: _g_Register_dmGameObjectDDF_ComponentDesc, symObjAddr: 0xC370, symBinAddr: 0x100368F68, symSize: 0x0 }
  - { offset: 0x7E782, size: 0x8, addend: 0x0, symName: _dmGameObjectDDF_EmbeddedComponentDesc_id_DEFAULT_VALUE, symObjAddr: 0xC374, symBinAddr: 0x100368F6C, symSize: 0x0 }
  - { offset: 0x7E799, size: 0x8, addend: 0x0, symName: _dmGameObjectDDF_EmbeddedComponentDesc_type_DEFAULT_VALUE, symObjAddr: 0xC378, symBinAddr: 0x100368F70, symSize: 0x0 }
  - { offset: 0x7E7B0, size: 0x8, addend: 0x0, symName: _dmGameObjectDDF_EmbeddedComponentDesc_data_DEFAULT_VALUE, symObjAddr: 0xC37C, symBinAddr: 0x100368F74, symSize: 0x0 }
  - { offset: 0x7E7C6, size: 0x8, addend: 0x0, symName: _dmGameObjectDDF_EmbeddedComponentDesc_FIELDS_DESCRIPTOR, symObjAddr: 0xD20, symBinAddr: 0x100341EF8, symSize: 0x0 }
  - { offset: 0x7E7E8, size: 0x8, addend: 0x0, symName: _dmGameObjectDDF_EmbeddedComponentDesc_ONEOF_OFFSETS, symObjAddr: 0xC380, symBinAddr: 0x100368F78, symSize: 0x0 }
  - { offset: 0x7E7FE, size: 0x8, addend: 0x0, symName: _dmGameObjectDDF_EmbeddedComponentDesc_DESCRIPTOR, symObjAddr: 0xC388, symBinAddr: 0x100368F80, symSize: 0x0 }
  - { offset: 0x7E814, size: 0x8, addend: 0x0, symName: _g_Register_dmGameObjectDDF_EmbeddedComponentDesc, symObjAddr: 0xC3D0, symBinAddr: 0x100368FC8, symSize: 0x0 }
  - { offset: 0x7E82B, size: 0x8, addend: 0x0, symName: _dmGameObjectDDF_PrototypeDesc_property_resources_DEFAULT_VALUE, symObjAddr: 0xC3D4, symBinAddr: 0x100368FCC, symSize: 0x0 }
  - { offset: 0x7E841, size: 0x8, addend: 0x0, symName: _dmGameObjectDDF_PrototypeDesc_FIELDS_DESCRIPTOR, symObjAddr: 0xE48, symBinAddr: 0x100342018, symSize: 0x0 }
  - { offset: 0x7E857, size: 0x8, addend: 0x0, symName: _dmGameObjectDDF_PrototypeDesc_ONEOF_OFFSETS, symObjAddr: 0xC3D8, symBinAddr: 0x100368FD0, symSize: 0x0 }
  - { offset: 0x7E86D, size: 0x8, addend: 0x0, symName: _dmGameObjectDDF_PrototypeDesc_DESCRIPTOR, symObjAddr: 0xC3E0, symBinAddr: 0x100368FD8, symSize: 0x0 }
  - { offset: 0x7E87D, size: 0x8, addend: 0x0, symName: __ZN15dmGameObjectDDF13PrototypeDesc15m_DDFDescriptorE, symObjAddr: 0xED8, symBinAddr: 0x1003420A8, symSize: 0x0 }
  - { offset: 0x7E897, size: 0x8, addend: 0x0, symName: _g_Register_dmGameObjectDDF_PrototypeDesc, symObjAddr: 0xC428, symBinAddr: 0x100369020, symSize: 0x0 }
  - { offset: 0x7E8AE, size: 0x8, addend: 0x0, symName: _dmGameObjectDDF_ComponentPropertyDesc_id_DEFAULT_VALUE, symObjAddr: 0xC42C, symBinAddr: 0x100369024, symSize: 0x0 }
  - { offset: 0x7E8C4, size: 0x8, addend: 0x0, symName: _dmGameObjectDDF_ComponentPropertyDesc_FIELDS_DESCRIPTOR, symObjAddr: 0xEE0, symBinAddr: 0x1003420B0, symSize: 0x0 }
  - { offset: 0x7E8DA, size: 0x8, addend: 0x0, symName: _dmGameObjectDDF_ComponentPropertyDesc_ONEOF_OFFSETS, symObjAddr: 0xC430, symBinAddr: 0x100369028, symSize: 0x0 }
  - { offset: 0x7E8F0, size: 0x8, addend: 0x0, symName: _dmGameObjectDDF_ComponentPropertyDesc_DESCRIPTOR, symObjAddr: 0xC438, symBinAddr: 0x100369030, symSize: 0x0 }
  - { offset: 0x7E906, size: 0x8, addend: 0x0, symName: _g_Register_dmGameObjectDDF_ComponentPropertyDesc, symObjAddr: 0xC480, symBinAddr: 0x100369078, symSize: 0x0 }
  - { offset: 0x7E91C, size: 0x8, addend: 0x0, symName: _dmGameObjectDDF_ComponenTypeDesc_FIELDS_DESCRIPTOR, symObjAddr: 0xF78, symBinAddr: 0x100342140, symSize: 0x0 }
  - { offset: 0x7E93E, size: 0x8, addend: 0x0, symName: _dmGameObjectDDF_ComponenTypeDesc_ONEOF_OFFSETS, symObjAddr: 0xC488, symBinAddr: 0x100369080, symSize: 0x0 }
  - { offset: 0x7E954, size: 0x8, addend: 0x0, symName: _dmGameObjectDDF_ComponenTypeDesc_DESCRIPTOR, symObjAddr: 0xC490, symBinAddr: 0x100369088, symSize: 0x0 }
  - { offset: 0x7E96A, size: 0x8, addend: 0x0, symName: _g_Register_dmGameObjectDDF_ComponenTypeDesc, symObjAddr: 0xC4D8, symBinAddr: 0x1003690D0, symSize: 0x0 }
  - { offset: 0x7E981, size: 0x8, addend: 0x0, symName: _dmGameObjectDDF_InstanceDesc_id_DEFAULT_VALUE, symObjAddr: 0xC4DC, symBinAddr: 0x1003690D4, symSize: 0x0 }
  - { offset: 0x7E998, size: 0x8, addend: 0x0, symName: _dmGameObjectDDF_InstanceDesc_prototype_DEFAULT_VALUE, symObjAddr: 0xC4E0, symBinAddr: 0x1003690D8, symSize: 0x0 }
  - { offset: 0x7E9AF, size: 0x8, addend: 0x0, symName: _dmGameObjectDDF_InstanceDesc_children_DEFAULT_VALUE, symObjAddr: 0xC4E4, symBinAddr: 0x1003690DC, symSize: 0x0 }
  - { offset: 0x7E9C6, size: 0x8, addend: 0x0, symName: _dmGameObjectDDF_InstanceDesc_scale_DEFAULT_VALUE, symObjAddr: 0xFE0, symBinAddr: 0x1003421A0, symSize: 0x0 }
  - { offset: 0x7E9E8, size: 0x8, addend: 0x0, symName: _dmGameObjectDDF_InstanceDesc_FIELDS_DESCRIPTOR, symObjAddr: 0xFE8, symBinAddr: 0x1003421A8, symSize: 0x0 }
  - { offset: 0x7EA0A, size: 0x8, addend: 0x0, symName: _dmGameObjectDDF_InstanceDesc_ONEOF_OFFSETS, symObjAddr: 0xC4E8, symBinAddr: 0x1003690E0, symSize: 0x0 }
  - { offset: 0x7EA20, size: 0x8, addend: 0x0, symName: _dmGameObjectDDF_InstanceDesc_DESCRIPTOR, symObjAddr: 0xC4F0, symBinAddr: 0x1003690E8, symSize: 0x0 }
  - { offset: 0x7EA36, size: 0x8, addend: 0x0, symName: _g_Register_dmGameObjectDDF_InstanceDesc, symObjAddr: 0xC538, symBinAddr: 0x100369130, symSize: 0x0 }
  - { offset: 0x7EA4D, size: 0x8, addend: 0x0, symName: _dmGameObjectDDF_EmbeddedInstanceDesc_id_DEFAULT_VALUE, symObjAddr: 0xC53C, symBinAddr: 0x100369134, symSize: 0x0 }
  - { offset: 0x7EA64, size: 0x8, addend: 0x0, symName: _dmGameObjectDDF_EmbeddedInstanceDesc_children_DEFAULT_VALUE, symObjAddr: 0xC540, symBinAddr: 0x100369138, symSize: 0x0 }
  - { offset: 0x7EA7B, size: 0x8, addend: 0x0, symName: _dmGameObjectDDF_EmbeddedInstanceDesc_data_DEFAULT_VALUE, symObjAddr: 0xC544, symBinAddr: 0x10036913C, symSize: 0x0 }
  - { offset: 0x7EA92, size: 0x8, addend: 0x0, symName: _dmGameObjectDDF_EmbeddedInstanceDesc_scale_DEFAULT_VALUE, symObjAddr: 0x1170, symBinAddr: 0x100342328, symSize: 0x0 }
  - { offset: 0x7EAA8, size: 0x8, addend: 0x0, symName: _dmGameObjectDDF_EmbeddedInstanceDesc_FIELDS_DESCRIPTOR, symObjAddr: 0x1178, symBinAddr: 0x100342330, symSize: 0x0 }
  - { offset: 0x7EABE, size: 0x8, addend: 0x0, symName: _dmGameObjectDDF_EmbeddedInstanceDesc_ONEOF_OFFSETS, symObjAddr: 0xC548, symBinAddr: 0x100369140, symSize: 0x0 }
  - { offset: 0x7EAD4, size: 0x8, addend: 0x0, symName: _dmGameObjectDDF_EmbeddedInstanceDesc_DESCRIPTOR, symObjAddr: 0xC550, symBinAddr: 0x100369148, symSize: 0x0 }
  - { offset: 0x7EAEB, size: 0x8, addend: 0x0, symName: _g_Register_dmGameObjectDDF_EmbeddedInstanceDesc, symObjAddr: 0xC598, symBinAddr: 0x100369190, symSize: 0x0 }
  - { offset: 0x7EB03, size: 0x8, addend: 0x0, symName: _dmGameObjectDDF_InstancePropertyDesc_id_DEFAULT_VALUE, symObjAddr: 0xC59C, symBinAddr: 0x100369194, symSize: 0x0 }
  - { offset: 0x7EB1A, size: 0x8, addend: 0x0, symName: _dmGameObjectDDF_InstancePropertyDesc_FIELDS_DESCRIPTOR, symObjAddr: 0x1300, symBinAddr: 0x1003424B0, symSize: 0x0 }
  - { offset: 0x7EB31, size: 0x8, addend: 0x0, symName: _dmGameObjectDDF_InstancePropertyDesc_ONEOF_OFFSETS, symObjAddr: 0xC5A0, symBinAddr: 0x100369198, symSize: 0x0 }
  - { offset: 0x7EB48, size: 0x8, addend: 0x0, symName: _dmGameObjectDDF_InstancePropertyDesc_DESCRIPTOR, symObjAddr: 0xC5A8, symBinAddr: 0x1003691A0, symSize: 0x0 }
  - { offset: 0x7EB5F, size: 0x8, addend: 0x0, symName: _g_Register_dmGameObjectDDF_InstancePropertyDesc, symObjAddr: 0xC5F0, symBinAddr: 0x1003691E8, symSize: 0x0 }
  - { offset: 0x7EB77, size: 0x8, addend: 0x0, symName: _dmGameObjectDDF_CollectionInstanceDesc_id_DEFAULT_VALUE, symObjAddr: 0xC5F4, symBinAddr: 0x1003691EC, symSize: 0x0 }
  - { offset: 0x7EB8F, size: 0x8, addend: 0x0, symName: _dmGameObjectDDF_CollectionInstanceDesc_collection_DEFAULT_VALUE, symObjAddr: 0xC5F8, symBinAddr: 0x1003691F0, symSize: 0x0 }
  - { offset: 0x7EBA7, size: 0x8, addend: 0x0, symName: _dmGameObjectDDF_CollectionInstanceDesc_scale_DEFAULT_VALUE, symObjAddr: 0x1368, symBinAddr: 0x100342510, symSize: 0x0 }
  - { offset: 0x7EBBE, size: 0x8, addend: 0x0, symName: _dmGameObjectDDF_CollectionInstanceDesc_FIELDS_DESCRIPTOR, symObjAddr: 0x1370, symBinAddr: 0x100342518, symSize: 0x0 }
  - { offset: 0x7EBD5, size: 0x8, addend: 0x0, symName: _dmGameObjectDDF_CollectionInstanceDesc_ONEOF_OFFSETS, symObjAddr: 0xC600, symBinAddr: 0x1003691F8, symSize: 0x0 }
  - { offset: 0x7EBEC, size: 0x8, addend: 0x0, symName: _dmGameObjectDDF_CollectionInstanceDesc_DESCRIPTOR, symObjAddr: 0xC608, symBinAddr: 0x100369200, symSize: 0x0 }
  - { offset: 0x7EC03, size: 0x8, addend: 0x0, symName: _g_Register_dmGameObjectDDF_CollectionInstanceDesc, symObjAddr: 0xC650, symBinAddr: 0x100369248, symSize: 0x0 }
  - { offset: 0x7EC1B, size: 0x8, addend: 0x0, symName: _dmGameObjectDDF_CollectionDesc_name_DEFAULT_VALUE, symObjAddr: 0xC654, symBinAddr: 0x10036924C, symSize: 0x0 }
  - { offset: 0x7EC33, size: 0x8, addend: 0x0, symName: _dmGameObjectDDF_CollectionDesc_scale_along_z_DEFAULT_VALUE, symObjAddr: 0xC658, symBinAddr: 0x100369250, symSize: 0x0 }
  - { offset: 0x7EC4B, size: 0x8, addend: 0x0, symName: _dmGameObjectDDF_CollectionDesc_property_resources_DEFAULT_VALUE, symObjAddr: 0xC660, symBinAddr: 0x100369258, symSize: 0x0 }
  - { offset: 0x7EC62, size: 0x8, addend: 0x0, symName: _dmGameObjectDDF_CollectionDesc_FIELDS_DESCRIPTOR, symObjAddr: 0x14C8, symBinAddr: 0x100342668, symSize: 0x0 }
  - { offset: 0x7EC79, size: 0x8, addend: 0x0, symName: _dmGameObjectDDF_CollectionDesc_ONEOF_OFFSETS, symObjAddr: 0xC668, symBinAddr: 0x100369260, symSize: 0x0 }
  - { offset: 0x7EC90, size: 0x8, addend: 0x0, symName: _dmGameObjectDDF_CollectionDesc_DESCRIPTOR, symObjAddr: 0xC670, symBinAddr: 0x100369268, symSize: 0x0 }
  - { offset: 0x7ECA0, size: 0x8, addend: 0x0, symName: __ZN15dmGameObjectDDF14CollectionDesc15m_DDFDescriptorE, symObjAddr: 0x1618, symBinAddr: 0x1003427B8, symSize: 0x0 }
  - { offset: 0x7ECBB, size: 0x8, addend: 0x0, symName: _g_Register_dmGameObjectDDF_CollectionDesc, symObjAddr: 0xC6B8, symBinAddr: 0x1003692B0, symSize: 0x0 }
  - { offset: 0x7ECD2, size: 0x8, addend: 0x0, symName: _dmGameObjectDDF_AcquireInputFocus_FIELDS_DESCRIPTOR, symObjAddr: 0xC6C0, symBinAddr: 0x1003692B8, symSize: 0x0 }
  - { offset: 0x7ECE9, size: 0x8, addend: 0x0, symName: _dmGameObjectDDF_AcquireInputFocus_ONEOF_OFFSETS, symObjAddr: 0xC6C8, symBinAddr: 0x1003692C0, symSize: 0x0 }
  - { offset: 0x7ED00, size: 0x8, addend: 0x0, symName: _dmGameObjectDDF_AcquireInputFocus_DESCRIPTOR, symObjAddr: 0xC6D0, symBinAddr: 0x1003692C8, symSize: 0x0 }
  - { offset: 0x7ED10, size: 0x8, addend: 0x0, symName: __ZN15dmGameObjectDDF17AcquireInputFocus15m_DDFDescriptorE, symObjAddr: 0x1620, symBinAddr: 0x1003427C0, symSize: 0x0 }
  - { offset: 0x7ED2B, size: 0x8, addend: 0x0, symName: _g_Register_dmGameObjectDDF_AcquireInputFocus, symObjAddr: 0xC718, symBinAddr: 0x100369310, symSize: 0x0 }
  - { offset: 0x7ED42, size: 0x8, addend: 0x0, symName: _dmGameObjectDDF_ReleaseInputFocus_FIELDS_DESCRIPTOR, symObjAddr: 0xC720, symBinAddr: 0x100369318, symSize: 0x0 }
  - { offset: 0x7ED59, size: 0x8, addend: 0x0, symName: _dmGameObjectDDF_ReleaseInputFocus_ONEOF_OFFSETS, symObjAddr: 0xC728, symBinAddr: 0x100369320, symSize: 0x0 }
  - { offset: 0x7ED70, size: 0x8, addend: 0x0, symName: _dmGameObjectDDF_ReleaseInputFocus_DESCRIPTOR, symObjAddr: 0xC730, symBinAddr: 0x100369328, symSize: 0x0 }
  - { offset: 0x7ED80, size: 0x8, addend: 0x0, symName: __ZN15dmGameObjectDDF17ReleaseInputFocus15m_DDFDescriptorE, symObjAddr: 0x1628, symBinAddr: 0x1003427C8, symSize: 0x0 }
  - { offset: 0x7ED9B, size: 0x8, addend: 0x0, symName: _g_Register_dmGameObjectDDF_ReleaseInputFocus, symObjAddr: 0xC778, symBinAddr: 0x100369370, symSize: 0x0 }
  - { offset: 0x7EDB3, size: 0x8, addend: 0x0, symName: _dmGameObjectDDF_SetParent_parent_id_DEFAULT_VALUE, symObjAddr: 0xC77C, symBinAddr: 0x100369374, symSize: 0x0 }
  - { offset: 0x7EDD7, size: 0x8, addend: 0x0, symName: _dmGameObjectDDF_SetParent_keep_world_transform_DEFAULT_VALUE, symObjAddr: 0x1630, symBinAddr: 0x1003427D0, symSize: 0x0 }
  - { offset: 0x7EDEE, size: 0x8, addend: 0x0, symName: _dmGameObjectDDF_SetParent_FIELDS_DESCRIPTOR, symObjAddr: 0x1638, symBinAddr: 0x1003427D8, symSize: 0x0 }
  - { offset: 0x7EE05, size: 0x8, addend: 0x0, symName: _dmGameObjectDDF_SetParent_ONEOF_OFFSETS, symObjAddr: 0xC788, symBinAddr: 0x100369380, symSize: 0x0 }
  - { offset: 0x7EE1C, size: 0x8, addend: 0x0, symName: _dmGameObjectDDF_SetParent_DESCRIPTOR, symObjAddr: 0xC790, symBinAddr: 0x100369388, symSize: 0x0 }
  - { offset: 0x7EE2C, size: 0x8, addend: 0x0, symName: __ZN15dmGameObjectDDF9SetParent15m_DDFDescriptorE, symObjAddr: 0x1698, symBinAddr: 0x100342838, symSize: 0x0 }
  - { offset: 0x7EE47, size: 0x8, addend: 0x0, symName: _g_Register_dmGameObjectDDF_SetParent, symObjAddr: 0xC7D8, symBinAddr: 0x1003693D0, symSize: 0x0 }
  - { offset: 0x7EE5E, size: 0x8, addend: 0x0, symName: _dmGameObjectDDF_Enable_FIELDS_DESCRIPTOR, symObjAddr: 0xC7E0, symBinAddr: 0x1003693D8, symSize: 0x0 }
  - { offset: 0x7EE75, size: 0x8, addend: 0x0, symName: _dmGameObjectDDF_Enable_ONEOF_OFFSETS, symObjAddr: 0xC7E8, symBinAddr: 0x1003693E0, symSize: 0x0 }
  - { offset: 0x7EE8C, size: 0x8, addend: 0x0, symName: _dmGameObjectDDF_Enable_DESCRIPTOR, symObjAddr: 0xC7F0, symBinAddr: 0x1003693E8, symSize: 0x0 }
  - { offset: 0x7EE9C, size: 0x8, addend: 0x0, symName: __ZN15dmGameObjectDDF6Enable15m_DDFDescriptorE, symObjAddr: 0x16A0, symBinAddr: 0x100342840, symSize: 0x0 }
  - { offset: 0x7EEB7, size: 0x8, addend: 0x0, symName: _g_Register_dmGameObjectDDF_Enable, symObjAddr: 0xC838, symBinAddr: 0x100369430, symSize: 0x0 }
  - { offset: 0x7EECE, size: 0x8, addend: 0x0, symName: _dmGameObjectDDF_Disable_FIELDS_DESCRIPTOR, symObjAddr: 0xC840, symBinAddr: 0x100369438, symSize: 0x0 }
  - { offset: 0x7EEE5, size: 0x8, addend: 0x0, symName: _dmGameObjectDDF_Disable_ONEOF_OFFSETS, symObjAddr: 0xC848, symBinAddr: 0x100369440, symSize: 0x0 }
  - { offset: 0x7EEFC, size: 0x8, addend: 0x0, symName: _dmGameObjectDDF_Disable_DESCRIPTOR, symObjAddr: 0xC850, symBinAddr: 0x100369448, symSize: 0x0 }
  - { offset: 0x7EF0C, size: 0x8, addend: 0x0, symName: __ZN15dmGameObjectDDF7Disable15m_DDFDescriptorE, symObjAddr: 0x16A8, symBinAddr: 0x100342848, symSize: 0x0 }
  - { offset: 0x7EF27, size: 0x8, addend: 0x0, symName: _g_Register_dmGameObjectDDF_Disable, symObjAddr: 0xC898, symBinAddr: 0x100369490, symSize: 0x0 }
  - { offset: 0x7EF3E, size: 0x8, addend: 0x0, symName: _dmGameObjectDDF_ScriptMessage_FIELDS_DESCRIPTOR, symObjAddr: 0x16B0, symBinAddr: 0x100342850, symSize: 0x0 }
  - { offset: 0x7EF61, size: 0x8, addend: 0x0, symName: _dmGameObjectDDF_ScriptMessage_ONEOF_OFFSETS, symObjAddr: 0xC8A0, symBinAddr: 0x100369498, symSize: 0x0 }
  - { offset: 0x7EF78, size: 0x8, addend: 0x0, symName: _dmGameObjectDDF_ScriptMessage_DESCRIPTOR, symObjAddr: 0xC8A8, symBinAddr: 0x1003694A0, symSize: 0x0 }
  - { offset: 0x7EF88, size: 0x8, addend: 0x0, symName: __ZN15dmGameObjectDDF13ScriptMessage15m_DDFDescriptorE, symObjAddr: 0x1770, symBinAddr: 0x100342910, symSize: 0x0 }
  - { offset: 0x7EFAA, size: 0x8, addend: 0x0, symName: _g_Register_dmGameObjectDDF_ScriptMessage, symObjAddr: 0xC8F0, symBinAddr: 0x1003694E8, symSize: 0x0 }
  - { offset: 0x7EFC1, size: 0x8, addend: 0x0, symName: _dmGameObjectDDF_ScriptUnrefMessage_FIELDS_DESCRIPTOR, symObjAddr: 0x1778, symBinAddr: 0x100342918, symSize: 0x0 }
  - { offset: 0x7EFE4, size: 0x8, addend: 0x0, symName: _dmGameObjectDDF_ScriptUnrefMessage_ONEOF_OFFSETS, symObjAddr: 0xC8F8, symBinAddr: 0x1003694F0, symSize: 0x0 }
  - { offset: 0x7EFFB, size: 0x8, addend: 0x0, symName: _dmGameObjectDDF_ScriptUnrefMessage_DESCRIPTOR, symObjAddr: 0xC900, symBinAddr: 0x1003694F8, symSize: 0x0 }
  - { offset: 0x7F00B, size: 0x8, addend: 0x0, symName: __ZN15dmGameObjectDDF18ScriptUnrefMessage15m_DDFDescriptorE, symObjAddr: 0x17A8, symBinAddr: 0x100342948, symSize: 0x0 }
  - { offset: 0x7F026, size: 0x8, addend: 0x0, symName: _g_Register_dmGameObjectDDF_ScriptUnrefMessage, symObjAddr: 0xC948, symBinAddr: 0x100369540, symSize: 0x0 }
  - { offset: 0x7F12C, size: 0x8, addend: 0x0, symName: __GLOBAL__sub_I_gameobject_ddf.cpp, symObjAddr: 0x4, symBinAddr: 0x10002C77C, symSize: 0x6E0 }
  - { offset: 0x7F5EA, size: 0x8, addend: 0x0, symName: _dmLuaDDF_LuaModule_modules_DEFAULT_VALUE, symObjAddr: 0x2F80, symBinAddr: 0x100369548, symSize: 0x0 }
  - { offset: 0x7F61B, size: 0x8, addend: 0x0, symName: _dmLuaDDF_LuaModule_resources_DEFAULT_VALUE, symObjAddr: 0x2F84, symBinAddr: 0x10036954C, symSize: 0x0 }
  - { offset: 0x7F632, size: 0x8, addend: 0x0, symName: _dmLuaDDF_LuaModule_property_resources_DEFAULT_VALUE, symObjAddr: 0x2F88, symBinAddr: 0x100369550, symSize: 0x0 }
  - { offset: 0x7F648, size: 0x8, addend: 0x0, symName: _dmLuaDDF_LuaModule_FIELDS_DESCRIPTOR, symObjAddr: 0xB0, symBinAddr: 0x100342950, symSize: 0x0 }
  - { offset: 0x7F68B, size: 0x8, addend: 0x0, symName: _dmLuaDDF_LuaModule_ONEOF_OFFSETS, symObjAddr: 0x2F90, symBinAddr: 0x100369558, symSize: 0x0 }
  - { offset: 0x7F6A1, size: 0x8, addend: 0x0, symName: _dmLuaDDF_LuaModule_DESCRIPTOR, symObjAddr: 0x2F98, symBinAddr: 0x100369560, symSize: 0x0 }
  - { offset: 0x7F6B1, size: 0x8, addend: 0x0, symName: __ZN8dmLuaDDF9LuaModule15m_DDFDescriptorE, symObjAddr: 0x1A0, symBinAddr: 0x100342A40, symSize: 0x0 }
  - { offset: 0x7F6D2, size: 0x8, addend: 0x0, symName: _g_Register_dmLuaDDF_LuaModule, symObjAddr: 0x2FE0, symBinAddr: 0x1003695A8, symSize: 0x0 }
  - { offset: 0x7F6EA, size: 0x8, addend: 0x0, symName: __GLOBAL__sub_I_lua_ddf.cpp, symObjAddr: 0x4, symBinAddr: 0x10002CE5C, symSize: 0x68 }
  - { offset: 0x7F701, size: 0x8, addend: 0x0, symName: __GLOBAL__sub_I_lua_ddf.cpp, symObjAddr: 0x4, symBinAddr: 0x10002CE5C, symSize: 0x68 }
  - { offset: 0x7F930, size: 0x8, addend: 0x0, symName: _dmPropertiesDDF_PropertyDeclarationEntry_key_DEFAULT_VALUE, symObjAddr: 0x3020, symBinAddr: 0x1003695B0, symSize: 0x0 }
  - { offset: 0x7F960, size: 0x8, addend: 0x0, symName: _dmPropertiesDDF_PropertyDeclarationEntry_FIELDS_DESCRIPTOR, symObjAddr: 0x1B8, symBinAddr: 0x100342A48, symSize: 0x0 }
  - { offset: 0x7F9A3, size: 0x8, addend: 0x0, symName: _dmPropertiesDDF_PropertyDeclarationEntry_ONEOF_OFFSETS, symObjAddr: 0x3028, symBinAddr: 0x1003695B8, symSize: 0x0 }
  - { offset: 0x7F9B9, size: 0x8, addend: 0x0, symName: _dmPropertiesDDF_PropertyDeclarationEntry_DESCRIPTOR, symObjAddr: 0x3030, symBinAddr: 0x1003695C0, symSize: 0x0 }
  - { offset: 0x7F9CF, size: 0x8, addend: 0x0, symName: _g_Register_dmPropertiesDDF_PropertyDeclarationEntry, symObjAddr: 0x3078, symBinAddr: 0x100369608, symSize: 0x0 }
  - { offset: 0x7F9E6, size: 0x8, addend: 0x0, symName: _dmPropertiesDDF_PropertyDeclarations_string_values_DEFAULT_VALUE, symObjAddr: 0x307C, symBinAddr: 0x10036960C, symSize: 0x0 }
  - { offset: 0x7F9FC, size: 0x8, addend: 0x0, symName: _dmPropertiesDDF_PropertyDeclarations_FIELDS_DESCRIPTOR, symObjAddr: 0x280, symBinAddr: 0x100342B08, symSize: 0x0 }
  - { offset: 0x7FA1E, size: 0x8, addend: 0x0, symName: _dmPropertiesDDF_PropertyDeclarations_ONEOF_OFFSETS, symObjAddr: 0x3080, symBinAddr: 0x100369610, symSize: 0x0 }
  - { offset: 0x7FA34, size: 0x8, addend: 0x0, symName: _dmPropertiesDDF_PropertyDeclarations_DESCRIPTOR, symObjAddr: 0x3088, symBinAddr: 0x100369618, symSize: 0x0 }
  - { offset: 0x7FA51, size: 0x8, addend: 0x0, symName: _g_Register_dmPropertiesDDF_PropertyDeclarations, symObjAddr: 0x30D0, symBinAddr: 0x100369660, symSize: 0x0 }
  - { offset: 0x7FA77, size: 0x8, addend: 0x0, symName: __GLOBAL__sub_I_properties_ddf.cpp, symObjAddr: 0x4, symBinAddr: 0x10002CEC4, symSize: 0xE0 }
  - { offset: 0x7FCE6, size: 0x8, addend: 0x0, symName: __ZN5dmDDF17g_FirstDescriptorE, symObjAddr: 0xF220, symBinAddr: 0x100369668, symSize: 0x0 }
  - { offset: 0x7FCFF, size: 0x8, addend: 0x0, symName: __ZN5dmDDF13g_DescriptorsE, symObjAddr: 0xF228, symBinAddr: 0x100369670, symSize: 0x0 }
  - { offset: 0x7FD0C, size: 0x8, addend: 0x0, symName: __ZN5dmDDF11LoadMessageEPKvjPKNS_10DescriptorEPPvjPj, symObjAddr: 0x528, symBinAddr: 0x10002D1AC, symSize: 0x27C }
  - { offset: 0x7FD37, size: 0x8, addend: 0x0, symName: __ZZN5dmDDF11LoadMessageEPKvjPKNS_10DescriptorEPPvjPjE9_scope262, symObjAddr: 0xF260, symBinAddr: 0x1003582A0, symSize: 0x0 }
  - { offset: 0x800F7, size: 0x8, addend: 0x0, symName: __ZN5dmDDFL17CalculateRepeatedEPNS_11LoadContextEPNS_11InputBufferEPKNS_10DescriptorEPjb, symObjAddr: 0x7A4, symBinAddr: 0x10002D428, symSize: 0x1BC }
  - { offset: 0x80133, size: 0x8, addend: 0x0, symName: __ZN5dmDDF16RegisterAllTypesEv, symObjAddr: 0x50, symBinAddr: 0x10002CFF4, symSize: 0x138 }
  - { offset: 0x8024F, size: 0x8, addend: 0x0, symName: __ZN5dmDDF21GetDescriptorFromHashEy, symObjAddr: 0x448, symBinAddr: 0x10002D140, symSize: 0x60 }
  - { offset: 0x80278, size: 0x8, addend: 0x0, symName: __ZN5dmDDF21GetDescriptorFromHashEy, symObjAddr: 0x448, symBinAddr: 0x10002D140, symSize: 0x60 }
  - { offset: 0x80293, size: 0x8, addend: 0x0, symName: __ZN5dmDDF21GetDescriptorFromHashEy, symObjAddr: 0x448, symBinAddr: 0x10002D140, symSize: 0x60 }
  - { offset: 0x802FF, size: 0x8, addend: 0x0, symName: __ZN5dmDDF11LoadMessageEPKvjPKNS_10DescriptorEPPv, symObjAddr: 0x51C, symBinAddr: 0x10002D1A0, symSize: 0xC }
  - { offset: 0x80AC3, size: 0x8, addend: 0x0, symName: __ZN5dmDDFL30CalculateDynamicDescriptorSizeEPNS_11LoadContextEPNS_11InputBufferEPKNS_10DescriptorEb, symObjAddr: 0xD78, symBinAddr: 0x10002D804, symSize: 0x154 }
  - { offset: 0x80C23, size: 0x8, addend: 0x0, symName: __ZN5dmDDFL17CalculateRepeatedEPNS_11LoadContextEPNS_11InputBufferEPKNS_10DescriptorEPjb, symObjAddr: 0x7A4, symBinAddr: 0x10002D428, symSize: 0x1BC }
  - { offset: 0x80E8C, size: 0x8, addend: 0x0, symName: __ZN5dmDDF15ResolvePointersEPKNS_10DescriptorEPv, symObjAddr: 0xA58, symBinAddr: 0x10002D5E4, symSize: 0x4 }
  - { offset: 0x80ECA, size: 0x8, addend: 0x0, symName: __ZN5dmDDF15ResolvePointersEPKNS_10DescriptorEPv, symObjAddr: 0xA58, symBinAddr: 0x10002D5E4, symSize: 0x4 }
  - { offset: 0x80F6E, size: 0x8, addend: 0x0, symName: __ZN5dmDDF17SaveMessageToFileEPKvPKNS_10DescriptorEPKc, symObjAddr: 0xA60, symBinAddr: 0x10002D5E8, symSize: 0x70 }
  - { offset: 0x8105B, size: 0x8, addend: 0x0, symName: __ZN5dmDDFL19DDFFileSaveFunctionEPvPKvj, symObjAddr: 0xAD0, symBinAddr: 0x10002D658, symSize: 0x38 }
  - { offset: 0x810E2, size: 0x8, addend: 0x0, symName: __ZN5dmDDF18SaveMessageToArrayEPKvPKNS_10DescriptorER7dmArrayIhE, symObjAddr: 0xB64, symBinAddr: 0x10002D690, symSize: 0x14 }
  - { offset: 0x81114, size: 0x8, addend: 0x0, symName: __ZN5dmDDF18SaveMessageToArrayEPKvPKNS_10DescriptorER7dmArrayIhE, symObjAddr: 0xB64, symBinAddr: 0x10002D690, symSize: 0x14 }
  - { offset: 0x81136, size: 0x8, addend: 0x0, symName: __ZN5dmDDF18SaveMessageToArrayEPKvPKNS_10DescriptorER7dmArrayIhE, symObjAddr: 0xB64, symBinAddr: 0x10002D690, symSize: 0x14 }
  - { offset: 0x811A9, size: 0x8, addend: 0x0, symName: __ZN5dmDDFL17SaveArrayFunctionEPvPKvj, symObjAddr: 0xB78, symBinAddr: 0x10002D6A4, symSize: 0xA8 }
  - { offset: 0x812DD, size: 0x8, addend: 0x0, symName: __ZN5dmDDF11CopyMessageEPKvPKNS_10DescriptorEPPv, symObjAddr: 0xC20, symBinAddr: 0x10002D74C, symSize: 0xA4 }
  - { offset: 0x81329, size: 0x8, addend: 0x0, symName: __ZN5dmDDF11CopyMessageEPKvPKNS_10DescriptorEPPv, symObjAddr: 0xC20, symBinAddr: 0x10002D74C, symSize: 0xA4 }
  - { offset: 0x814FB, size: 0x8, addend: 0x0, symName: __ZN5dmDDF11FreeMessageEPv, symObjAddr: 0xD64, symBinAddr: 0x10002D7F0, symSize: 0x14 }
  - { offset: 0x81536, size: 0x8, addend: 0x0, symName: __ZN5dmDDFL30CalculateDynamicDescriptorSizeEPNS_11LoadContextEPNS_11InputBufferEPKNS_10DescriptorEb, symObjAddr: 0xD78, symBinAddr: 0x10002D804, symSize: 0x154 }
  - { offset: 0x81ED8, size: 0x8, addend: 0x0, symName: __ZN13dmHashTable64IPKN5dmDDF10DescriptorEED1Ev, symObjAddr: 0x0, symBinAddr: 0x10002CFA4, symSize: 0x50 }
  - { offset: 0x81F08, size: 0x8, addend: 0x0, symName: __ZN13dmHashTable64IPKN5dmDDF10DescriptorEED1Ev, symObjAddr: 0x0, symBinAddr: 0x10002CFA4, symSize: 0x50 }
  - { offset: 0x81F26, size: 0x8, addend: 0x0, symName: __ZN13dmHashTable64IPKN5dmDDF10DescriptorEED1Ev, symObjAddr: 0x0, symBinAddr: 0x10002CFA4, symSize: 0x50 }
  - { offset: 0x823F8, size: 0x8, addend: 0x0, symName: __ZN5dmDDF26InternalRegisterDescriptorC1EPNS_10DescriptorE, symObjAddr: 0x434, symBinAddr: 0x10002D12C, symSize: 0x14 }
  - { offset: 0x82432, size: 0x8, addend: 0x0, symName: __ZN5dmDDF26InternalRegisterDescriptorC1EPNS_10DescriptorE, symObjAddr: 0x434, symBinAddr: 0x10002D12C, symSize: 0x14 }
  - { offset: 0x829F0, size: 0x8, addend: 0x0, symName: __ZN5dmDDF11LoadMessageEPKvjPKNS_10DescriptorEPPvjPj.cold.4, symObjAddr: 0x1034, symBinAddr: 0x10024EA1C, symSize: 0x28 }
  - { offset: 0x82A08, size: 0x8, addend: 0x0, symName: __ZN5dmDDF11LoadMessageEPKvjPKNS_10DescriptorEPPvjPj.cold.3, symObjAddr: 0x100C, symBinAddr: 0x10024E9F4, symSize: 0x28 }
  - { offset: 0x82A20, size: 0x8, addend: 0x0, symName: __ZN5dmDDF11LoadMessageEPKvjPKNS_10DescriptorEPPvjPj.cold.2, symObjAddr: 0xFE4, symBinAddr: 0x10024E9CC, symSize: 0x28 }
  - { offset: 0x82A38, size: 0x8, addend: 0x0, symName: __ZN5dmDDF11LoadMessageEPKvjPKNS_10DescriptorEPPvjPj.cold.1, symObjAddr: 0xFBC, symBinAddr: 0x10024E9A4, symSize: 0x28 }
  - { offset: 0x82A50, size: 0x8, addend: 0x0, symName: __ZN5dmDDFL17CalculateRepeatedEPNS_11LoadContextEPNS_11InputBufferEPKNS_10DescriptorEPjb.cold.2, symObjAddr: 0x1084, symBinAddr: 0x10024EA6C, symSize: 0x28 }
  - { offset: 0x82A68, size: 0x8, addend: 0x0, symName: __ZN5dmDDFL17CalculateRepeatedEPNS_11LoadContextEPNS_11InputBufferEPKNS_10DescriptorEPjb.cold.1, symObjAddr: 0x105C, symBinAddr: 0x10024EA44, symSize: 0x28 }
  - { offset: 0x82BE8, size: 0x8, addend: 0x0, symName: __ZN5dmDDFL17SaveArrayFunctionEPvPKvj.cold.2, symObjAddr: 0x10FC, symBinAddr: 0x10024EA94, symSize: 0x28 }
  - { offset: 0x82CB8, size: 0x8, addend: 0x0, symName: __ZN5dmDDF11FreeMessageEPv.cold.1, symObjAddr: 0x11C4, symBinAddr: 0x10024EABC, symSize: 0x28 }
  - { offset: 0x82D0F, size: 0x8, addend: 0x0, symName: __GLOBAL__sub_I_ddf.cpp, symObjAddr: 0x11EC, symBinAddr: 0x10002D958, symSize: 0x34 }
  - { offset: 0x82D27, size: 0x8, addend: 0x0, symName: __GLOBAL__sub_I_ddf.cpp, symObjAddr: 0x11EC, symBinAddr: 0x10002D958, symSize: 0x34 }
  - { offset: 0x82DA3, size: 0x8, addend: 0x0, symName: __ZN5dmDDF9SkipFieldEPNS_11InputBufferEj, symObjAddr: 0x0, symBinAddr: 0x10002D98C, symSize: 0xC0 }
  - { offset: 0x82DC9, size: 0x8, addend: 0x0, symName: __ZN5dmDDF9SkipFieldEPNS_11InputBufferEj, symObjAddr: 0x0, symBinAddr: 0x10002D98C, symSize: 0xC0 }
  - { offset: 0x82EC3, size: 0x8, addend: 0x0, symName: __ZN5dmDDF13DoLoadMessageEPNS_11LoadContextEPNS_11InputBufferEPKNS_10DescriptorEPNS_7MessageE, symObjAddr: 0xC0, symBinAddr: 0x10002DA4C, symSize: 0x294 }
  - { offset: 0x830BB, size: 0x8, addend: 0x0, symName: __ZN5dmDDFL18DoLoadDefaultFieldEPNS_11LoadContextEPKNS_15FieldDescriptorEPNS_7MessageE, symObjAddr: 0x354, symBinAddr: 0x10002DCE0, symSize: 0x220 }
  - { offset: 0x83247, size: 0x8, addend: 0x0, symName: __ZN5dmDDFL22HasDescriptorRecursiveEPKNS_10DescriptorEPKNS_15FieldDescriptorE, symObjAddr: 0x574, symBinAddr: 0x10002DF00, symSize: 0x7C }
  - { offset: 0x83344, size: 0x8, addend: 0x0, symName: __ZN5dmDDF13DoLoadMessageEPNS_11LoadContextEPNS_11InputBufferEPKNS_10DescriptorEPNS_7MessageE.cold.1, symObjAddr: 0x5F0, symBinAddr: 0x10024EAE4, symSize: 0x28 }
  - { offset: 0x833D1, size: 0x8, addend: 0x0, symName: __ZN5dmDDF13DoSaveMessageEPKvPKNS_10DescriptorEPvPFbS5_S1_jE, symObjAddr: 0x0, symBinAddr: 0x10002DF7C, symSize: 0x36C }
  - { offset: 0x83492, size: 0x8, addend: 0x0, symName: __ZN5dmDDF13DoSaveMessageEPKvPKNS_10DescriptorEPvPFbS5_S1_jE, symObjAddr: 0x0, symBinAddr: 0x10002DF7C, symSize: 0x36C }
  - { offset: 0x836E7, size: 0x8, addend: 0x0, symName: __ZN5dmDDFL20DDFCountSaveFunctionEPvPKvj, symObjAddr: 0x36C, symBinAddr: 0x10002E2E8, symSize: 0x14 }
  - { offset: 0x83707, size: 0x8, addend: 0x0, symName: __ZN5dmDDFL20DDFCountSaveFunctionEPvPKvj, symObjAddr: 0x36C, symBinAddr: 0x10002E2E8, symSize: 0x14 }
  - { offset: 0x83998, size: 0x8, addend: 0x0, symName: __ZN5dmDDF13DoSaveMessageEPKvPKNS_10DescriptorEPvPFbS5_S1_jE.cold.1, symObjAddr: 0x380, symBinAddr: 0x10024EB0C, symSize: 0x28 }
  - { offset: 0x839B0, size: 0x8, addend: 0x0, symName: __ZN5dmDDF13DoSaveMessageEPKvPKNS_10DescriptorEPvPFbS5_S1_jE.cold.2, symObjAddr: 0x3A8, symBinAddr: 0x10024EB34, symSize: 0x28 }
  - { offset: 0x839C8, size: 0x8, addend: 0x0, symName: __ZN5dmDDF13DoSaveMessageEPKvPKNS_10DescriptorEPvPFbS5_S1_jE.cold.3, symObjAddr: 0x3D0, symBinAddr: 0x10024EB5C, symSize: 0x28 }
  - { offset: 0x839E0, size: 0x8, addend: 0x0, symName: __ZN5dmDDF13DoSaveMessageEPKvPKNS_10DescriptorEPvPFbS5_S1_jE.cold.4, symObjAddr: 0x3F8, symBinAddr: 0x10024EB84, symSize: 0x28 }
  - { offset: 0x839F8, size: 0x8, addend: 0x0, symName: __ZN5dmDDF13DoSaveMessageEPKvPKNS_10DescriptorEPvPFbS5_S1_jE.cold.6, symObjAddr: 0x448, symBinAddr: 0x10024EBD4, symSize: 0x28 }
  - { offset: 0x83A10, size: 0x8, addend: 0x0, symName: __ZN5dmDDF13DoSaveMessageEPKvPKNS_10DescriptorEPvPFbS5_S1_jE.cold.7, symObjAddr: 0x470, symBinAddr: 0x10024EBFC, symSize: 0x28 }
  - { offset: 0x83A28, size: 0x8, addend: 0x0, symName: __ZN5dmDDF13DoSaveMessageEPKvPKNS_10DescriptorEPvPFbS5_S1_jE.cold.5, symObjAddr: 0x420, symBinAddr: 0x10024EBAC, symSize: 0x28 }
  - { offset: 0x83A40, size: 0x8, addend: 0x0, symName: __ZN5dmDDF13DoSaveMessageEPKvPKNS_10DescriptorEPvPFbS5_S1_jE.cold.8, symObjAddr: 0x498, symBinAddr: 0x10024EC24, symSize: 0x28 }
  - { offset: 0x83B65, size: 0x8, addend: 0x0, symName: __ZN5dmDDF11InputBufferC1EPKcj, symObjAddr: 0x28, symBinAddr: 0x10002E2FC, symSize: 0x10 }
  - { offset: 0x83BAC, size: 0x8, addend: 0x0, symName: __ZN5dmDDF11InputBufferC1EPKcj, symObjAddr: 0x28, symBinAddr: 0x10002E2FC, symSize: 0x10 }
  - { offset: 0x83BD4, size: 0x8, addend: 0x0, symName: __ZN5dmDDF11InputBuffer4TellEv, symObjAddr: 0x38, symBinAddr: 0x10002E30C, symSize: 0x24 }
  - { offset: 0x83BFF, size: 0x8, addend: 0x0, symName: __ZN5dmDDF11InputBuffer4SeekEj, symObjAddr: 0x5C, symBinAddr: 0x10002E330, symSize: 0x24 }
  - { offset: 0x83C0A, size: 0x8, addend: 0x0, symName: __ZN5dmDDF11InputBuffer4TellEv.cold.1, symObjAddr: 0x5BC, symBinAddr: 0x10024EC4C, symSize: 0x28 }
  - { offset: 0x83C22, size: 0x8, addend: 0x0, symName: __ZN5dmDDF11InputBuffer4SeekEj, symObjAddr: 0x5C, symBinAddr: 0x10002E330, symSize: 0x24 }
  - { offset: 0x83C5C, size: 0x8, addend: 0x0, symName: __ZN5dmDDF11InputBuffer4SkipEj, symObjAddr: 0x80, symBinAddr: 0x10002E354, symSize: 0x2C }
  - { offset: 0x83C67, size: 0x8, addend: 0x0, symName: __ZN5dmDDF11InputBuffer4SeekEj.cold.1, symObjAddr: 0x5E4, symBinAddr: 0x10024EC74, symSize: 0x28 }
  - { offset: 0x83C7F, size: 0x8, addend: 0x0, symName: __ZN5dmDDF11InputBuffer4SkipEj, symObjAddr: 0x80, symBinAddr: 0x10002E354, symSize: 0x2C }
  - { offset: 0x83CB9, size: 0x8, addend: 0x0, symName: __ZN5dmDDF11InputBuffer4ReadEiPPKc, symObjAddr: 0xAC, symBinAddr: 0x10002E380, symSize: 0x58 }
  - { offset: 0x83CC4, size: 0x8, addend: 0x0, symName: __ZN5dmDDF11InputBuffer4SkipEj.cold.1, symObjAddr: 0x60C, symBinAddr: 0x10024EC9C, symSize: 0x28 }
  - { offset: 0x83CDC, size: 0x8, addend: 0x0, symName: __ZN5dmDDF11InputBuffer4ReadEiPPKc, symObjAddr: 0xAC, symBinAddr: 0x10002E380, symSize: 0x58 }
  - { offset: 0x83D32, size: 0x8, addend: 0x0, symName: __ZN5dmDDF11InputBuffer12ReadVarInt32EPj, symObjAddr: 0x104, symBinAddr: 0x10002E3D8, symSize: 0x8C }
  - { offset: 0x83D3D, size: 0x8, addend: 0x0, symName: __ZN5dmDDF11InputBuffer4ReadEiPPKc.cold.2, symObjAddr: 0x65C, symBinAddr: 0x10024ECEC, symSize: 0x28 }
  - { offset: 0x83D55, size: 0x8, addend: 0x0, symName: __ZN5dmDDF11InputBuffer4ReadEiPPKc.cold.1, symObjAddr: 0x634, symBinAddr: 0x10024ECC4, symSize: 0x28 }
  - { offset: 0x83DB2, size: 0x8, addend: 0x0, symName: __ZN5dmDDF11InputBuffer12ReadVarInt32EPj, symObjAddr: 0x104, symBinAddr: 0x10002E3D8, symSize: 0x8C }
  - { offset: 0x83E15, size: 0x8, addend: 0x0, symName: __ZN5dmDDF11InputBuffer12ReadVarInt64EPy, symObjAddr: 0x190, symBinAddr: 0x10002E464, symSize: 0x50 }
  - { offset: 0x83E20, size: 0x8, addend: 0x0, symName: __ZN5dmDDF11InputBuffer12ReadVarInt32EPj.cold.2, symObjAddr: 0x6A8, symBinAddr: 0x10024ED38, symSize: 0x28 }
  - { offset: 0x83E38, size: 0x8, addend: 0x0, symName: __ZN5dmDDF11InputBuffer12ReadVarInt32EPj.cold.1, symObjAddr: 0x684, symBinAddr: 0x10024ED14, symSize: 0x24 }
  - { offset: 0x83E50, size: 0x8, addend: 0x0, symName: __ZN5dmDDF11InputBuffer12ReadVarInt64EPy, symObjAddr: 0x190, symBinAddr: 0x10002E464, symSize: 0x50 }
  - { offset: 0x83E9F, size: 0x8, addend: 0x0, symName: __ZN5dmDDF11InputBuffer3EofEv, symObjAddr: 0x1E0, symBinAddr: 0x10002E4B4, symSize: 0x20 }
  - { offset: 0x83ECA, size: 0x8, addend: 0x0, symName: __ZN5dmDDF11InputBuffer11ReadFixed32EPj, symObjAddr: 0x200, symBinAddr: 0x10002E4D4, symSize: 0x54 }
  - { offset: 0x83ED5, size: 0x8, addend: 0x0, symName: __ZN5dmDDF11InputBuffer3EofEv.cold.1, symObjAddr: 0x6D0, symBinAddr: 0x10024ED60, symSize: 0x28 }
  - { offset: 0x83EED, size: 0x8, addend: 0x0, symName: __ZN5dmDDF11InputBuffer11ReadFixed32EPj, symObjAddr: 0x200, symBinAddr: 0x10002E4D4, symSize: 0x54 }
  - { offset: 0x83F1F, size: 0x8, addend: 0x0, symName: __ZN5dmDDF11InputBuffer11ReadFixed64EPy, symObjAddr: 0x254, symBinAddr: 0x10002E528, symSize: 0x84 }
  - { offset: 0x83F7E, size: 0x8, addend: 0x0, symName: __ZN5dmDDF11InputBuffer9ReadFloatEPf, symObjAddr: 0x2D8, symBinAddr: 0x10002E5AC, symSize: 0x28 }
  - { offset: 0x8402F, size: 0x8, addend: 0x0, symName: __ZN5dmDDF11InputBuffer10ReadDoubleEPd, symObjAddr: 0x300, symBinAddr: 0x10002E5D4, symSize: 0x28 }
  - { offset: 0x840E0, size: 0x8, addend: 0x0, symName: __ZN5dmDDF11InputBuffer9ReadInt32EPi, symObjAddr: 0x328, symBinAddr: 0x10002E5FC, symSize: 0x94 }
  - { offset: 0x84188, size: 0x8, addend: 0x0, symName: __ZN5dmDDF11InputBuffer8ReadBoolEPb, symObjAddr: 0x4F0, symBinAddr: 0x10002E690, symSize: 0xA0 }
  - { offset: 0x84204, size: 0x8, addend: 0x0, symName: __ZN5dmDDF11InputBuffer9SubBufferEjPS0_, symObjAddr: 0x590, symBinAddr: 0x10002E730, symSize: 0x2C }
  - { offset: 0x84223, size: 0x8, addend: 0x0, symName: __ZN5dmDDF11InputBuffer9SubBufferEjPS0_, symObjAddr: 0x590, symBinAddr: 0x10002E730, symSize: 0x2C }
  - { offset: 0x84279, size: 0x8, addend: 0x0, symName: _OUTLINED_FUNCTION_0, symObjAddr: 0x764, symBinAddr: 0x10002E75C, symSize: 0x8 }
  - { offset: 0x842B6, size: 0x8, addend: 0x0, symName: __ZN5dmDDF14ScalarTypeSizeEj, symObjAddr: 0x0, symBinAddr: 0x10002E764, symSize: 0x38 }
  - { offset: 0x842D7, size: 0x8, addend: 0x0, symName: __ZN5dmDDF14ScalarTypeSizeEj, symObjAddr: 0x0, symBinAddr: 0x10002E764, symSize: 0x38 }
  - { offset: 0x84307, size: 0x8, addend: 0x0, symName: __ZN5dmDDF14ScalarTypeSizeEj.cold.1, symObjAddr: 0x38, symBinAddr: 0x10024ED88, symSize: 0x28 }
  - { offset: 0x84313, size: 0x8, addend: 0x0, symName: __ZN5dmDDF14ScalarTypeSizeEj.cold.1, symObjAddr: 0x38, symBinAddr: 0x10024ED88, symSize: 0x28 }
  - { offset: 0x843CF, size: 0x8, addend: 0x0, symName: __ZN5dmDDF17DoResolvePointersEPKNS_10DescriptorEPv, symObjAddr: 0xB24, symBinAddr: 0x10002F154, symSize: 0x15C }
  - { offset: 0x8440D, size: 0x8, addend: 0x0, symName: __ZN5dmDDF17DoResolvePointersEPKNS_10DescriptorEPv, symObjAddr: 0xB24, symBinAddr: 0x10002F154, symSize: 0x15C }
  - { offset: 0x845EC, size: 0x8, addend: 0x0, symName: __ZN5dmDDF7MessageC1EPKNS_10DescriptorEPcjb, symObjAddr: 0x14, symBinAddr: 0x10002E79C, symSize: 0x14 }
  - { offset: 0x8462F, size: 0x8, addend: 0x0, symName: __ZN5dmDDF7MessageC1EPKNS_10DescriptorEPcjb, symObjAddr: 0x14, symBinAddr: 0x10002E79C, symSize: 0x14 }
  - { offset: 0x8465E, size: 0x8, addend: 0x0, symName: __ZN5dmDDF7Message15ReadScalarFieldEPNS_11LoadContextENS_8WireTypeEPKNS_15FieldDescriptorEPNS_11InputBufferE, symObjAddr: 0x28, symBinAddr: 0x10002E7B0, symSize: 0x1B8 }
  - { offset: 0x847A7, size: 0x8, addend: 0x0, symName: __ZN5dmDDF7Message9AddScalarEPKNS_15FieldDescriptorEPKvi, symObjAddr: 0x1E0, symBinAddr: 0x10002E968, symSize: 0x88 }
  - { offset: 0x847B2, size: 0x8, addend: 0x0, symName: __ZN5dmDDF7Message9AddScalarEPKNS_15FieldDescriptorEPKvi, symObjAddr: 0x1E0, symBinAddr: 0x10002E968, symSize: 0x88 }
  - { offset: 0x84866, size: 0x8, addend: 0x0, symName: __ZN5dmDDF7Message9SetScalarEPKNS_15FieldDescriptorEPKvi, symObjAddr: 0x268, symBinAddr: 0x10002E9F0, symSize: 0x6C }
  - { offset: 0x84871, size: 0x8, addend: 0x0, symName: __ZN5dmDDF7Message9SetScalarEPKNS_15FieldDescriptorEPKvi, symObjAddr: 0x268, symBinAddr: 0x10002E9F0, symSize: 0x6C }
  - { offset: 0x848E3, size: 0x8, addend: 0x0, symName: __ZN5dmDDF7Message15ReadStringFieldEPNS_11LoadContextENS_8WireTypeEPKNS_15FieldDescriptorEPNS_11InputBufferE, symObjAddr: 0x2D4, symBinAddr: 0x10002EA5C, symSize: 0x11C }
  - { offset: 0x848EE, size: 0x8, addend: 0x0, symName: __ZN5dmDDF7Message15ReadScalarFieldEPNS_11LoadContextENS_8WireTypeEPKNS_15FieldDescriptorEPNS_11InputBufferE.cold.1, symObjAddr: 0xC80, symBinAddr: 0x10024EDB0, symSize: 0x28 }
  - { offset: 0x8491B, size: 0x8, addend: 0x0, symName: __ZN5dmDDF7Message15ReadScalarFieldEPNS_11LoadContextENS_8WireTypeEPKNS_15FieldDescriptorEPNS_11InputBufferE.cold.2, symObjAddr: 0xCA8, symBinAddr: 0x10024EDD8, symSize: 0x28 }
  - { offset: 0x84953, size: 0x8, addend: 0x0, symName: __ZN5dmDDF7Message9AddScalarEPKNS_15FieldDescriptorEPKvi.cold.1, symObjAddr: 0xCD0, symBinAddr: 0x10024EE00, symSize: 0x28 }
  - { offset: 0x8496B, size: 0x8, addend: 0x0, symName: __ZN5dmDDF7Message9AddScalarEPKNS_15FieldDescriptorEPKvi.cold.2, symObjAddr: 0xCF8, symBinAddr: 0x10024EE28, symSize: 0x28 }
  - { offset: 0x84983, size: 0x8, addend: 0x0, symName: __ZN5dmDDF7Message9SetScalarEPKNS_15FieldDescriptorEPKvi.cold.3, symObjAddr: 0xD70, symBinAddr: 0x10024EEA0, symSize: 0x28 }
  - { offset: 0x8499B, size: 0x8, addend: 0x0, symName: __ZN5dmDDF7Message9SetScalarEPKNS_15FieldDescriptorEPKvi.cold.1, symObjAddr: 0xD20, symBinAddr: 0x10024EE50, symSize: 0x28 }
  - { offset: 0x849B3, size: 0x8, addend: 0x0, symName: __ZN5dmDDF7Message9SetScalarEPKNS_15FieldDescriptorEPKvi.cold.2, symObjAddr: 0xD48, symBinAddr: 0x10024EE78, symSize: 0x28 }
  - { offset: 0x84A2D, size: 0x8, addend: 0x0, symName: __ZN5dmDDF7Message15ReadStringFieldEPNS_11LoadContextENS_8WireTypeEPKNS_15FieldDescriptorEPNS_11InputBufferE, symObjAddr: 0x2D4, symBinAddr: 0x10002EA5C, symSize: 0x11C }
  - { offset: 0x84B36, size: 0x8, addend: 0x0, symName: __ZN5dmDDF7Message9AddStringEPNS_11LoadContextEPKNS_15FieldDescriptorEPKci, symObjAddr: 0x3F0, symBinAddr: 0x10002EB78, symSize: 0x100 }
  - { offset: 0x84B41, size: 0x8, addend: 0x0, symName: __ZN5dmDDF7Message9AddStringEPNS_11LoadContextEPKNS_15FieldDescriptorEPKci, symObjAddr: 0x3F0, symBinAddr: 0x10002EB78, symSize: 0x100 }
  - { offset: 0x84C3F, size: 0x8, addend: 0x0, symName: __ZN5dmDDF7Message9SetStringEPNS_11LoadContextEPKNS_15FieldDescriptorEPKci, symObjAddr: 0x4F0, symBinAddr: 0x10002EC78, symSize: 0xA4 }
  - { offset: 0x84C4A, size: 0x8, addend: 0x0, symName: __ZN5dmDDF7Message15ReadStringFieldEPNS_11LoadContextENS_8WireTypeEPKNS_15FieldDescriptorEPNS_11InputBufferE.cold.1, symObjAddr: 0xD98, symBinAddr: 0x10024EEC8, symSize: 0x28 }
  - { offset: 0x84C77, size: 0x8, addend: 0x0, symName: __ZN5dmDDF7Message9AddStringEPNS_11LoadContextEPKNS_15FieldDescriptorEPKci.cold.1, symObjAddr: 0xDC0, symBinAddr: 0x10024EEF0, symSize: 0x28 }
  - { offset: 0x84C8F, size: 0x8, addend: 0x0, symName: __ZN5dmDDF7Message9AddStringEPNS_11LoadContextEPKNS_15FieldDescriptorEPKci.cold.2, symObjAddr: 0xDE8, symBinAddr: 0x10024EF18, symSize: 0x28 }
  - { offset: 0x84CA7, size: 0x8, addend: 0x0, symName: __ZN5dmDDF7Message9SetStringEPNS_11LoadContextEPKNS_15FieldDescriptorEPKci, symObjAddr: 0x4F0, symBinAddr: 0x10002EC78, symSize: 0xA4 }
  - { offset: 0x84D3E, size: 0x8, addend: 0x0, symName: __ZN5dmDDF7Message8SetBytesEPNS_11LoadContextEPKNS_15FieldDescriptorEPKci, symObjAddr: 0x630, symBinAddr: 0x10002ED1C, symSize: 0xB0 }
  - { offset: 0x84DFA, size: 0x8, addend: 0x0, symName: __ZN5dmDDF7Message16ReadMessageFieldEPNS_11LoadContextENS_8WireTypeEPKNS_15FieldDescriptorEPNS_11InputBufferE, symObjAddr: 0x6E0, symBinAddr: 0x10002EDCC, symSize: 0x15C }
  - { offset: 0x84E05, size: 0x8, addend: 0x0, symName: __ZN5dmDDF7Message8SetBytesEPNS_11LoadContextEPKNS_15FieldDescriptorEPKci.cold.1, symObjAddr: 0xE60, symBinAddr: 0x10024EF40, symSize: 0x28 }
  - { offset: 0x84E1D, size: 0x8, addend: 0x0, symName: __ZN5dmDDF7Message8SetBytesEPNS_11LoadContextEPKNS_15FieldDescriptorEPKci.cold.2, symObjAddr: 0xE88, symBinAddr: 0x10024EF68, symSize: 0x28 }
  - { offset: 0x84EBA, size: 0x8, addend: 0x0, symName: __ZN5dmDDF7Message16ReadMessageFieldEPNS_11LoadContextENS_8WireTypeEPKNS_15FieldDescriptorEPNS_11InputBufferE, symObjAddr: 0x6E0, symBinAddr: 0x10002EDCC, symSize: 0x15C }
  - { offset: 0x850A7, size: 0x8, addend: 0x0, symName: __ZN5dmDDF7Message16ReadMessageFieldEPNS_11LoadContextENS_8WireTypeEPKNS_15FieldDescriptorEPNS_11InputBufferE.cold.2, symObjAddr: 0xED8, symBinAddr: 0x10024EFB8, symSize: 0x28 }
  - { offset: 0x850BF, size: 0x8, addend: 0x0, symName: __ZN5dmDDF7Message16ReadMessageFieldEPNS_11LoadContextENS_8WireTypeEPKNS_15FieldDescriptorEPNS_11InputBufferE.cold.1, symObjAddr: 0xEB0, symBinAddr: 0x10024EF90, symSize: 0x28 }
  - { offset: 0x850EC, size: 0x8, addend: 0x0, symName: __ZN5dmDDF7Message10SubMessageEPKNS_15FieldDescriptorE, symObjAddr: 0x8BC, symBinAddr: 0x10002EF28, symSize: 0x6C }
  - { offset: 0x851F1, size: 0x8, addend: 0x0, symName: __ZN5dmDDF7Message9ReadFieldEPNS_11LoadContextENS_8WireTypeEPKNS_15FieldDescriptorEPNS_11InputBufferE, symObjAddr: 0x928, symBinAddr: 0x10002EF94, symSize: 0xF8 }
  - { offset: 0x851FC, size: 0x8, addend: 0x0, symName: __ZN5dmDDF7Message10SubMessageEPKNS_15FieldDescriptorE.cold.1, symObjAddr: 0xF50, symBinAddr: 0x10024EFE0, symSize: 0x28 }
  - { offset: 0x85214, size: 0x8, addend: 0x0, symName: __ZN5dmDDF7Message10SubMessageEPKNS_15FieldDescriptorE.cold.2, symObjAddr: 0xF78, symBinAddr: 0x10024F008, symSize: 0x28 }
  - { offset: 0x85285, size: 0x8, addend: 0x0, symName: __ZN5dmDDF7Message9ReadFieldEPNS_11LoadContextENS_8WireTypeEPKNS_15FieldDescriptorEPNS_11InputBufferE, symObjAddr: 0x928, symBinAddr: 0x10002EF94, symSize: 0xF8 }
  - { offset: 0x85380, size: 0x8, addend: 0x0, symName: __ZN5dmDDF7Message8SetOneOfEPKNS_10DescriptorEPKNS_15FieldDescriptorE, symObjAddr: 0xA20, symBinAddr: 0x10002F08C, symSize: 0x54 }
  - { offset: 0x8538B, size: 0x8, addend: 0x0, symName: __ZN5dmDDF7Message9ReadFieldEPNS_11LoadContextENS_8WireTypeEPKNS_15FieldDescriptorEPNS_11InputBufferE.cold.1, symObjAddr: 0xFA0, symBinAddr: 0x10024F030, symSize: 0x28 }
  - { offset: 0x853B8, size: 0x8, addend: 0x0, symName: __ZN5dmDDF7Message8SetOneOfEPKNS_10DescriptorEPKNS_15FieldDescriptorE, symObjAddr: 0xA20, symBinAddr: 0x10002F08C, symSize: 0x54 }
  - { offset: 0x8546C, size: 0x8, addend: 0x0, symName: __ZN5dmDDF7Message8SetOneOfEPKNS_10DescriptorEPKNS_15FieldDescriptorE.cold.2, symObjAddr: 0xFF0, symBinAddr: 0x10024F080, symSize: 0x28 }
  - { offset: 0x85484, size: 0x8, addend: 0x0, symName: __ZN5dmDDF7Message8SetOneOfEPKNS_10DescriptorEPKNS_15FieldDescriptorE.cold.1, symObjAddr: 0xFC8, symBinAddr: 0x10024F058, symSize: 0x28 }
  - { offset: 0x854DA, size: 0x8, addend: 0x0, symName: __ZN5dmDDF7Message22AllocateRepeatedBufferEPNS_11LoadContextEPKNS_15FieldDescriptorEi, symObjAddr: 0xAB0, symBinAddr: 0x10002F0E0, symSize: 0x74 }
  - { offset: 0x855B0, size: 0x8, addend: 0x0, symName: __ZN5dmDDF17DoResolvePointersEPKNS_10DescriptorEPv, symObjAddr: 0xB24, symBinAddr: 0x10002F154, symSize: 0x15C }
  - { offset: 0x855BB, size: 0x8, addend: 0x0, symName: __ZN5dmDDF7Message22AllocateRepeatedBufferEPNS_11LoadContextEPKNS_15FieldDescriptorEi.cold.1, symObjAddr: 0x1040, symBinAddr: 0x10024F0A8, symSize: 0x28 }
  - { offset: 0x855D3, size: 0x8, addend: 0x0, symName: __ZN5dmDDF7Message22AllocateRepeatedBufferEPNS_11LoadContextEPKNS_15FieldDescriptorEi.cold.2, symObjAddr: 0x1068, symBinAddr: 0x10024F0D0, symSize: 0x28 }
  - { offset: 0x85B24, size: 0x8, addend: 0x0, symName: __ZN11dmHashTableIjjE11SetCapacityEjj, symObjAddr: 0x7C, symBinAddr: 0x10002F2B0, symSize: 0x15C }
  - { offset: 0x85CEF, size: 0x8, addend: 0x0, symName: __ZN5dmDDF11LoadContextC1EPcibj, symObjAddr: 0x1D8, symBinAddr: 0x10002F40C, symSize: 0x7C }
  - { offset: 0x85DE0, size: 0x8, addend: 0x0, symName: __ZN11dmHashTableIjjE3PutEjRKj, symObjAddr: 0x50C, symBinAddr: 0x10002F740, symSize: 0x13C }
  - { offset: 0x85F30, size: 0x8, addend: 0x0, symName: __ZN5dmDDF11LoadContext13GetArrayCountEjj, symObjAddr: 0x648, symBinAddr: 0x10002F87C, symSize: 0xB0 }
  - { offset: 0x85FC9, size: 0x8, addend: 0x0, symName: __ZN5dmDDF11LoadContextC1EPcibj, symObjAddr: 0x1D8, symBinAddr: 0x10002F40C, symSize: 0x7C }
  - { offset: 0x8611E, size: 0x8, addend: 0x0, symName: __ZN5dmDDF11LoadContext12AllocMessageEPKNS_10DescriptorE, symObjAddr: 0x254, symBinAddr: 0x10002F488, symSize: 0x40 }
  - { offset: 0x86167, size: 0x8, addend: 0x0, symName: __ZN5dmDDF11LoadContext13AllocRepeatedEPKNS_15FieldDescriptorEi, symObjAddr: 0x294, symBinAddr: 0x10002F4C8, symSize: 0xA4 }
  - { offset: 0x86172, size: 0x8, addend: 0x0, symName: __ZN5dmDDF11LoadContext12AllocMessageEPKNS_10DescriptorE.cold.1, symObjAddr: 0x8B4, symBinAddr: 0x10024F0F8, symSize: 0x28 }
  - { offset: 0x8618A, size: 0x8, addend: 0x0, symName: __ZN5dmDDF11LoadContext13AllocRepeatedEPKNS_15FieldDescriptorEi, symObjAddr: 0x294, symBinAddr: 0x10002F4C8, symSize: 0xA4 }
  - { offset: 0x8620D, size: 0x8, addend: 0x0, symName: __ZN5dmDDF11LoadContext11AllocStringEi, symObjAddr: 0x338, symBinAddr: 0x10002F56C, symSize: 0x34 }
  - { offset: 0x86218, size: 0x8, addend: 0x0, symName: __ZN5dmDDF11LoadContext13AllocRepeatedEPKNS_15FieldDescriptorEi.cold.1, symObjAddr: 0x8DC, symBinAddr: 0x10024F120, symSize: 0x28 }
  - { offset: 0x86230, size: 0x8, addend: 0x0, symName: __ZN5dmDDF11LoadContext11AllocStringEi, symObjAddr: 0x338, symBinAddr: 0x10002F56C, symSize: 0x34 }
  - { offset: 0x86279, size: 0x8, addend: 0x0, symName: __ZN5dmDDF11LoadContext10AllocBytesEi, symObjAddr: 0x36C, symBinAddr: 0x10002F5A0, symSize: 0x3C }
  - { offset: 0x86284, size: 0x8, addend: 0x0, symName: __ZN5dmDDF11LoadContext11AllocStringEi.cold.1, symObjAddr: 0x904, symBinAddr: 0x10024F148, symSize: 0x28 }
  - { offset: 0x8629C, size: 0x8, addend: 0x0, symName: __ZN5dmDDF11LoadContext10AllocBytesEi, symObjAddr: 0x36C, symBinAddr: 0x10002F5A0, symSize: 0x3C }
  - { offset: 0x862E5, size: 0x8, addend: 0x0, symName: __ZN5dmDDF11LoadContext9GetOffsetEPv, symObjAddr: 0x3A8, symBinAddr: 0x10002F5DC, symSize: 0xC }
  - { offset: 0x862F0, size: 0x8, addend: 0x0, symName: __ZN5dmDDF11LoadContext10AllocBytesEi.cold.1, symObjAddr: 0x92C, symBinAddr: 0x10024F170, symSize: 0x28 }
  - { offset: 0x86308, size: 0x8, addend: 0x0, symName: __ZN5dmDDF11LoadContext9GetOffsetEPv, symObjAddr: 0x3A8, symBinAddr: 0x10002F5DC, symSize: 0xC }
  - { offset: 0x8633E, size: 0x8, addend: 0x0, symName: __ZN5dmDDF11LoadContext10GetPointerEj, symObjAddr: 0x3B4, symBinAddr: 0x10002F5E8, symSize: 0xC }
  - { offset: 0x86374, size: 0x8, addend: 0x0, symName: __ZN5dmDDF11LoadContext15SetMemoryBufferEPcib, symObjAddr: 0x3C0, symBinAddr: 0x10002F5F4, symSize: 0x28 }
  - { offset: 0x863C4, size: 0x8, addend: 0x0, symName: __ZN5dmDDF11LoadContext24GetDynamicTypeMemorySizeEv, symObjAddr: 0x3E8, symBinAddr: 0x10002F61C, symSize: 0x8 }
  - { offset: 0x863ED, size: 0x8, addend: 0x0, symName: __ZN5dmDDF11LoadContext14GetMemoryUsageEv, symObjAddr: 0x3F0, symBinAddr: 0x10002F624, symSize: 0x10 }
  - { offset: 0x864AB, size: 0x8, addend: 0x0, symName: __ZN5dmDDF11LoadContext18IncreaseArrayCountEjj, symObjAddr: 0x400, symBinAddr: 0x10002F634, symSize: 0x10C }
  - { offset: 0x86673, size: 0x8, addend: 0x0, symName: __ZN5dmDDF11LoadContext13GetArrayCountEjj, symObjAddr: 0x648, symBinAddr: 0x10002F87C, symSize: 0xB0 }
  - { offset: 0x8676F, size: 0x8, addend: 0x0, symName: __ZN5dmDDF11LoadContext21GetDynamicTypePointerEj, symObjAddr: 0x6F8, symBinAddr: 0x10002F92C, symSize: 0x14 }
  - { offset: 0x867A5, size: 0x8, addend: 0x0, symName: __ZN5dmDDF11LoadContext18SetDynamicTypeBaseEj, symObjAddr: 0x70C, symBinAddr: 0x10002F940, symSize: 0x8 }
  - { offset: 0x8688C, size: 0x8, addend: 0x0, symName: __ZN5dmDDF11LoadContext21AddDynamicMessageSizeEj, symObjAddr: 0x714, symBinAddr: 0x10002F948, symSize: 0xC4 }
  - { offset: 0x869A7, size: 0x8, addend: 0x0, symName: __ZN5dmDDF11LoadContext21NextDynamicTypeOffsetEv, symObjAddr: 0x7D8, symBinAddr: 0x10002FA0C, symSize: 0x34 }
  - { offset: 0x86A32, size: 0x8, addend: 0x0, symName: __ZN5dmDDF11LoadContext21NextDynamicTypeOffsetEv, symObjAddr: 0x7D8, symBinAddr: 0x10002FA0C, symSize: 0x34 }
  - { offset: 0x86A9C, size: 0x8, addend: 0x0, symName: __ZN5dmDDF11LoadContext24ResetDynamicOffsetCursorEv, symObjAddr: 0x80C, symBinAddr: 0x10002FA40, symSize: 0x8 }
  - { offset: 0x86ABB, size: 0x8, addend: 0x0, symName: __ZN5dmDDF11LoadContext24ResetDynamicOffsetCursorEv, symObjAddr: 0x80C, symBinAddr: 0x10002FA40, symSize: 0x8 }
  - { offset: 0x86BA7, size: 0x8, addend: 0x0, symName: __ZN5dmDDF12OutputStreamC1EPFbPvPKvjES1_, symObjAddr: 0x8, symBinAddr: 0x10002FA48, symSize: 0x8 }
  - { offset: 0x86BEE, size: 0x8, addend: 0x0, symName: __ZN5dmDDF12OutputStreamC1EPFbPvPKvjES1_, symObjAddr: 0x8, symBinAddr: 0x10002FA48, symSize: 0x8 }
  - { offset: 0x86C16, size: 0x8, addend: 0x0, symName: __ZN5dmDDF12OutputStream5WriteEPKvi, symObjAddr: 0x10, symBinAddr: 0x10002FA50, symSize: 0x8 }
  - { offset: 0x86CD8, size: 0x8, addend: 0x0, symName: __ZN5dmDDF12OutputStream8WriteTagEjNS_8WireTypeE, symObjAddr: 0x18, symBinAddr: 0x10002FA58, symSize: 0x64 }
  - { offset: 0x86D90, size: 0x8, addend: 0x0, symName: __ZN5dmDDF12OutputStream13WriteVarInt32Ej, symObjAddr: 0x7C, symBinAddr: 0x10002FABC, symSize: 0x60 }
  - { offset: 0x86E43, size: 0x8, addend: 0x0, symName: __ZN5dmDDF12OutputStream25WriteVarInt32SignExtendedEi, symObjAddr: 0xDC, symBinAddr: 0x10002FB1C, symSize: 0xC4 }
  - { offset: 0x86F25, size: 0x8, addend: 0x0, symName: __ZN5dmDDF12OutputStream13WriteVarInt64Ey, symObjAddr: 0x1A0, symBinAddr: 0x10002FBE0, symSize: 0x8C }
  - { offset: 0x86FCD, size: 0x8, addend: 0x0, symName: __ZN5dmDDF12OutputStream10WriteFloatEf, symObjAddr: 0x2B0, symBinAddr: 0x10002FC6C, symSize: 0x2C }
  - { offset: 0x870EE, size: 0x8, addend: 0x0, symName: __ZN5dmDDF12OutputStream11WriteDoubleEd, symObjAddr: 0x2DC, symBinAddr: 0x10002FC98, symSize: 0x58 }
  - { offset: 0x871D4, size: 0x8, addend: 0x0, symName: __ZN5dmDDF12OutputStream9WriteBoolEb, symObjAddr: 0x50C, symBinAddr: 0x10002FCF0, symSize: 0x2C }
  - { offset: 0x87287, size: 0x8, addend: 0x0, symName: __ZN5dmDDF12OutputStream11WriteStringEPKc, symObjAddr: 0x538, symBinAddr: 0x10002FD1C, symSize: 0xB8 }
  - { offset: 0x87428, size: 0x8, addend: 0x0, symName: _dmMath_Point3_x_DEFAULT_VALUE, symObjAddr: 0x7BA8, symBinAddr: 0x1003696A8, symSize: 0x0 }
  - { offset: 0x87459, size: 0x8, addend: 0x0, symName: _dmMath_Point3_y_DEFAULT_VALUE, symObjAddr: 0x7BB0, symBinAddr: 0x1003696B0, symSize: 0x0 }
  - { offset: 0x87470, size: 0x8, addend: 0x0, symName: _dmMath_Point3_z_DEFAULT_VALUE, symObjAddr: 0x7BB8, symBinAddr: 0x1003696B8, symSize: 0x0 }
  - { offset: 0x87487, size: 0x8, addend: 0x0, symName: _dmMath_Point3_d_DEFAULT_VALUE, symObjAddr: 0x7BC0, symBinAddr: 0x1003696C0, symSize: 0x0 }
  - { offset: 0x8749D, size: 0x8, addend: 0x0, symName: _dmMath_Point3_FIELDS_DESCRIPTOR, symObjAddr: 0x430, symBinAddr: 0x100342CE8, symSize: 0x0 }
  - { offset: 0x874E0, size: 0x8, addend: 0x0, symName: _dmMath_Point3_ONEOF_OFFSETS, symObjAddr: 0x7BC8, symBinAddr: 0x1003696C8, symSize: 0x0 }
  - { offset: 0x874F6, size: 0x8, addend: 0x0, symName: _dmMath_Point3_DESCRIPTOR, symObjAddr: 0x7BD0, symBinAddr: 0x1003696D0, symSize: 0x0 }
  - { offset: 0x87513, size: 0x8, addend: 0x0, symName: _g_Register_dmMath_Point3, symObjAddr: 0x7C18, symBinAddr: 0x100369718, symSize: 0x0 }
  - { offset: 0x8752A, size: 0x8, addend: 0x0, symName: _dmMath_Vector3_x_DEFAULT_VALUE, symObjAddr: 0x7C1C, symBinAddr: 0x10036971C, symSize: 0x0 }
  - { offset: 0x87541, size: 0x8, addend: 0x0, symName: _dmMath_Vector3_y_DEFAULT_VALUE, symObjAddr: 0x7C24, symBinAddr: 0x100369724, symSize: 0x0 }
  - { offset: 0x87558, size: 0x8, addend: 0x0, symName: _dmMath_Vector3_z_DEFAULT_VALUE, symObjAddr: 0x7C2C, symBinAddr: 0x10036972C, symSize: 0x0 }
  - { offset: 0x8756F, size: 0x8, addend: 0x0, symName: _dmMath_Vector3_d_DEFAULT_VALUE, symObjAddr: 0x7C34, symBinAddr: 0x100369734, symSize: 0x0 }
  - { offset: 0x87585, size: 0x8, addend: 0x0, symName: _dmMath_Vector3_FIELDS_DESCRIPTOR, symObjAddr: 0x4F8, symBinAddr: 0x100342DA8, symSize: 0x0 }
  - { offset: 0x8759B, size: 0x8, addend: 0x0, symName: _dmMath_Vector3_ONEOF_OFFSETS, symObjAddr: 0x7C40, symBinAddr: 0x100369740, symSize: 0x0 }
  - { offset: 0x875B1, size: 0x8, addend: 0x0, symName: _dmMath_Vector3_DESCRIPTOR, symObjAddr: 0x7C48, symBinAddr: 0x100369748, symSize: 0x0 }
  - { offset: 0x875C7, size: 0x8, addend: 0x0, symName: _g_Register_dmMath_Vector3, symObjAddr: 0x7C90, symBinAddr: 0x100369790, symSize: 0x0 }
  - { offset: 0x875DE, size: 0x8, addend: 0x0, symName: _dmMath_Vector3One_x_DEFAULT_VALUE, symObjAddr: 0x5C0, symBinAddr: 0x100342E68, symSize: 0x0 }
  - { offset: 0x875F5, size: 0x8, addend: 0x0, symName: _dmMath_Vector3One_y_DEFAULT_VALUE, symObjAddr: 0x5C8, symBinAddr: 0x100342E70, symSize: 0x0 }
  - { offset: 0x8760C, size: 0x8, addend: 0x0, symName: _dmMath_Vector3One_z_DEFAULT_VALUE, symObjAddr: 0x5D0, symBinAddr: 0x100342E78, symSize: 0x0 }
  - { offset: 0x87623, size: 0x8, addend: 0x0, symName: _dmMath_Vector3One_d_DEFAULT_VALUE, symObjAddr: 0x5D8, symBinAddr: 0x100342E80, symSize: 0x0 }
  - { offset: 0x87639, size: 0x8, addend: 0x0, symName: _dmMath_Vector3One_FIELDS_DESCRIPTOR, symObjAddr: 0x5E0, symBinAddr: 0x100342E88, symSize: 0x0 }
  - { offset: 0x8764F, size: 0x8, addend: 0x0, symName: _dmMath_Vector3One_ONEOF_OFFSETS, symObjAddr: 0x7C98, symBinAddr: 0x100369798, symSize: 0x0 }
  - { offset: 0x87665, size: 0x8, addend: 0x0, symName: _dmMath_Vector3One_DESCRIPTOR, symObjAddr: 0x7CA0, symBinAddr: 0x1003697A0, symSize: 0x0 }
  - { offset: 0x8767B, size: 0x8, addend: 0x0, symName: _g_Register_dmMath_Vector3One, symObjAddr: 0x7CE8, symBinAddr: 0x1003697E8, symSize: 0x0 }
  - { offset: 0x87692, size: 0x8, addend: 0x0, symName: _dmMath_Vector4_x_DEFAULT_VALUE, symObjAddr: 0x7CEC, symBinAddr: 0x1003697EC, symSize: 0x0 }
  - { offset: 0x876A9, size: 0x8, addend: 0x0, symName: _dmMath_Vector4_y_DEFAULT_VALUE, symObjAddr: 0x7CF4, symBinAddr: 0x1003697F4, symSize: 0x0 }
  - { offset: 0x876C0, size: 0x8, addend: 0x0, symName: _dmMath_Vector4_z_DEFAULT_VALUE, symObjAddr: 0x7CFC, symBinAddr: 0x1003697FC, symSize: 0x0 }
  - { offset: 0x876D7, size: 0x8, addend: 0x0, symName: _dmMath_Vector4_w_DEFAULT_VALUE, symObjAddr: 0x7D04, symBinAddr: 0x100369804, symSize: 0x0 }
  - { offset: 0x876ED, size: 0x8, addend: 0x0, symName: _dmMath_Vector4_FIELDS_DESCRIPTOR, symObjAddr: 0x6A8, symBinAddr: 0x100342F48, symSize: 0x0 }
  - { offset: 0x87703, size: 0x8, addend: 0x0, symName: _dmMath_Vector4_ONEOF_OFFSETS, symObjAddr: 0x7D10, symBinAddr: 0x100369810, symSize: 0x0 }
  - { offset: 0x87719, size: 0x8, addend: 0x0, symName: _dmMath_Vector4_DESCRIPTOR, symObjAddr: 0x7D18, symBinAddr: 0x100369818, symSize: 0x0 }
  - { offset: 0x8772F, size: 0x8, addend: 0x0, symName: _g_Register_dmMath_Vector4, symObjAddr: 0x7D60, symBinAddr: 0x100369860, symSize: 0x0 }
  - { offset: 0x87746, size: 0x8, addend: 0x0, symName: _dmMath_Vector4One_x_DEFAULT_VALUE, symObjAddr: 0x770, symBinAddr: 0x100343008, symSize: 0x0 }
  - { offset: 0x8775D, size: 0x8, addend: 0x0, symName: _dmMath_Vector4One_y_DEFAULT_VALUE, symObjAddr: 0x778, symBinAddr: 0x100343010, symSize: 0x0 }
  - { offset: 0x87774, size: 0x8, addend: 0x0, symName: _dmMath_Vector4One_z_DEFAULT_VALUE, symObjAddr: 0x780, symBinAddr: 0x100343018, symSize: 0x0 }
  - { offset: 0x8778B, size: 0x8, addend: 0x0, symName: _dmMath_Vector4One_w_DEFAULT_VALUE, symObjAddr: 0x788, symBinAddr: 0x100343020, symSize: 0x0 }
  - { offset: 0x877A1, size: 0x8, addend: 0x0, symName: _dmMath_Vector4One_FIELDS_DESCRIPTOR, symObjAddr: 0x790, symBinAddr: 0x100343028, symSize: 0x0 }
  - { offset: 0x877B7, size: 0x8, addend: 0x0, symName: _dmMath_Vector4One_ONEOF_OFFSETS, symObjAddr: 0x7D68, symBinAddr: 0x100369868, symSize: 0x0 }
  - { offset: 0x877CD, size: 0x8, addend: 0x0, symName: _dmMath_Vector4One_DESCRIPTOR, symObjAddr: 0x7D70, symBinAddr: 0x100369870, symSize: 0x0 }
  - { offset: 0x877E3, size: 0x8, addend: 0x0, symName: _g_Register_dmMath_Vector4One, symObjAddr: 0x7DB8, symBinAddr: 0x1003698B8, symSize: 0x0 }
  - { offset: 0x877FA, size: 0x8, addend: 0x0, symName: _dmMath_Vector4WOne_x_DEFAULT_VALUE, symObjAddr: 0x7DBC, symBinAddr: 0x1003698BC, symSize: 0x0 }
  - { offset: 0x87811, size: 0x8, addend: 0x0, symName: _dmMath_Vector4WOne_y_DEFAULT_VALUE, symObjAddr: 0x7DC4, symBinAddr: 0x1003698C4, symSize: 0x0 }
  - { offset: 0x87828, size: 0x8, addend: 0x0, symName: _dmMath_Vector4WOne_z_DEFAULT_VALUE, symObjAddr: 0x7DCC, symBinAddr: 0x1003698CC, symSize: 0x0 }
  - { offset: 0x8783F, size: 0x8, addend: 0x0, symName: _dmMath_Vector4WOne_w_DEFAULT_VALUE, symObjAddr: 0x858, symBinAddr: 0x1003430E8, symSize: 0x0 }
  - { offset: 0x87855, size: 0x8, addend: 0x0, symName: _dmMath_Vector4WOne_FIELDS_DESCRIPTOR, symObjAddr: 0x860, symBinAddr: 0x1003430F0, symSize: 0x0 }
  - { offset: 0x8786B, size: 0x8, addend: 0x0, symName: _dmMath_Vector4WOne_ONEOF_OFFSETS, symObjAddr: 0x7DD8, symBinAddr: 0x1003698D8, symSize: 0x0 }
  - { offset: 0x87881, size: 0x8, addend: 0x0, symName: _dmMath_Vector4WOne_DESCRIPTOR, symObjAddr: 0x7DE0, symBinAddr: 0x1003698E0, symSize: 0x0 }
  - { offset: 0x87897, size: 0x8, addend: 0x0, symName: _g_Register_dmMath_Vector4WOne, symObjAddr: 0x7E28, symBinAddr: 0x100369928, symSize: 0x0 }
  - { offset: 0x878AE, size: 0x8, addend: 0x0, symName: _dmMath_Quat_x_DEFAULT_VALUE, symObjAddr: 0x7E2C, symBinAddr: 0x10036992C, symSize: 0x0 }
  - { offset: 0x878C5, size: 0x8, addend: 0x0, symName: _dmMath_Quat_y_DEFAULT_VALUE, symObjAddr: 0x7E34, symBinAddr: 0x100369934, symSize: 0x0 }
  - { offset: 0x878DC, size: 0x8, addend: 0x0, symName: _dmMath_Quat_z_DEFAULT_VALUE, symObjAddr: 0x7E3C, symBinAddr: 0x10036993C, symSize: 0x0 }
  - { offset: 0x878F3, size: 0x8, addend: 0x0, symName: _dmMath_Quat_w_DEFAULT_VALUE, symObjAddr: 0x928, symBinAddr: 0x1003431B0, symSize: 0x0 }
  - { offset: 0x87909, size: 0x8, addend: 0x0, symName: _dmMath_Quat_FIELDS_DESCRIPTOR, symObjAddr: 0x930, symBinAddr: 0x1003431B8, symSize: 0x0 }
  - { offset: 0x8791F, size: 0x8, addend: 0x0, symName: _dmMath_Quat_ONEOF_OFFSETS, symObjAddr: 0x7E48, symBinAddr: 0x100369948, symSize: 0x0 }
  - { offset: 0x87935, size: 0x8, addend: 0x0, symName: _dmMath_Quat_DESCRIPTOR, symObjAddr: 0x7E50, symBinAddr: 0x100369950, symSize: 0x0 }
  - { offset: 0x8794B, size: 0x8, addend: 0x0, symName: _g_Register_dmMath_Quat, symObjAddr: 0x7E98, symBinAddr: 0x100369998, symSize: 0x0 }
  - { offset: 0x87961, size: 0x8, addend: 0x0, symName: _dmMath_Transform_FIELDS_DESCRIPTOR, symObjAddr: 0x9F8, symBinAddr: 0x100343278, symSize: 0x0 }
  - { offset: 0x87983, size: 0x8, addend: 0x0, symName: _dmMath_Transform_ONEOF_OFFSETS, symObjAddr: 0x7EA0, symBinAddr: 0x1003699A0, symSize: 0x0 }
  - { offset: 0x87999, size: 0x8, addend: 0x0, symName: _dmMath_Transform_DESCRIPTOR, symObjAddr: 0x7EA8, symBinAddr: 0x1003699A8, symSize: 0x0 }
  - { offset: 0x879B6, size: 0x8, addend: 0x0, symName: _g_Register_dmMath_Transform, symObjAddr: 0x7EF0, symBinAddr: 0x1003699F0, symSize: 0x0 }
  - { offset: 0x879CD, size: 0x8, addend: 0x0, symName: _dmMath_Matrix4_m00_DEFAULT_VALUE, symObjAddr: 0xA90, symBinAddr: 0x100343308, symSize: 0x0 }
  - { offset: 0x879E4, size: 0x8, addend: 0x0, symName: _dmMath_Matrix4_m01_DEFAULT_VALUE, symObjAddr: 0x7EF4, symBinAddr: 0x1003699F4, symSize: 0x0 }
  - { offset: 0x879FB, size: 0x8, addend: 0x0, symName: _dmMath_Matrix4_m02_DEFAULT_VALUE, symObjAddr: 0x7EFC, symBinAddr: 0x1003699FC, symSize: 0x0 }
  - { offset: 0x87A12, size: 0x8, addend: 0x0, symName: _dmMath_Matrix4_m03_DEFAULT_VALUE, symObjAddr: 0x7F04, symBinAddr: 0x100369A04, symSize: 0x0 }
  - { offset: 0x87A29, size: 0x8, addend: 0x0, symName: _dmMath_Matrix4_m10_DEFAULT_VALUE, symObjAddr: 0x7F0C, symBinAddr: 0x100369A0C, symSize: 0x0 }
  - { offset: 0x87A40, size: 0x8, addend: 0x0, symName: _dmMath_Matrix4_m11_DEFAULT_VALUE, symObjAddr: 0xA98, symBinAddr: 0x100343310, symSize: 0x0 }
  - { offset: 0x87A57, size: 0x8, addend: 0x0, symName: _dmMath_Matrix4_m12_DEFAULT_VALUE, symObjAddr: 0x7F14, symBinAddr: 0x100369A14, symSize: 0x0 }
  - { offset: 0x87A6E, size: 0x8, addend: 0x0, symName: _dmMath_Matrix4_m13_DEFAULT_VALUE, symObjAddr: 0x7F1C, symBinAddr: 0x100369A1C, symSize: 0x0 }
  - { offset: 0x87A85, size: 0x8, addend: 0x0, symName: _dmMath_Matrix4_m20_DEFAULT_VALUE, symObjAddr: 0x7F24, symBinAddr: 0x100369A24, symSize: 0x0 }
  - { offset: 0x87A9C, size: 0x8, addend: 0x0, symName: _dmMath_Matrix4_m21_DEFAULT_VALUE, symObjAddr: 0x7F2C, symBinAddr: 0x100369A2C, symSize: 0x0 }
  - { offset: 0x87AB3, size: 0x8, addend: 0x0, symName: _dmMath_Matrix4_m22_DEFAULT_VALUE, symObjAddr: 0xAA0, symBinAddr: 0x100343318, symSize: 0x0 }
  - { offset: 0x87ACA, size: 0x8, addend: 0x0, symName: _dmMath_Matrix4_m23_DEFAULT_VALUE, symObjAddr: 0x7F34, symBinAddr: 0x100369A34, symSize: 0x0 }
  - { offset: 0x87AE1, size: 0x8, addend: 0x0, symName: _dmMath_Matrix4_m30_DEFAULT_VALUE, symObjAddr: 0x7F3C, symBinAddr: 0x100369A3C, symSize: 0x0 }
  - { offset: 0x87AF8, size: 0x8, addend: 0x0, symName: _dmMath_Matrix4_m31_DEFAULT_VALUE, symObjAddr: 0x7F44, symBinAddr: 0x100369A44, symSize: 0x0 }
  - { offset: 0x87B0F, size: 0x8, addend: 0x0, symName: _dmMath_Matrix4_m32_DEFAULT_VALUE, symObjAddr: 0x7F4C, symBinAddr: 0x100369A4C, symSize: 0x0 }
  - { offset: 0x87B26, size: 0x8, addend: 0x0, symName: _dmMath_Matrix4_m33_DEFAULT_VALUE, symObjAddr: 0xAA8, symBinAddr: 0x100343320, symSize: 0x0 }
  - { offset: 0x87B3C, size: 0x8, addend: 0x0, symName: _dmMath_Matrix4_FIELDS_DESCRIPTOR, symObjAddr: 0xAB0, symBinAddr: 0x100343328, symSize: 0x0 }
  - { offset: 0x87B5F, size: 0x8, addend: 0x0, symName: _dmMath_Matrix4_ONEOF_OFFSETS, symObjAddr: 0x7F58, symBinAddr: 0x100369A58, symSize: 0x0 }
  - { offset: 0x87B76, size: 0x8, addend: 0x0, symName: _dmMath_Matrix4_DESCRIPTOR, symObjAddr: 0x7F60, symBinAddr: 0x100369A60, symSize: 0x0 }
  - { offset: 0x87B8D, size: 0x8, addend: 0x0, symName: _g_Register_dmMath_Matrix4, symObjAddr: 0x7FA8, symBinAddr: 0x100369AA8, symSize: 0x0 }
  - { offset: 0x87C15, size: 0x8, addend: 0x0, symName: __GLOBAL__sub_I_ddf_math.cpp, symObjAddr: 0x4, symBinAddr: 0x10002FDD4, symSize: 0x370 }
  - { offset: 0x87F9A, size: 0x8, addend: 0x0, symName: __ZN12dmLiveUpdate28LIVEUPDATE_LEGACY_MOUNT_NAMEE, symObjAddr: 0x2860, symBinAddr: 0x100343628, symSize: 0x0 }
  - { offset: 0x87FB3, size: 0x8, addend: 0x0, symName: __ZN12dmLiveUpdate32LIVEUPDATE_LEGACY_MOUNT_PRIORITYE, symObjAddr: 0x1BC8, symBinAddr: 0x100264284, symSize: 0x0 }
  - { offset: 0x87FCC, size: 0x8, addend: 0x0, symName: __ZN12dmLiveUpdate25LIVEUPDATE_INDEX_FILENAMEE, symObjAddr: 0x2868, symBinAddr: 0x100343630, symSize: 0x0 }
  - { offset: 0x87FE5, size: 0x8, addend: 0x0, symName: __ZN12dmLiveUpdate29LIVEUPDATE_INDEX_TMP_FILENAMEE, symObjAddr: 0x2870, symBinAddr: 0x100343638, symSize: 0x0 }
  - { offset: 0x87FFE, size: 0x8, addend: 0x0, symName: __ZN12dmLiveUpdate27LIVEUPDATE_ARCHIVE_FILENAMEE, symObjAddr: 0x2878, symBinAddr: 0x100343640, symSize: 0x0 }
  - { offset: 0x88017, size: 0x8, addend: 0x0, symName: __ZN12dmLiveUpdate31LIVEUPDATE_ARCHIVE_TMP_FILENAMEE, symObjAddr: 0x2880, symBinAddr: 0x100343648, symSize: 0x0 }
  - { offset: 0x88030, size: 0x8, addend: 0x0, symName: __ZN12dmLiveUpdate31LIVEUPDATE_ZIP_ARCHIVE_FILENAMEE, symObjAddr: 0x2888, symBinAddr: 0x100343650, symSize: 0x0 }
  - { offset: 0x88049, size: 0x8, addend: 0x0, symName: __ZN12dmLiveUpdate35LIVEUPDATE_ZIP_ARCHIVE_TMP_FILENAMEE, symObjAddr: 0x2890, symBinAddr: 0x100343658, symSize: 0x0 }
  - { offset: 0x88062, size: 0x8, addend: 0x0, symName: __ZN12dmLiveUpdate30LIVEUPDATE_BUNDLE_VER_FILENAMEE, symObjAddr: 0x2898, symBinAddr: 0x100343660, symSize: 0x0 }
  - { offset: 0x8807B, size: 0x8, addend: 0x0, symName: __ZN12dmLiveUpdate12g_LiveUpdateE, symObjAddr: 0x108A0, symBinAddr: 0x100369AB0, symSize: 0x0 }
  - { offset: 0x88115, size: 0x8, addend: 0x0, symName: __ZN12dmLiveUpdateL6UpdateEP15ExtensionParams, symObjAddr: 0x17E8, symBinAddr: 0x1000318A0, symSize: 0x60 }
  - { offset: 0x88140, size: 0x8, addend: 0x0, symName: __ZZN12dmLiveUpdateL6UpdateEP15ExtensionParamsE10_scope1006, symObjAddr: 0x10D60, symBinAddr: 0x1003582A8, symSize: 0x0 }
  - { offset: 0x88179, size: 0x8, addend: 0x0, symName: __ZN12dmLiveUpdateL6UpdateEP15ExtensionParams, symObjAddr: 0x17E8, symBinAddr: 0x1000318A0, symSize: 0x60 }
  - { offset: 0x88296, size: 0x8, addend: 0x0, symName: __ZN12dmLiveUpdate14ResultToStringENS_6ResultE, symObjAddr: 0x8C, symBinAddr: 0x100030144, symSize: 0xD8 }
  - { offset: 0x883D3, size: 0x8, addend: 0x0, symName: __ZN12dmLiveUpdate18StoreResourceAsyncEPKcjPKN17dmResourceArchive18LiveUpdateResourceEPFvbPvES6_, symObjAddr: 0x164, symBinAddr: 0x10003021C, symSize: 0x13C }
  - { offset: 0x88465, size: 0x8, addend: 0x0, symName: __ZN12dmLiveUpdate18StoreResourceAsyncEPKcjPKN17dmResourceArchive18LiveUpdateResourceEPFvbPvES6_, symObjAddr: 0x164, symBinAddr: 0x10003021C, symSize: 0x13C }
  - { offset: 0x8858F, size: 0x8, addend: 0x0, symName: __ZN12dmLiveUpdateL20StoreResourceProcessEPN11dmJobThread10JobContextEyPNS_13LiveUpdateCtxEPNS_12ResourceInfoE, symObjAddr: 0x2A0, symBinAddr: 0x100030358, symSize: 0xE8 }
  - { offset: 0x88685, size: 0x8, addend: 0x0, symName: __ZN12dmLiveUpdateL26LegacyCreateMutableArchiveEPKcPN18dmResourceProvider7ArchiveE, symObjAddr: 0x1848, symBinAddr: 0x100031900, symSize: 0x174 }
  - { offset: 0x88816, size: 0x8, addend: 0x0, symName: __ZN12dmLiveUpdateL21StoreResourceFinishedEPN11dmJobThread10JobContextEyNS0_9JobStatusEPNS_13LiveUpdateCtxEPNS_12ResourceInfoEi, symObjAddr: 0x388, symBinAddr: 0x100030440, symSize: 0x38 }
  - { offset: 0x888F6, size: 0x8, addend: 0x0, symName: __ZN12dmLiveUpdate18StoreManifestAsyncEPKhjPFviPvES2_, symObjAddr: 0x3C0, symBinAddr: 0x100030478, symSize: 0xFC }
  - { offset: 0x88978, size: 0x8, addend: 0x0, symName: __ZN12dmLiveUpdate18StoreManifestAsyncEPKhjPFviPvES2_, symObjAddr: 0x3C0, symBinAddr: 0x100030478, symSize: 0xFC }
  - { offset: 0x88A8D, size: 0x8, addend: 0x0, symName: __ZN12dmLiveUpdateL20StoreManifestProcessEPN11dmJobThread10JobContextEyPNS_13LiveUpdateCtxEPNS_17StoreManifestInfoE, symObjAddr: 0x4BC, symBinAddr: 0x100030574, symSize: 0x1E8 }
  - { offset: 0x88C60, size: 0x8, addend: 0x0, symName: __ZN12dmLiveUpdateL21StoreManifestFinishedEPN11dmJobThread10JobContextEyNS0_9JobStatusEPNS_13LiveUpdateCtxEPNS_17StoreManifestInfoEi, symObjAddr: 0x6A4, symBinAddr: 0x10003075C, symSize: 0x50 }
  - { offset: 0x88D67, size: 0x8, addend: 0x0, symName: __ZN12dmLiveUpdate17StoreArchiveAsyncEPKcPFvS1_iPvES2_S1_ib, symObjAddr: 0x6F4, symBinAddr: 0x1000307AC, symSize: 0x138 }
  - { offset: 0x88E09, size: 0x8, addend: 0x0, symName: __ZN12dmLiveUpdate17StoreArchiveAsyncEPKcPFvS1_iPvES2_S1_ib, symObjAddr: 0x6F4, symBinAddr: 0x1000307AC, symSize: 0x138 }
  - { offset: 0x88F2C, size: 0x8, addend: 0x0, symName: __ZN12dmLiveUpdateL19StoreArchiveProcessEPN11dmJobThread10JobContextEyPNS_13LiveUpdateCtxEPNS_16StoreArchiveInfoE, symObjAddr: 0x82C, symBinAddr: 0x1000308E4, symSize: 0x1B0 }
  - { offset: 0x8913F, size: 0x8, addend: 0x0, symName: __ZN12dmLiveUpdateL20StoreArchiveFinishedEPN11dmJobThread10JobContextEyNS0_9JobStatusEPNS_13LiveUpdateCtxEPNS_16StoreArchiveInfoEi, symObjAddr: 0x9DC, symBinAddr: 0x100030A94, symSize: 0x70 }
  - { offset: 0x89251, size: 0x8, addend: 0x0, symName: __ZN12dmLiveUpdate13AddMountAsyncEPKcS1_iPFvS1_S1_iPvES2_, symObjAddr: 0xA4C, symBinAddr: 0x100030B04, symSize: 0x104 }
  - { offset: 0x892E3, size: 0x8, addend: 0x0, symName: __ZN12dmLiveUpdate13AddMountAsyncEPKcS1_iPFvS1_S1_iPvES2_, symObjAddr: 0xA4C, symBinAddr: 0x100030B04, symSize: 0x104 }
  - { offset: 0x893E6, size: 0x8, addend: 0x0, symName: __ZN12dmLiveUpdateL15AddMountProcessEPN11dmJobThread10JobContextEyPNS_13LiveUpdateCtxEPNS_12AddMountInfoE, symObjAddr: 0xB50, symBinAddr: 0x100030C08, symSize: 0x140 }
  - { offset: 0x8954B, size: 0x8, addend: 0x0, symName: __ZN12dmLiveUpdateL16AddMountFinishedEPN11dmJobThread10JobContextEyNS0_9JobStatusEPNS_13LiveUpdateCtxEPNS_12AddMountInfoEi, symObjAddr: 0xC90, symBinAddr: 0x100030D48, symSize: 0x70 }
  - { offset: 0x89612, size: 0x8, addend: 0x0, symName: __ZN12dmLiveUpdate15RemoveMountSyncEPKc, symObjAddr: 0xD00, symBinAddr: 0x100030DB8, symSize: 0x160 }
  - { offset: 0x897D4, size: 0x8, addend: 0x0, symName: __ZN12dmLiveUpdate18HasLiveUpdateMountEv, symObjAddr: 0xE60, symBinAddr: 0x100030F18, symSize: 0xCC }
  - { offset: 0x89945, size: 0x8, addend: 0x0, symName: __ZN12dmLiveUpdate24IsBuiltWithExcludedFilesEv, symObjAddr: 0xF2C, symBinAddr: 0x100030FE4, symSize: 0xC }
  - { offset: 0x89C46, size: 0x8, addend: 0x0, symName: __ZN12dmLiveUpdateL10InitializeEP15ExtensionParams, symObjAddr: 0xF8C, symBinAddr: 0x100031044, symSize: 0x81C }
  - { offset: 0x8A5EF, size: 0x8, addend: 0x0, symName: __ZN12dmLiveUpdateL33LegacyCleanOldArchiveMountFormatsEPKc, symObjAddr: 0x19BC, symBinAddr: 0x100031A74, symSize: 0x1FC }
  - { offset: 0x8A828, size: 0x8, addend: 0x0, symName: __ZN12dmLiveUpdateL8FinalizeEP15ExtensionParams, symObjAddr: 0x17A8, symBinAddr: 0x100031860, symSize: 0x40 }
  - { offset: 0x8A856, size: 0x8, addend: 0x0, symName: __ZN12dmLiveUpdateL8FinalizeEP15ExtensionParams, symObjAddr: 0x17A8, symBinAddr: 0x100031860, symSize: 0x40 }
  - { offset: 0x8AD81, size: 0x8, addend: 0x0, symName: _LiveUpdateExt1013, symObjAddr: 0x10CE0, symBinAddr: 0x100369EF0, symSize: 0x0 }
  - { offset: 0x8B352, size: 0x8, addend: 0x0, symName: _LiveUpdateExt, symObjAddr: 0xF38, symBinAddr: 0x100030FF0, symSize: 0x54 }
  - { offset: 0x8B95C, size: 0x8, addend: 0x0, symName: __ZN12dmLiveUpdate16VerifyZipArchiveEPKcS1_, symObjAddr: 0x0, symBinAddr: 0x100031C70, symSize: 0x3D8 }
  - { offset: 0x8B98D, size: 0x8, addend: 0x0, symName: __ZN12dmLiveUpdate36LIVEUPDATE_ARCHIVE_MANIFEST_FILENAMEE, symObjAddr: 0x5B8, symBinAddr: 0x100343668, symSize: 0x0 }
  - { offset: 0x8BA7E, size: 0x8, addend: 0x0, symName: __ZN12dmLiveUpdate16VerifyZipArchiveEPKcS1_, symObjAddr: 0x0, symBinAddr: 0x100031C70, symSize: 0x3D8 }
  - { offset: 0x8C4E9, size: 0x8, addend: 0x0, symName: __ZN12dmLiveUpdate10ScriptInitEP9lua_StateP15ResourceFactory, symObjAddr: 0x0, symBinAddr: 0x100032048, symSize: 0xB8 }
  - { offset: 0x8C507, size: 0x8, addend: 0x0, symName: __ZN12dmLiveUpdate13g_LUScriptCtxE, symObjAddr: 0x9850, symBinAddr: 0x100369F70, symSize: 0x0 }
  - { offset: 0x8C538, size: 0x8, addend: 0x0, symName: __ZN12dmLiveUpdateL14Module_methodsE, symObjAddr: 0x16C8, symBinAddr: 0x1002C12E8, symSize: 0x0 }
  - { offset: 0x8C562, size: 0x8, addend: 0x0, symName: __ZN12dmLiveUpdateL22ResourceModule_methodsE, symObjAddr: 0x1768, symBinAddr: 0x1002C1388, symSize: 0x0 }
  - { offset: 0x8C570, size: 0x8, addend: 0x0, symName: __ZN12dmLiveUpdateL38Deprecated_Resource_GetCurrentManifestEP9lua_State, symObjAddr: 0xEA0, symBinAddr: 0x100032EE8, symSize: 0xA8 }
  - { offset: 0x8C59B, size: 0x8, addend: 0x0, symName: __ZZN12dmLiveUpdateL38Deprecated_Resource_GetCurrentManifestEP9lua_StateE14__dmLogOnce418, symObjAddr: 0x9858, symBinAddr: 0x1003582B0, symSize: 0x0 }
  - { offset: 0x8C609, size: 0x8, addend: 0x0, symName: __ZN12dmLiveUpdateL41Deprecated_Resource_IsUsingLiveUpdateDataEP9lua_State, symObjAddr: 0xF48, symBinAddr: 0x100032F90, symSize: 0xA8 }
  - { offset: 0x8C634, size: 0x8, addend: 0x0, symName: __ZZN12dmLiveUpdateL41Deprecated_Resource_IsUsingLiveUpdateDataEP9lua_StateE14__dmLogOnce419, symObjAddr: 0x985C, symBinAddr: 0x1003582B4, symSize: 0x0 }
  - { offset: 0x8C6B8, size: 0x8, addend: 0x0, symName: __ZN12dmLiveUpdateL33Deprecated_Resource_StoreResourceEP9lua_State, symObjAddr: 0xFF0, symBinAddr: 0x100033038, symSize: 0x7C }
  - { offset: 0x8C6E3, size: 0x8, addend: 0x0, symName: __ZZN12dmLiveUpdateL33Deprecated_Resource_StoreResourceEP9lua_StateE14__dmLogOnce420, symObjAddr: 0x9860, symBinAddr: 0x1003582B8, symSize: 0x0 }
  - { offset: 0x8C725, size: 0x8, addend: 0x0, symName: __ZN12dmLiveUpdateL33Deprecated_Resource_StoreManifestEP9lua_State, symObjAddr: 0x106C, symBinAddr: 0x1000330B4, symSize: 0x7C }
  - { offset: 0x8C750, size: 0x8, addend: 0x0, symName: __ZZN12dmLiveUpdateL33Deprecated_Resource_StoreManifestEP9lua_StateE14__dmLogOnce421, symObjAddr: 0x9864, symBinAddr: 0x1003582BC, symSize: 0x0 }
  - { offset: 0x8C792, size: 0x8, addend: 0x0, symName: __ZN12dmLiveUpdateL32Deprecated_Resource_StoreArchiveEP9lua_State, symObjAddr: 0x10E8, symBinAddr: 0x100033130, symSize: 0x7C }
  - { offset: 0x8C7BD, size: 0x8, addend: 0x0, symName: __ZZN12dmLiveUpdateL32Deprecated_Resource_StoreArchiveEP9lua_StateE14__dmLogOnce422, symObjAddr: 0x9868, symBinAddr: 0x1003582C0, symSize: 0x0 }
  - { offset: 0x8C884, size: 0x8, addend: 0x0, symName: __ZN12dmLiveUpdate10ScriptInitEP9lua_StateP15ResourceFactory, symObjAddr: 0x0, symBinAddr: 0x100032048, symSize: 0xB8 }
  - { offset: 0x8C9D8, size: 0x8, addend: 0x0, symName: __ZN12dmLiveUpdateL12SetConstantsEP9lua_State, symObjAddr: 0xB8, symBinAddr: 0x100032100, symSize: 0x1DC }
  - { offset: 0x8C9E2, size: 0x8, addend: 0x0, symName: __ZN12dmLiveUpdateL12SetConstantsEP9lua_State, symObjAddr: 0xB8, symBinAddr: 0x100032100, symSize: 0x1DC }
  - { offset: 0x8CC37, size: 0x8, addend: 0x0, symName: __ZN12dmLiveUpdateL27Resource_GetCurrentManifestEP9lua_State, symObjAddr: 0x294, symBinAddr: 0x1000322DC, symSize: 0x5C }
  - { offset: 0x8CC70, size: 0x8, addend: 0x0, symName: __ZN12dmLiveUpdateL30Resource_IsUsingLiveUpdateDataEP9lua_State, symObjAddr: 0x2F0, symBinAddr: 0x100032338, symSize: 0x5C }
  - { offset: 0x8CCCF, size: 0x8, addend: 0x0, symName: __ZN12dmLiveUpdateL22Resource_StoreResourceEP9lua_State, symObjAddr: 0x34C, symBinAddr: 0x100032394, symSize: 0x170 }
  - { offset: 0x8CF35, size: 0x8, addend: 0x0, symName: __ZN12dmLiveUpdateL22Resource_StoreManifestEP9lua_State, symObjAddr: 0x4BC, symBinAddr: 0x100032504, symSize: 0xB8 }
  - { offset: 0x8D06C, size: 0x8, addend: 0x0, symName: __ZN12dmLiveUpdateL21Resource_StoreArchiveEP9lua_State, symObjAddr: 0x574, symBinAddr: 0x1000325BC, symSize: 0x1A0 }
  - { offset: 0x8D2E2, size: 0x8, addend: 0x0, symName: __ZN12dmLiveUpdateL18Resource_GetMountsEP9lua_State, symObjAddr: 0x714, symBinAddr: 0x10003275C, symSize: 0x1E4 }
  - { offset: 0x8D5A4, size: 0x8, addend: 0x0, symName: __ZN12dmLiveUpdateL17Resource_AddMountEP9lua_State, symObjAddr: 0x8F8, symBinAddr: 0x100032940, symSize: 0x144 }
  - { offset: 0x8D73F, size: 0x8, addend: 0x0, symName: __ZN12dmLiveUpdateL20Resource_RemoveMountEP9lua_State, symObjAddr: 0xA3C, symBinAddr: 0x100032A84, symSize: 0x98 }
  - { offset: 0x8D7F2, size: 0x8, addend: 0x0, symName: __ZN12dmLiveUpdateL33Resource_IsBuiltWithExcludedFilesEP9lua_State, symObjAddr: 0xAD4, symBinAddr: 0x100032B1C, symSize: 0x5C }
  - { offset: 0x8D870, size: 0x8, addend: 0x0, symName: __ZN12dmLiveUpdateL22Callback_StoreResourceEbPv, symObjAddr: 0xB30, symBinAddr: 0x100032B78, symSize: 0xF4 }
  - { offset: 0x8D99C, size: 0x8, addend: 0x0, symName: __ZN12dmLiveUpdateL22Callback_StoreManifestEiPv, symObjAddr: 0xC24, symBinAddr: 0x100032C6C, symSize: 0xC0 }
  - { offset: 0x8DAB5, size: 0x8, addend: 0x0, symName: __ZN12dmLiveUpdateL21Callback_StoreArchiveEPKciPv, symObjAddr: 0xCE4, symBinAddr: 0x100032D2C, symSize: 0xD4 }
  - { offset: 0x8DBEC, size: 0x8, addend: 0x0, symName: __ZN12dmLiveUpdateL17Callback_AddMountEPKcS1_iPv, symObjAddr: 0xDB8, symBinAddr: 0x100032E00, symSize: 0xE8 }
  - { offset: 0x8E073, size: 0x8, addend: 0x0, symName: __ZN12dmLiveUpdate10ScriptInitEP9lua_StateP15ResourceFactory.cold.1, symObjAddr: 0x1164, symBinAddr: 0x10024F198, symSize: 0x28 }
  - { offset: 0x8E0A1, size: 0x8, addend: 0x0, symName: __ZN12dmLiveUpdate10ScriptInitEP9lua_StateP15ResourceFactory.cold.2, symObjAddr: 0x118C, symBinAddr: 0x10024F1C0, symSize: 0x28 }
  - { offset: 0x8E6AF, size: 0x8, addend: 0x0, symName: __ZN16dmBlockAllocator8AllocateEPNS_7ContextEj, symObjAddr: 0x0, symBinAddr: 0x1000331AC, symSize: 0x2E8 }
  - { offset: 0x8E769, size: 0x8, addend: 0x0, symName: __ZN16dmBlockAllocator8AllocateEPNS_7ContextEj, symObjAddr: 0x0, symBinAddr: 0x1000331AC, symSize: 0x2E8 }
  - { offset: 0x8E88E, size: 0x8, addend: 0x0, symName: __ZN16dmBlockAllocator4FreeEPNS_7ContextEPvj, symObjAddr: 0x2E8, symBinAddr: 0x100033494, symSize: 0xBC }
  - { offset: 0x8E94A, size: 0x8, addend: 0x0, symName: __ZN16dmBlockAllocator13CreateContextEv, symObjAddr: 0x3A4, symBinAddr: 0x100033550, symSize: 0x3C }
  - { offset: 0x8E955, size: 0x8, addend: 0x0, symName: __ZN16dmBlockAllocator13CreateContextEv, symObjAddr: 0x3A4, symBinAddr: 0x100033550, symSize: 0x3C }
  - { offset: 0x8E9B6, size: 0x8, addend: 0x0, symName: __ZN16dmBlockAllocator13DeleteContextEPNS_7ContextE, symObjAddr: 0x3E0, symBinAddr: 0x10003358C, symSize: 0x64 }
  - { offset: 0x8EA11, size: 0x8, addend: 0x0, symName: __ZN16dmBlockAllocator4FreeEPNS_7ContextEPvj.cold.1, symObjAddr: 0x444, symBinAddr: 0x10024F1E8, symSize: 0x28 }
  - { offset: 0x8EAB0, size: 0x8, addend: 0x0, symName: __ZN16dmBlockAllocator4FreeEPNS_7ContextEPvj.cold.3, symObjAddr: 0x494, symBinAddr: 0x10024F238, symSize: 0x28 }
  - { offset: 0x8EAC8, size: 0x8, addend: 0x0, symName: __ZN16dmBlockAllocator4FreeEPNS_7ContextEPvj.cold.2, symObjAddr: 0x46C, symBinAddr: 0x10024F210, symSize: 0x28 }
  - { offset: 0x8EAE0, size: 0x8, addend: 0x0, symName: __ZN16dmBlockAllocator4FreeEPNS_7ContextEPvj.cold.1, symObjAddr: 0x444, symBinAddr: 0x10024F1E8, symSize: 0x28 }
  - { offset: 0x8EAF8, size: 0x8, addend: 0x0, symName: __ZN16dmBlockAllocator13DeleteContextEPNS_7ContextE.cold.2, symObjAddr: 0x4E4, symBinAddr: 0x10024F288, symSize: 0x28 }
  - { offset: 0x8EB10, size: 0x8, addend: 0x0, symName: __ZN16dmBlockAllocator13DeleteContextEPNS_7ContextE.cold.1, symObjAddr: 0x4BC, symBinAddr: 0x10024F260, symSize: 0x28 }
  - { offset: 0x8EB8F, size: 0x8, addend: 0x0, symName: __ZN10dmResource26BUNDLE_PUBLIC_KEY_FILENAMEE, symObjAddr: 0x5B20, symBinAddr: 0x100343670, symSize: 0x0 }
  - { offset: 0x8EBA8, size: 0x8, addend: 0x0, symName: __ZN10dmResource17MAX_RESOURCES_KEYE, symObjAddr: 0x5B28, symBinAddr: 0x100343678, symSize: 0x0 }
  - { offset: 0x8EBB5, size: 0x8, addend: 0x0, symName: __ZN10dmResource13UpdateFactoryEP15ResourceFactory, symObjAddr: 0x8B4, symBinAddr: 0x100033E74, symSize: 0x70 }
  - { offset: 0x8EBDC, size: 0x8, addend: 0x0, symName: __ZZN10dmResource13UpdateFactoryEP15ResourceFactoryE9_scope453, symObjAddr: 0x342C0, symBinAddr: 0x1003582C8, symSize: 0x0 }
  - { offset: 0x8ECF4, size: 0x8, addend: 0x0, symName: __ZN10dmResource30LoadResourceToBufferWithOffsetEP15ResourceFactoryPKcS3_jjPjS4_P7dmArrayIcE, symObjAddr: 0xE84, symBinAddr: 0x100034418, symSize: 0x1FC }
  - { offset: 0x8ED1F, size: 0x8, addend: 0x0, symName: __ZZN10dmResource30LoadResourceToBufferWithOffsetEP15ResourceFactoryPKcS3_jjPjS4_P7dmArrayIcEE9_scope632, symObjAddr: 0x342C8, symBinAddr: 0x1003582D0, symSize: 0x0 }
  - { offset: 0x8F0B4, size: 0x8, addend: 0x0, symName: __ZN10dmResource21CreateResourcePartialEP15ResourceFactoryP12ResourceTypePKcPvjjPS6_, symObjAddr: 0x1190, symBinAddr: 0x100034658, symSize: 0x1E4 }
  - { offset: 0x8F0DF, size: 0x8, addend: 0x0, symName: __ZZN10dmResource21CreateResourcePartialEP15ResourceFactoryP12ResourceTypePKcPvjjPS6_E9_scope954, symObjAddr: 0x342D0, symBinAddr: 0x1003582D8, symSize: 0x0 }
  - { offset: 0x8F4DA, size: 0x8, addend: 0x0, symName: __ZN10dmResource6GetRawEP15ResourceFactoryPKcPPvPj, symObjAddr: 0x2420, symBinAddr: 0x1000357AC, symSize: 0x1E8 }
  - { offset: 0x8F505, size: 0x8, addend: 0x0, symName: __ZZN10dmResource6GetRawEP15ResourceFactoryPKcPPvPjE10_scope1102, symObjAddr: 0x342D8, symBinAddr: 0x1003582E0, symSize: 0x0 }
  - { offset: 0x8F8BE, size: 0x8, addend: 0x0, symName: __ZN10dmResource11SetResourceEP15ResourceFactoryyPvj, symObjAddr: 0x2A08, symBinAddr: 0x100035D94, symSize: 0x18C }
  - { offset: 0x8F8E9, size: 0x8, addend: 0x0, symName: __ZZN10dmResource11SetResourceEP15ResourceFactoryyPvjE10_scope1256, symObjAddr: 0x342E0, symBinAddr: 0x1003582E8, symSize: 0x0 }
  - { offset: 0x8FBCD, size: 0x8, addend: 0x0, symName: __ZN10dmResource11SetResourceEP15ResourceFactoryyPv, symObjAddr: 0x2B94, symBinAddr: 0x100035F20, symSize: 0x174 }
  - { offset: 0x8FBD7, size: 0x8, addend: 0x0, symName: __ZN10dmResource11SetResourceEP15ResourceFactoryyPv, symObjAddr: 0x2B94, symBinAddr: 0x100035F20, symSize: 0x174 }
  - { offset: 0x8FC02, size: 0x8, addend: 0x0, symName: __ZZN10dmResource11SetResourceEP15ResourceFactoryyPvE10_scope1313, symObjAddr: 0x342E8, symBinAddr: 0x1003582F0, symSize: 0x0 }
  - { offset: 0x8FEC9, size: 0x8, addend: 0x0, symName: __ZN10dmResource7GetTypeEP15ResourceFactoryPvPP12ResourceType, symObjAddr: 0x2D08, symBinAddr: 0x100036094, symSize: 0xD4 }
  - { offset: 0x8FED3, size: 0x8, addend: 0x0, symName: __ZN10dmResource7ReleaseEP15ResourceFactoryPv, symObjAddr: 0x3290, symBinAddr: 0x100036414, symSize: 0x1D0 }
  - { offset: 0x8FEFA, size: 0x8, addend: 0x0, symName: __ZZN10dmResource7ReleaseEP15ResourceFactoryPvE10_scope1514, symObjAddr: 0x342F0, symBinAddr: 0x1003582F8, symSize: 0x0 }
  - { offset: 0x902BE, size: 0x8, addend: 0x0, symName: __ZN11dmHashTableImyE5EraseEm, symObjAddr: 0x3460, symBinAddr: 0x1000365E4, symSize: 0xB4 }
  - { offset: 0x9035F, size: 0x8, addend: 0x0, symName: __ZN10dmResource25CheckSuppliedResourcePathEPKc, symObjAddr: 0x30, symBinAddr: 0x1000335F0, symSize: 0x5C }
  - { offset: 0x90390, size: 0x8, addend: 0x0, symName: __ZN10dmResource26SetDefaultNewFactoryParamsEPNS_16NewFactoryParamsE, symObjAddr: 0x8C, symBinAddr: 0x10003364C, symSize: 0x2C }
  - { offset: 0x9046B, size: 0x8, addend: 0x0, symName: __ZN10dmResource10NewFactoryEPNS_16NewFactoryParamsEPKc, symObjAddr: 0xB8, symBinAddr: 0x100033678, symSize: 0x594 }
  - { offset: 0x90D23, size: 0x8, addend: 0x0, symName: __ZN10dmResource13DeleteFactoryEP15ResourceFactory, symObjAddr: 0x64C, symBinAddr: 0x100033C0C, symSize: 0x22C }
  - { offset: 0x9117D, size: 0x8, addend: 0x0, symName: __ZN10dmResource22ReleaseBuiltinsArchiveEP15ResourceFactory, symObjAddr: 0x878, symBinAddr: 0x100033E38, symSize: 0x3C }
  - { offset: 0x911B4, size: 0x8, addend: 0x0, symName: __ZN10dmResourceL8DispatchEPN9dmMessage7MessageEPv, symObjAddr: 0x924, symBinAddr: 0x100033EE4, symSize: 0xC4 }
  - { offset: 0x912B8, size: 0x8, addend: 0x0, symName: __ZN10dmResource14ReloadResourceEP15ResourceFactoryPKcPP18ResourceDescriptor, symObjAddr: 0x2608, symBinAddr: 0x100035994, symSize: 0x400 }
  - { offset: 0x9175A, size: 0x8, addend: 0x0, symName: __ZN10dmResource20AllocateResourceTypeEP15ResourceFactoryPKc, symObjAddr: 0x9E8, symBinAddr: 0x100033FA8, symSize: 0xB4 }
  - { offset: 0x917E7, size: 0x8, addend: 0x0, symName: __ZN10dmResource16FreeResourceTypeEP15ResourceFactoryP12ResourceType, symObjAddr: 0xA9C, symBinAddr: 0x10003405C, symSize: 0x30 }
  - { offset: 0x91810, size: 0x8, addend: 0x0, symName: __ZN10dmResource20ValidateResourceTypeEP12ResourceType, symObjAddr: 0xACC, symBinAddr: 0x10003408C, symSize: 0x7C }
  - { offset: 0x9181A, size: 0x8, addend: 0x0, symName: __ZN10dmResource20ValidateResourceTypeEP12ResourceType, symObjAddr: 0xACC, symBinAddr: 0x10003408C, symSize: 0x7C }
  - { offset: 0x918D8, size: 0x8, addend: 0x0, symName: __ZN10dmResource16FindResourceTypeEP15ResourceFactoryPKc, symObjAddr: 0xB74, symBinAddr: 0x100034108, symSize: 0x50 }
  - { offset: 0x919E4, size: 0x8, addend: 0x0, symName: __ZN10dmResource12RegisterTypeEP15ResourceFactoryPKcPvPFNS_6ResultEPK21ResourcePreloadParamsEPFS5_PK20ResourceCreateParamsEPFS5_PK24ResourcePostCreateParamsEPFS5_PK21ResourceDestroyParamsEPFS5_PK22ResourceRecreateParamsE, symObjAddr: 0xBC4, symBinAddr: 0x100034158, symSize: 0x1A0 }
  - { offset: 0x91C5B, size: 0x8, addend: 0x0, symName: __ZN10dmResource9SetupTypeEP19ResourceTypeContextP12ResourceTypePvPFNS_6ResultEPK21ResourcePreloadParamsEPFS5_PK20ResourceCreateParamsEPFS5_PK24ResourcePostCreateParamsEPFS5_PK21ResourceDestroyParamsEPFS5_PK22ResourceRecreateParamsE, symObjAddr: 0xD64, symBinAddr: 0x1000342F8, symSize: 0x88 }
  - { offset: 0x91C65, size: 0x8, addend: 0x0, symName: __ZN10dmResource9SetupTypeEP19ResourceTypeContextP12ResourceTypePvPFNS_6ResultEPK21ResourcePreloadParamsEPFS5_PK20ResourceCreateParamsEPFS5_PK24ResourcePostCreateParamsEPFS5_PK21ResourceDestroyParamsEPFS5_PK22ResourceRecreateParamsE, symObjAddr: 0xD64, symBinAddr: 0x1000342F8, symSize: 0x88 }
  - { offset: 0x91D6B, size: 0x8, addend: 0x0, symName: __ZN10dmResource15GetDependenciesEP15ResourceFactoryPKNS_22SGetDependenciesParamsEPFvPvPKNS_22SGetDependenciesResultEES5_, symObjAddr: 0xDEC, symBinAddr: 0x100034380, symSize: 0x4C }
  - { offset: 0x91E02, size: 0x8, addend: 0x0, symName: __ZN10dmResourceL26ResourceDependencyCallbackEPvPKN16dmResourceMounts22SGetDependenciesResultE, symObjAddr: 0xE38, symBinAddr: 0x1000343CC, symSize: 0x3C }
  - { offset: 0x91E70, size: 0x8, addend: 0x0, symName: __ZN10dmResource16GetPublicKeyPathEP15ResourceFactory, symObjAddr: 0xE74, symBinAddr: 0x100034408, symSize: 0x8 }
  - { offset: 0x91EA0, size: 0x8, addend: 0x0, symName: __ZN10dmResource14GetBaseArchiveEP15ResourceFactory, symObjAddr: 0xE7C, symBinAddr: 0x100034410, symSize: 0x8 }
  - { offset: 0x91EEF, size: 0x8, addend: 0x0, symName: __ZN10dmResource20LoadResourceToBufferEP15ResourceFactoryPKcS3_jPjS4_P7dmArrayIcE, symObjAddr: 0x108C, symBinAddr: 0x100034614, symSize: 0x18 }
  - { offset: 0x92041, size: 0x8, addend: 0x0, symName: __ZN10dmResource14GetExtFromPathEPKc, symObjAddr: 0x1164, symBinAddr: 0x10003462C, symSize: 0x2C }
  - { offset: 0x9211E, size: 0x8, addend: 0x0, symName: __ZN10dmResourceL27CheckAndGetResourceFromPathEP15ResourceFactoryyPPv, symObjAddr: 0x1374, symBinAddr: 0x10003483C, symSize: 0x124 }
  - { offset: 0x922A7, size: 0x8, addend: 0x0, symName: __ZN10dmResourceL16DoCreateResourceEP15ResourceFactoryP12ResourceTypePKcS5_yPvjjPS6_, symObjAddr: 0x1498, symBinAddr: 0x100034960, symSize: 0x328 }
  - { offset: 0x9251C, size: 0x8, addend: 0x0, symName: __ZN10dmResource14CreateResourceEP15ResourceFactoryPKcPvjPS4_, symObjAddr: 0x17C0, symBinAddr: 0x100034C88, symSize: 0x1C }
  - { offset: 0x92526, size: 0x8, addend: 0x0, symName: __ZN10dmResource14InsertResourceEP15ResourceFactoryPKcyP18ResourceDescriptor, symObjAddr: 0x1ED0, symBinAddr: 0x100035398, symSize: 0x164 }
  - { offset: 0x926AC, size: 0x8, addend: 0x0, symName: __ZN10dmResource14CreateResourceEP15ResourceFactoryPKcPvjPS4_, symObjAddr: 0x17C0, symBinAddr: 0x100034C88, symSize: 0x1C }
  - { offset: 0x92858, size: 0x8, addend: 0x0, symName: __ZN10dmResource10GetWithExtEP15ResourceFactoryPKcS3_PPv, symObjAddr: 0x17DC, symBinAddr: 0x100034CA4, symSize: 0x4B0 }
  - { offset: 0x93096, size: 0x8, addend: 0x0, symName: __ZN10dmResource3GetEP15ResourceFactoryPKcPPv, symObjAddr: 0x1C8C, symBinAddr: 0x100035154, symSize: 0xC }
  - { offset: 0x930EA, size: 0x8, addend: 0x0, symName: __ZN10dmResource10FindByHashEP15ResourceFactoryy, symObjAddr: 0x1C98, symBinAddr: 0x100035160, symSize: 0x5C }
  - { offset: 0x931A8, size: 0x8, addend: 0x0, symName: __ZN10dmResource10GetWithExtEP15ResourceFactoryyyPPv, symObjAddr: 0x1CF4, symBinAddr: 0x1000351BC, symSize: 0x9C }
  - { offset: 0x93281, size: 0x8, addend: 0x0, symName: __ZN10dmResource6IncRefEP15ResourceFactoryPv, symObjAddr: 0x1D90, symBinAddr: 0x100035258, symSize: 0xC0 }
  - { offset: 0x933E0, size: 0x8, addend: 0x0, symName: __ZN10dmResource3GetEP15ResourceFactoryyPPv, symObjAddr: 0x1E50, symBinAddr: 0x100035318, symSize: 0x80 }
  - { offset: 0x9345E, size: 0x8, addend: 0x0, symName: __ZN10dmResource3GetEP15ResourceFactoryyPPv, symObjAddr: 0x1E50, symBinAddr: 0x100035318, symSize: 0x80 }
  - { offset: 0x936B0, size: 0x8, addend: 0x0, symName: __ZN10dmResource7GetTypeEP15ResourceFactoryPvPP12ResourceType, symObjAddr: 0x2D08, symBinAddr: 0x100036094, symSize: 0xD4 }
  - { offset: 0x93866, size: 0x8, addend: 0x0, symName: __ZN10dmResource20GetTypeFromExtensionEP15ResourceFactoryPKcPP12ResourceType, symObjAddr: 0x2E2C, symBinAddr: 0x100036168, symSize: 0x64 }
  - { offset: 0x93956, size: 0x8, addend: 0x0, symName: __ZN10dmResource13GetDescriptorEP15ResourceFactoryPKcPP18ResourceDescriptor, symObjAddr: 0x2F38, symBinAddr: 0x1000361CC, symSize: 0xE0 }
  - { offset: 0x93A82, size: 0x8, addend: 0x0, symName: __ZN10dmResource20GetDescriptorWithExtEP15ResourceFactoryyPKyjPP18ResourceDescriptor, symObjAddr: 0x3018, symBinAddr: 0x1000362AC, symSize: 0x8C }
  - { offset: 0x93B9C, size: 0x8, addend: 0x0, symName: __ZN10dmResource6IncRefEP15ResourceFactoryP18ResourceDescriptor, symObjAddr: 0x30A4, symBinAddr: 0x100036338, symSize: 0x2C }
  - { offset: 0x93BD2, size: 0x8, addend: 0x0, symName: __ZN10dmResource10GetVersionEP15ResourceFactoryPv, symObjAddr: 0x30D0, symBinAddr: 0x100036364, symSize: 0xB0 }
  - { offset: 0x93BDC, size: 0x8, addend: 0x0, symName: __ZN10dmResource10GetVersionEP15ResourceFactoryPv, symObjAddr: 0x30D0, symBinAddr: 0x100036364, symSize: 0xB0 }
  - { offset: 0x93D23, size: 0x8, addend: 0x0, symName: __ZN10dmResource32RegisterResourceReloadedCallbackEP15ResourceFactoryPFvPK22ResourceReloadedParamsEPv, symObjAddr: 0x367C, symBinAddr: 0x10003674C, symSize: 0xB0 }
  - { offset: 0x93E4B, size: 0x8, addend: 0x0, symName: __ZN10dmResource34UnregisterResourceReloadedCallbackEP15ResourceFactoryPFvPK22ResourceReloadedParamsEPv, symObjAddr: 0x372C, symBinAddr: 0x1000367FC, symSize: 0x98 }
  - { offset: 0x93E55, size: 0x8, addend: 0x0, symName: __ZN10dmResource34UnregisterResourceReloadedCallbackEP15ResourceFactoryPFvPK22ResourceReloadedParamsEPv, symObjAddr: 0x372C, symBinAddr: 0x1000367FC, symSize: 0x98 }
  - { offset: 0x93F37, size: 0x8, addend: 0x0, symName: __ZN10dmResource7GetPathEP15ResourceFactoryPKvPy, symObjAddr: 0x37C4, symBinAddr: 0x100036894, symSize: 0x64 }
  - { offset: 0x93F42, size: 0x8, addend: 0x0, symName: __ZN10dmResource7GetPathEP15ResourceFactoryPKvPy, symObjAddr: 0x37C4, symBinAddr: 0x100036894, symSize: 0x64 }
  - { offset: 0x93FFC, size: 0x8, addend: 0x0, symName: __ZN10dmResource16GetMountsContextEP15ResourceFactory, symObjAddr: 0x386C, symBinAddr: 0x1000368F8, symSize: 0x8 }
  - { offset: 0x9401A, size: 0x8, addend: 0x0, symName: __ZN10dmResource12GetJobThreadEP15ResourceFactory, symObjAddr: 0x38A0, symBinAddr: 0x100036900, symSize: 0x8 }
  - { offset: 0x9404A, size: 0x8, addend: 0x0, symName: __ZN10dmResource12GetLoadMutexEP15ResourceFactory, symObjAddr: 0x38A8, symBinAddr: 0x100036908, symSize: 0x8 }
  - { offset: 0x940E9, size: 0x8, addend: 0x0, symName: __ZN10dmResource16IterateResourcesEP15ResourceFactoryPFbRKNS_16IteratorResourceEPvES5_, symObjAddr: 0x38B0, symBinAddr: 0x100036910, symSize: 0xE4 }
  - { offset: 0x9427B, size: 0x8, addend: 0x0, symName: __ZN10dmResource14ResultToStringENS_6ResultE, symObjAddr: 0x3994, symBinAddr: 0x1000369F4, symSize: 0x28 }
  - { offset: 0x96AA2, size: 0x8, addend: 0x0, symName: __ZN11dmHashTableIy18ResourceDescriptorE11SetCapacityEjj, symObjAddr: 0x3EA8, symBinAddr: 0x100036A1C, symSize: 0x15C }
  - { offset: 0x96C6D, size: 0x8, addend: 0x0, symName: __ZN11dmHashTableImyE11SetCapacityEjj, symObjAddr: 0x4004, symBinAddr: 0x100036B78, symSize: 0x15C }
  - { offset: 0x96C78, size: 0x8, addend: 0x0, symName: __ZN11dmHashTableImyE11SetCapacityEjj, symObjAddr: 0x4004, symBinAddr: 0x100036B78, symSize: 0x15C }
  - { offset: 0x97304, size: 0x8, addend: 0x0, symName: __ZN10dmResource16FreeResourceTypeEP15ResourceFactoryP12ResourceType.cold.1, symObjAddr: 0x4314, symBinAddr: 0x10024F2B0, symSize: 0x28 }
  - { offset: 0x974BC, size: 0x8, addend: 0x0, symName: __ZN10dmResource21CreateResourcePartialEP15ResourceFactoryP12ResourceTypePKcPvjjPS6_.cold.2, symObjAddr: 0x441C, symBinAddr: 0x10024F300, symSize: 0x28 }
  - { offset: 0x974D4, size: 0x8, addend: 0x0, symName: __ZN10dmResource21CreateResourcePartialEP15ResourceFactoryP12ResourceTypePKcPvjjPS6_.cold.1, symObjAddr: 0x43F4, symBinAddr: 0x10024F2D8, symSize: 0x28 }
  - { offset: 0x9761B, size: 0x8, addend: 0x0, symName: __ZN10dmResourceL27CheckAndGetResourceFromPathEP15ResourceFactoryyPPv.cold.1, symObjAddr: 0x4444, symBinAddr: 0x10024F328, symSize: 0x28 }
  - { offset: 0x97782, size: 0x8, addend: 0x0, symName: __ZN10dmResource10GetWithExtEP15ResourceFactoryPKcS3_PPv.cold.7, symObjAddr: 0x4570, symBinAddr: 0x10024F378, symSize: 0x28 }
  - { offset: 0x9779A, size: 0x8, addend: 0x0, symName: __ZN10dmResource10GetWithExtEP15ResourceFactoryPKcS3_PPv.cold.6, symObjAddr: 0x4548, symBinAddr: 0x10024F350, symSize: 0x28 }
  - { offset: 0x9781C, size: 0x8, addend: 0x0, symName: __ZN10dmResource6IncRefEP15ResourceFactoryPv.cold.3, symObjAddr: 0x45E8, symBinAddr: 0x10024F3F0, symSize: 0x28 }
  - { offset: 0x97834, size: 0x8, addend: 0x0, symName: __ZN10dmResource6IncRefEP15ResourceFactoryPv.cold.2, symObjAddr: 0x45C0, symBinAddr: 0x10024F3C8, symSize: 0x28 }
  - { offset: 0x97862, size: 0x8, addend: 0x0, symName: __ZN10dmResource6IncRefEP15ResourceFactoryPv.cold.1, symObjAddr: 0x4598, symBinAddr: 0x10024F3A0, symSize: 0x28 }
  - { offset: 0x97890, size: 0x8, addend: 0x0, symName: __ZN11dmHashTableIy18ResourceDescriptorE3PutEyRKS0_, symObjAddr: 0x2034, symBinAddr: 0x1000354FC, symSize: 0x174 }
  - { offset: 0x979E0, size: 0x8, addend: 0x0, symName: __ZN11dmHashTableImyE3PutEmRKy, symObjAddr: 0x21A8, symBinAddr: 0x100035670, symSize: 0x13C }
  - { offset: 0x979EB, size: 0x8, addend: 0x0, symName: __ZN11dmHashTableImyE3PutEmRKy, symObjAddr: 0x21A8, symBinAddr: 0x100035670, symSize: 0x13C }
  - { offset: 0x97C18, size: 0x8, addend: 0x0, symName: __ZN10dmResource6GetRawEP15ResourceFactoryPKcPPvPj, symObjAddr: 0x2420, symBinAddr: 0x1000357AC, symSize: 0x1E8 }
  - { offset: 0x97C23, size: 0x8, addend: 0x0, symName: __ZN10dmResource14InsertResourceEP15ResourceFactoryPKcyP18ResourceDescriptor.cold.2, symObjAddr: 0x4638, symBinAddr: 0x10024F440, symSize: 0x28 }
  - { offset: 0x97C3B, size: 0x8, addend: 0x0, symName: __ZN10dmResource14InsertResourceEP15ResourceFactoryPKcyP18ResourceDescriptor.cold.1, symObjAddr: 0x4610, symBinAddr: 0x10024F418, symSize: 0x28 }
  - { offset: 0x97C80, size: 0x8, addend: 0x0, symName: __ZN11dmHashTableIy18ResourceDescriptorE3PutEyRKS0_.cold.1, symObjAddr: 0x4660, symBinAddr: 0x10024F468, symSize: 0x24 }
  - { offset: 0x97DF0, size: 0x8, addend: 0x0, symName: __ZN10dmResource6GetRawEP15ResourceFactoryPKcPPvPj.cold.6, symObjAddr: 0x47FC, symBinAddr: 0x10024F52C, symSize: 0x28 }
  - { offset: 0x97E08, size: 0x8, addend: 0x0, symName: __ZN10dmResource6GetRawEP15ResourceFactoryPKcPPvPj.cold.5, symObjAddr: 0x47D4, symBinAddr: 0x10024F504, symSize: 0x28 }
  - { offset: 0x97E20, size: 0x8, addend: 0x0, symName: __ZN10dmResource6GetRawEP15ResourceFactoryPKcPPvPj.cold.4, symObjAddr: 0x47AC, symBinAddr: 0x10024F4DC, symSize: 0x28 }
  - { offset: 0x97E58, size: 0x8, addend: 0x0, symName: __ZN10dmResource6GetRawEP15ResourceFactoryPKcPPvPj.cold.2, symObjAddr: 0x475C, symBinAddr: 0x10024F48C, symSize: 0x28 }
  - { offset: 0x97E70, size: 0x8, addend: 0x0, symName: __ZN10dmResource6GetRawEP15ResourceFactoryPKcPPvPj.cold.3, symObjAddr: 0x4784, symBinAddr: 0x10024F4B4, symSize: 0x28 }
  - { offset: 0x97EE0, size: 0x8, addend: 0x0, symName: __ZN10dmResource11SetResourceEP15ResourceFactoryyPvj.cold.2, symObjAddr: 0x4870, symBinAddr: 0x10024F57C, symSize: 0x28 }
  - { offset: 0x97EF8, size: 0x8, addend: 0x0, symName: __ZN10dmResource11SetResourceEP15ResourceFactoryyPvj.cold.1, symObjAddr: 0x4848, symBinAddr: 0x10024F554, symSize: 0x28 }
  - { offset: 0x97F10, size: 0x8, addend: 0x0, symName: __ZN10dmResource11SetResourceEP15ResourceFactoryyPv.cold.1, symObjAddr: 0x4898, symBinAddr: 0x10024F5A4, symSize: 0x28 }
  - { offset: 0x97F28, size: 0x8, addend: 0x0, symName: __ZN10dmResource7GetTypeEP15ResourceFactoryPvPP12ResourceType.cold.2, symObjAddr: 0x48E8, symBinAddr: 0x10024F5F4, symSize: 0x28 }
  - { offset: 0x97F40, size: 0x8, addend: 0x0, symName: __ZN10dmResource7GetTypeEP15ResourceFactoryPvPP12ResourceType.cold.3, symObjAddr: 0x4910, symBinAddr: 0x10024F61C, symSize: 0x28 }
  - { offset: 0x97F58, size: 0x8, addend: 0x0, symName: __ZN10dmResource7GetTypeEP15ResourceFactoryPvPP12ResourceType.cold.1, symObjAddr: 0x48C0, symBinAddr: 0x10024F5CC, symSize: 0x28 }
  - { offset: 0x97F70, size: 0x8, addend: 0x0, symName: __ZN10dmResource20GetTypeFromExtensionEP15ResourceFactoryPKcPP12ResourceType.cold.1, symObjAddr: 0x495C, symBinAddr: 0x10024F644, symSize: 0x24 }
  - { offset: 0x97FB2, size: 0x8, addend: 0x0, symName: __ZN10dmResource10GetVersionEP15ResourceFactoryPv.cold.2, symObjAddr: 0x49F8, symBinAddr: 0x10024F690, symSize: 0x28 }
  - { offset: 0x97FCA, size: 0x8, addend: 0x0, symName: __ZN10dmResource10GetVersionEP15ResourceFactoryPv.cold.1, symObjAddr: 0x49D0, symBinAddr: 0x10024F668, symSize: 0x28 }
  - { offset: 0x9800F, size: 0x8, addend: 0x0, symName: __ZN10dmResource7ReleaseEP15ResourceFactoryPv.cold.4, symObjAddr: 0x4AC4, symBinAddr: 0x10024F734, symSize: 0x28 }
  - { offset: 0x98027, size: 0x8, addend: 0x0, symName: __ZN10dmResource7ReleaseEP15ResourceFactoryPv.cold.3, symObjAddr: 0x4A9C, symBinAddr: 0x10024F70C, symSize: 0x28 }
  - { offset: 0x9803F, size: 0x8, addend: 0x0, symName: __ZN11dmHashTableImyE5EraseEm, symObjAddr: 0x3460, symBinAddr: 0x1000365E4, symSize: 0xB4 }
  - { offset: 0x980F5, size: 0x8, addend: 0x0, symName: __ZN11dmHashTableIy18ResourceDescriptorE5EraseEy, symObjAddr: 0x3514, symBinAddr: 0x100036698, symSize: 0xB4 }
  - { offset: 0x98100, size: 0x8, addend: 0x0, symName: __ZN11dmHashTableIy18ResourceDescriptorE5EraseEy, symObjAddr: 0x3514, symBinAddr: 0x100036698, symSize: 0xB4 }
  - { offset: 0x981C1, size: 0x8, addend: 0x0, symName: __ZN10dmResource7ReleaseEP15ResourceFactoryPv.cold.1, symObjAddr: 0x4A48, symBinAddr: 0x10024F6B8, symSize: 0x2C }
  - { offset: 0x98258, size: 0x8, addend: 0x0, symName: __ZN10dmResource32RegisterResourceReloadedCallbackEP15ResourceFactoryPFvPK22ResourceReloadedParamsEPv, symObjAddr: 0x367C, symBinAddr: 0x10003674C, symSize: 0xB0 }
  - { offset: 0x98263, size: 0x8, addend: 0x0, symName: __ZN10dmResource7ReleaseEP15ResourceFactoryPv.cold.2, symObjAddr: 0x4A74, symBinAddr: 0x10024F6E4, symSize: 0x28 }
  - { offset: 0x9829C, size: 0x8, addend: 0x0, symName: __ZN11dmHashTableImyE5EraseEm.cold.3, symObjAddr: 0x4B34, symBinAddr: 0x10024F7A4, symSize: 0x24 }
  - { offset: 0x982B4, size: 0x8, addend: 0x0, symName: __ZN11dmHashTableImyE5EraseEm.cold.2, symObjAddr: 0x4B10, symBinAddr: 0x10024F780, symSize: 0x24 }
  - { offset: 0x982CC, size: 0x8, addend: 0x0, symName: __ZN11dmHashTableImyE5EraseEm.cold.1, symObjAddr: 0x4AEC, symBinAddr: 0x10024F75C, symSize: 0x24 }
  - { offset: 0x98598, size: 0x8, addend: 0x0, symName: __ZN11dmHashTableIy18ResourceDescriptorE11SetCapacityEjj.cold.2, symObjAddr: 0x4D80, symBinAddr: 0x10024F7EC, symSize: 0x24 }
  - { offset: 0x985B0, size: 0x8, addend: 0x0, symName: __ZN11dmHashTableIy18ResourceDescriptorE11SetCapacityEjj.cold.1, symObjAddr: 0x4D5C, symBinAddr: 0x10024F7C8, symSize: 0x24 }
  - { offset: 0x985C8, size: 0x8, addend: 0x0, symName: __ZN11dmHashTableIy18ResourceDescriptorE11SetCapacityEjj.cold.4, symObjAddr: 0x4DC8, symBinAddr: 0x10024F834, symSize: 0x24 }
  - { offset: 0x985E0, size: 0x8, addend: 0x0, symName: __ZN11dmHashTableIy18ResourceDescriptorE11SetCapacityEjj.cold.3, symObjAddr: 0x4DA4, symBinAddr: 0x10024F810, symSize: 0x24 }
  - { offset: 0x987EA, size: 0x8, addend: 0x0, symName: __GLOBAL__sub_I_resource.cpp, symObjAddr: 0x4F8C, symBinAddr: 0x100036D1C, symSize: 0x28 }
  - { offset: 0x98802, size: 0x8, addend: 0x0, symName: __GLOBAL__sub_I_resource.cpp, symObjAddr: 0x4F8C, symBinAddr: 0x100036D1C, symSize: 0x28 }
  - { offset: 0x98815, size: 0x8, addend: 0x0, symName: __GLOBAL__sub_I_resource.cpp, symObjAddr: 0x4F8C, symBinAddr: 0x100036D1C, symSize: 0x28 }
  - { offset: 0x98835, size: 0x8, addend: 0x0, symName: __GLOBAL__sub_I_resource.cpp.cold.1, symObjAddr: 0x4FB4, symBinAddr: 0x10024F858, symSize: 0x58 }
  - { offset: 0x98877, size: 0x8, addend: 0x0, symName: _OUTLINED_FUNCTION_1, symObjAddr: 0x4F14, symBinAddr: 0x100036CD4, symSize: 0x8 }
  - { offset: 0x9888F, size: 0x8, addend: 0x0, symName: _OUTLINED_FUNCTION_2, symObjAddr: 0x4F1C, symBinAddr: 0x100036CDC, symSize: 0x8 }
  - { offset: 0x988A7, size: 0x8, addend: 0x0, symName: _OUTLINED_FUNCTION_3, symObjAddr: 0x4F24, symBinAddr: 0x100036CE4, symSize: 0x8 }
  - { offset: 0x988BF, size: 0x8, addend: 0x0, symName: _OUTLINED_FUNCTION_4, symObjAddr: 0x4F2C, symBinAddr: 0x100036CEC, symSize: 0x8 }
  - { offset: 0x988D7, size: 0x8, addend: 0x0, symName: _OUTLINED_FUNCTION_5, symObjAddr: 0x4F34, symBinAddr: 0x100036CF4, symSize: 0x8 }
  - { offset: 0x988EF, size: 0x8, addend: 0x0, symName: _OUTLINED_FUNCTION_7, symObjAddr: 0x4F44, symBinAddr: 0x100036CFC, symSize: 0x8 }
  - { offset: 0x98907, size: 0x8, addend: 0x0, symName: _OUTLINED_FUNCTION_10, symObjAddr: 0x4F5C, symBinAddr: 0x100036D04, symSize: 0x8 }
  - { offset: 0x9891F, size: 0x8, addend: 0x0, symName: _OUTLINED_FUNCTION_11, symObjAddr: 0x4F64, symBinAddr: 0x100036D0C, symSize: 0x8 }
  - { offset: 0x98937, size: 0x8, addend: 0x0, symName: _OUTLINED_FUNCTION_12, symObjAddr: 0x4F6C, symBinAddr: 0x100036D14, symSize: 0x8 }
  - { offset: 0x98D98, size: 0x8, addend: 0x0, symName: __ZN17dmResourceArchive17WrapArchiveBufferEPKvjbS1_jbPPNS_21ArchiveIndexContainerE, symObjAddr: 0x2B0, symBinAddr: 0x100036D5C, symSize: 0xDC }
  - { offset: 0x98EF3, size: 0x8, addend: 0x0, symName: __ZN17dmResourceArchive6DeleteERPNS_21ArchiveIndexContainerE, symObjAddr: 0x38C, symBinAddr: 0x100036E38, symSize: 0x80 }
  - { offset: 0x98F46, size: 0x8, addend: 0x0, symName: __ZN17dmResourceArchive9FindEntryEPNS_21ArchiveIndexContainerEPKhjPPNS_9EntryDataE, symObjAddr: 0x418, symBinAddr: 0x100036EB8, symSize: 0xDC }
  - { offset: 0x99180, size: 0x8, addend: 0x0, symName: __ZN17dmResourceArchive22WriteResourceToArchiveERPNS_21ArchiveIndexContainerEPKhjRjS5_, symObjAddr: 0x904, symBinAddr: 0x100036F94, symSize: 0x150 }
  - { offset: 0x99334, size: 0x8, addend: 0x0, symName: __ZN17dmResourceArchive14ShiftAndInsertEPNS_21ArchiveIndexContainerEPNS_12ArchiveIndexEPKhjiPKNS_18LiveUpdateResourceEPKNS_9EntryDataE, symObjAddr: 0xA54, symBinAddr: 0x1000370E4, symSize: 0x1A0 }
  - { offset: 0x9933E, size: 0x8, addend: 0x0, symName: __ZN17dmResourceArchive14ShiftAndInsertEPNS_21ArchiveIndexContainerEPNS_12ArchiveIndexEPKhjiPKNS_18LiveUpdateResourceEPKNS_9EntryDataE, symObjAddr: 0xA54, symBinAddr: 0x1000370E4, symSize: 0x1A0 }
  - { offset: 0x99604, size: 0x8, addend: 0x0, symName: __ZN17dmResourceArchive9ReadEntryEPNS_21ArchiveIndexContainerEPKNS_9EntryDataEPv, symObjAddr: 0xBF4, symBinAddr: 0x100037284, symSize: 0x1D8 }
  - { offset: 0x9960E, size: 0x8, addend: 0x0, symName: __ZN17dmResourceArchive9ReadEntryEPNS_21ArchiveIndexContainerEPKNS_9EntryDataEPv, symObjAddr: 0xBF4, symBinAddr: 0x100037284, symSize: 0x1D8 }
  - { offset: 0x998CA, size: 0x8, addend: 0x0, symName: __ZN17dmResourceArchive16ReadEntryPartialEPNS_21ArchiveIndexContainerEPKNS_9EntryDataEjjPvPj, symObjAddr: 0xDCC, symBinAddr: 0x10003745C, symSize: 0xC0 }
  - { offset: 0x99A44, size: 0x8, addend: 0x0, symName: __ZN17dmResourceArchive17WriteArchiveIndexEPKcPNS_12ArchiveIndexE, symObjAddr: 0xE8C, symBinAddr: 0x10003751C, symSize: 0xCC }
  - { offset: 0x99C55, size: 0x8, addend: 0x0, symName: __ZN17dmResourceArchive27NewArchiveIndexWithResourceEPNS_21ArchiveIndexContainerEPKcPKhjPKNS_18LiveUpdateResourceERPNS_12ArchiveIndexE, symObjAddr: 0xF58, symBinAddr: 0x1000375E8, symSize: 0x27C }
  - { offset: 0x9A001, size: 0x8, addend: 0x0, symName: __ZN17dmResourceArchive18SetNewArchiveIndexEPNS_21ArchiveIndexContainerEPNS_12ArchiveIndexEb, symObjAddr: 0x11D4, symBinAddr: 0x100037864, symSize: 0x64 }
  - { offset: 0x9A17A, size: 0x8, addend: 0x0, symName: __ZN17dmResourceArchive12ArchiveIndexC1Ev, symObjAddr: 0x18, symBinAddr: 0x100036D44, symSize: 0x18 }
  - { offset: 0x9A19C, size: 0x8, addend: 0x0, symName: __ZN17dmResourceArchive12ArchiveIndexC1Ev, symObjAddr: 0x18, symBinAddr: 0x100036D44, symSize: 0x18 }
  - { offset: 0x9A54E, size: 0x8, addend: 0x0, symName: __ZN17dmResourceArchive22WriteResourceToArchiveERPNS_21ArchiveIndexContainerEPKhjRjS5_.cold.3, symObjAddr: 0x12B4, symBinAddr: 0x10024F900, symSize: 0x28 }
  - { offset: 0x9A566, size: 0x8, addend: 0x0, symName: __ZN17dmResourceArchive22WriteResourceToArchiveERPNS_21ArchiveIndexContainerEPKhjRjS5_.cold.1, symObjAddr: 0x1264, symBinAddr: 0x10024F8B0, symSize: 0x28 }
  - { offset: 0x9A57E, size: 0x8, addend: 0x0, symName: __ZN17dmResourceArchive22WriteResourceToArchiveERPNS_21ArchiveIndexContainerEPKhjRjS5_.cold.2, symObjAddr: 0x128C, symBinAddr: 0x10024F8D8, symSize: 0x28 }
  - { offset: 0x9A596, size: 0x8, addend: 0x0, symName: __ZN17dmResourceArchive14ShiftAndInsertEPNS_21ArchiveIndexContainerEPNS_12ArchiveIndexEPKhjiPKNS_18LiveUpdateResourceEPKNS_9EntryDataE.cold.1, symObjAddr: 0x12DC, symBinAddr: 0x10024F928, symSize: 0x28 }
  - { offset: 0x9BEE1, size: 0x8, addend: 0x0, symName: __Z24ResourceChunkCacheCreatej, symObjAddr: 0x1A4, symBinAddr: 0x1000378C8, symSize: 0x60 }
  - { offset: 0x9C090, size: 0x8, addend: 0x0, symName: __Z25ResourceChunkCacheDestroyP18ResourceChunkCache, symObjAddr: 0x204, symBinAddr: 0x100037928, symSize: 0xA8 }
  - { offset: 0x9C1CA, size: 0x8, addend: 0x0, symName: __Z21ResourceChunkCacheGetP18ResourceChunkCacheyjP18ResourceCacheChunk, symObjAddr: 0x2AC, symBinAddr: 0x1000379D0, symSize: 0x154 }
  - { offset: 0x9C2B7, size: 0x8, addend: 0x0, symName: __Z21ResourceChunkCacheGetP18ResourceChunkCacheyjP18ResourceCacheChunk, symObjAddr: 0x2AC, symBinAddr: 0x1000379D0, symSize: 0x154 }
  - { offset: 0x9C7E3, size: 0x8, addend: 0x0, symName: __Z21ResourceChunkCachePutP18ResourceChunkCacheyiP18ResourceCacheChunk, symObjAddr: 0x400, symBinAddr: 0x100037B24, symSize: 0x210 }
  - { offset: 0x9CD30, size: 0x8, addend: 0x0, symName: __Z24ResourceChunkCacheCanFitP18ResourceChunkCachej, symObjAddr: 0x610, symBinAddr: 0x100037D34, symSize: 0x14 }
  - { offset: 0x9CDEC, size: 0x8, addend: 0x0, symName: __Z24ResourceChunkCacheCanFitP18ResourceChunkCachej, symObjAddr: 0x610, symBinAddr: 0x100037D34, symSize: 0x14 }
  - { offset: 0x9CF19, size: 0x8, addend: 0x0, symName: __Z29ResourceChunkCacheEvictMemoryP18ResourceChunkCachej, symObjAddr: 0x63C, symBinAddr: 0x100037D48, symSize: 0x184 }
  - { offset: 0x9D328, size: 0x8, addend: 0x0, symName: __Z31ResourceChunkCacheEvictPathHashP18ResourceChunkCachey, symObjAddr: 0x7C0, symBinAddr: 0x100037ECC, symSize: 0x168 }
  - { offset: 0x9D353, size: 0x8, addend: 0x0, symName: __Z29ResourceChunkCacheEvictMemoryP18ResourceChunkCachej.cold.2, symObjAddr: 0xAF4, symBinAddr: 0x10024F950, symSize: 0x28 }
  - { offset: 0x9D380, size: 0x8, addend: 0x0, symName: __Z31ResourceChunkCacheEvictPathHashP18ResourceChunkCachey, symObjAddr: 0x7C0, symBinAddr: 0x100037ECC, symSize: 0x168 }
  - { offset: 0x9D747, size: 0x8, addend: 0x0, symName: __ZL24ChunkComparePathOffsetFnPKvS0_, symObjAddr: 0x9F0, symBinAddr: 0x100038034, symSize: 0x3C }
  - { offset: 0x9F670, size: 0x8, addend: 0x0, symName: __Z29ResourceDescriptorGetNameHashP18ResourceDescriptor, symObjAddr: 0x0, symBinAddr: 0x100038070, symSize: 0x8 }
  - { offset: 0x9F685, size: 0x8, addend: 0x0, symName: __Z29ResourceDescriptorGetNameHashP18ResourceDescriptor, symObjAddr: 0x0, symBinAddr: 0x100038070, symSize: 0x8 }
  - { offset: 0x9F6A3, size: 0x8, addend: 0x0, symName: __Z29ResourceDescriptorSetResourceP18ResourceDescriptorPv, symObjAddr: 0x8, symBinAddr: 0x100038078, symSize: 0x8 }
  - { offset: 0x9F6C6, size: 0x8, addend: 0x0, symName: __Z29ResourceDescriptorGetResourceP18ResourceDescriptor, symObjAddr: 0x10, symBinAddr: 0x100038080, symSize: 0x8 }
  - { offset: 0x9F6E4, size: 0x8, addend: 0x0, symName: __Z33ResourceDescriptorSetPrevResourceP18ResourceDescriptorPv, symObjAddr: 0x18, symBinAddr: 0x100038088, symSize: 0x8 }
  - { offset: 0x9F707, size: 0x8, addend: 0x0, symName: __Z33ResourceDescriptorGetPrevResourceP18ResourceDescriptor, symObjAddr: 0x20, symBinAddr: 0x100038090, symSize: 0x8 }
  - { offset: 0x9F725, size: 0x8, addend: 0x0, symName: __Z33ResourceDescriptorSetResourceSizeP18ResourceDescriptorj, symObjAddr: 0x28, symBinAddr: 0x100038098, symSize: 0x8 }
  - { offset: 0x9F8BE, size: 0x8, addend: 0x0, symName: __ZN10dmResource15GetManifestPathEPKN5dmURI5PartsEPcj, symObjAddr: 0x60, symBinAddr: 0x1000380A0, symSize: 0x48 }
  - { offset: 0x9F909, size: 0x8, addend: 0x0, symName: __ZN10dmResource18GetEntryHashLengthEPNS_8ManifestE, symObjAddr: 0xA8, symBinAddr: 0x1000380E8, symSize: 0xC }
  - { offset: 0x9F98F, size: 0x8, addend: 0x0, symName: __ZN10dmResource14DeleteManifestEPNS_8ManifestE, symObjAddr: 0xB4, symBinAddr: 0x1000380F4, symSize: 0x60 }
  - { offset: 0x9FAC9, size: 0x8, addend: 0x0, symName: __ZN10dmResource22LoadManifestFromBufferEPKhjPPNS_8ManifestE, symObjAddr: 0x114, symBinAddr: 0x100038154, symSize: 0x138 }
  - { offset: 0x9FC2E, size: 0x8, addend: 0x0, symName: __ZN10dmResource12LoadManifestEPKcPPNS_8ManifestE, symObjAddr: 0x24C, symBinAddr: 0x10003828C, symSize: 0x154 }
  - { offset: 0x9FDC5, size: 0x8, addend: 0x0, symName: __ZN10dmResource12LoadManifestEPKN5dmURI5PartsEPPNS_8ManifestE, symObjAddr: 0x3A0, symBinAddr: 0x1000383E0, symSize: 0x7C }
  - { offset: 0x9FE73, size: 0x8, addend: 0x0, symName: __ZN10dmResource13WriteManifestEPKcPNS_8ManifestE, symObjAddr: 0x41C, symBinAddr: 0x10003845C, symSize: 0xF0 }
  - { offset: 0x9FF88, size: 0x8, addend: 0x0, symName: __ZN10dmResource25GetApplicationSupportPathEPNS_8ManifestEPcj, symObjAddr: 0x50C, symBinAddr: 0x10003854C, symSize: 0xD8 }
  - { offset: 0xA008D, size: 0x8, addend: 0x0, symName: __ZN10dmResource26HasManifestExcludedEntriesEPNS_8ManifestE, symObjAddr: 0x5E4, symBinAddr: 0x100038624, symSize: 0x54 }
  - { offset: 0xA00EE, size: 0x8, addend: 0x0, symName: __ZN10dmResource9FindEntryEPNS_8ManifestEy, symObjAddr: 0x638, symBinAddr: 0x100038678, symSize: 0x5C }
  - { offset: 0xA01AE, size: 0x8, addend: 0x0, symName: __ZN10dmResource15GetDependenciesEPNS_8ManifestEyR7dmArrayIyE, symObjAddr: 0x694, symBinAddr: 0x1000386D4, symSize: 0x10C }
  - { offset: 0xA0333, size: 0x8, addend: 0x0, symName: __ZN10dmResource23GetUrlHashFromHexDigestEPNS_8ManifestEy, symObjAddr: 0x7A0, symBinAddr: 0x1000387E0, symSize: 0x8C }
  - { offset: 0xA033D, size: 0x8, addend: 0x0, symName: __ZN10dmResource23GetUrlHashFromHexDigestEPNS_8ManifestEy, symObjAddr: 0x7A0, symBinAddr: 0x1000387E0, symSize: 0x8C }
  - { offset: 0xA0429, size: 0x8, addend: 0x0, symName: __ZN10dmResourceL23BuildDigestToUrlMappingEPNS_8ManifestEb, symObjAddr: 0x82C, symBinAddr: 0x10003886C, symSize: 0x174 }
  - { offset: 0xA1166, size: 0x8, addend: 0x0, symName: __ZN10dmResource12LoadManifestEPKcPPNS_8ManifestE.cold.1, symObjAddr: 0xCFC, symBinAddr: 0x10024F978, symSize: 0x28 }
  - { offset: 0xA1431, size: 0x8, addend: 0x0, symName: __ZN10dmResource12LoadManifestEPKcPPNS_8ManifestE.cold.1, symObjAddr: 0xCFC, symBinAddr: 0x10024F978, symSize: 0x28 }
  - { offset: 0xA18E4, size: 0x8, addend: 0x0, symName: __ZN16dmResourceMounts6CreateEPN18dmResourceProvider7ArchiveE, symObjAddr: 0x0, symBinAddr: 0x1000389E0, symSize: 0x6C }
  - { offset: 0xA1915, size: 0x8, addend: 0x0, symName: __ZN16dmResourceMounts15MOUNTS_FILENAMEE, symObjAddr: 0x3CF8, symBinAddr: 0x100343680, symSize: 0x0 }
  - { offset: 0xA19DC, size: 0x8, addend: 0x0, symName: __ZN16dmResourceMounts6CreateEPN18dmResourceProvider7ArchiveE, symObjAddr: 0x0, symBinAddr: 0x1000389E0, symSize: 0x6C }
  - { offset: 0xA1B4B, size: 0x8, addend: 0x0, symName: __ZN16dmResourceMounts7DestroyEPNS_21ResourceMountsContextE, symObjAddr: 0x6C, symBinAddr: 0x100038A4C, symSize: 0x118 }
  - { offset: 0xA1E0D, size: 0x8, addend: 0x0, symName: __ZN16dmResourceMounts8GetMutexEPNS_21ResourceMountsContextE, symObjAddr: 0x184, symBinAddr: 0x100038B64, symSize: 0x8 }
  - { offset: 0xA1E18, size: 0x8, addend: 0x0, symName: __ZN16dmResourceMounts8GetMutexEPNS_21ResourceMountsContextE, symObjAddr: 0x184, symBinAddr: 0x100038B64, symSize: 0x8 }
  - { offset: 0xA1EB5, size: 0x8, addend: 0x0, symName: __ZN16dmResourceMounts8AddMountEPNS_21ResourceMountsContextEPKcPN18dmResourceProvider7ArchiveEib, symObjAddr: 0x18C, symBinAddr: 0x100038B6C, symSize: 0x1BC }
  - { offset: 0xA2202, size: 0x8, addend: 0x0, symName: __ZN16dmResourceMounts14GetMountByNameEPNS_21ResourceMountsContextEPKcPNS_15SGetMountResultE, symObjAddr: 0x348, symBinAddr: 0x100038D28, symSize: 0x108 }
  - { offset: 0xA220C, size: 0x8, addend: 0x0, symName: __ZN16dmResourceMounts14GetMountByNameEPNS_21ResourceMountsContextEPKcPNS_15SGetMountResultE, symObjAddr: 0x348, symBinAddr: 0x100038D28, symSize: 0x108 }
  - { offset: 0xA2459, size: 0x8, addend: 0x0, symName: __ZN16dmResourceMounts11RemoveMountEPNS_21ResourceMountsContextEPN18dmResourceProvider7ArchiveE, symObjAddr: 0x450, symBinAddr: 0x100038E30, symSize: 0xA0 }
  - { offset: 0xA24ED, size: 0x8, addend: 0x0, symName: __ZN16dmResourceMounts11RemoveMountEPNS_21ResourceMountsContextEPN18dmResourceProvider7ArchiveE, symObjAddr: 0x450, symBinAddr: 0x100038E30, symSize: 0xA0 }
  - { offset: 0xA2645, size: 0x8, addend: 0x0, symName: __ZN16dmResourceMountsL26RemoveMountByIndexInternalEPNS_21ResourceMountsContextEj, symObjAddr: 0x4F0, symBinAddr: 0x100038ED0, symSize: 0xEC }
  - { offset: 0xA2650, size: 0x8, addend: 0x0, symName: __ZN16dmResourceMountsL26RemoveMountByIndexInternalEPNS_21ResourceMountsContextEj, symObjAddr: 0x4F0, symBinAddr: 0x100038ED0, symSize: 0xEC }
  - { offset: 0xA280C, size: 0x8, addend: 0x0, symName: __ZN16dmResourceMounts22RemoveAndUnmountByNameEPNS_21ResourceMountsContextEPKc, symObjAddr: 0x5DC, symBinAddr: 0x100038FBC, symSize: 0xB8 }
  - { offset: 0xA2817, size: 0x8, addend: 0x0, symName: __ZN16dmResourceMounts22RemoveAndUnmountByNameEPNS_21ResourceMountsContextEPKc, symObjAddr: 0x5DC, symBinAddr: 0x100038FBC, symSize: 0xB8 }
  - { offset: 0xA2996, size: 0x8, addend: 0x0, symName: __ZN16dmResourceMounts12GetNumMountsEPNS_21ResourceMountsContextE, symObjAddr: 0x694, symBinAddr: 0x100039074, symSize: 0x4C }
  - { offset: 0xA29A1, size: 0x8, addend: 0x0, symName: __ZN16dmResourceMounts12GetNumMountsEPNS_21ResourceMountsContextE, symObjAddr: 0x694, symBinAddr: 0x100039074, symSize: 0x4C }
  - { offset: 0xA2B25, size: 0x8, addend: 0x0, symName: __ZN16dmResourceMounts10LoadMountsEPNS_21ResourceMountsContextEPKc, symObjAddr: 0x6E0, symBinAddr: 0x1000390C0, symSize: 0x230 }
  - { offset: 0xA2EE3, size: 0x8, addend: 0x0, symName: __ZN16dmResourceMounts10SaveMountsEPNS_21ResourceMountsContextEPKc, symObjAddr: 0x910, symBinAddr: 0x1000392F0, symSize: 0x260 }
  - { offset: 0xA32F0, size: 0x8, addend: 0x0, symName: __ZN16dmResourceMounts15GetMountByIndexEPNS_21ResourceMountsContextEjPNS_15SGetMountResultE, symObjAddr: 0xB70, symBinAddr: 0x100039550, symSize: 0x88 }
  - { offset: 0xA348E, size: 0x8, addend: 0x0, symName: __ZN16dmResourceMounts15GetResourceSizeEPNS_21ResourceMountsContextEyPKcPj, symObjAddr: 0xBF8, symBinAddr: 0x1000395D8, symSize: 0x188 }
  - { offset: 0xA37BC, size: 0x8, addend: 0x0, symName: __ZN16dmResourceMounts12ReadResourceEPNS_21ResourceMountsContextEyPKcPhj, symObjAddr: 0xDA4, symBinAddr: 0x100039760, symSize: 0x1A8 }
  - { offset: 0xA3B1A, size: 0x8, addend: 0x0, symName: __ZN16dmResourceMounts19ReadResourcePartialEPNS_21ResourceMountsContextEyPKcjjPhPj, symObjAddr: 0xF4C, symBinAddr: 0x100039908, symSize: 0x1CC }
  - { offset: 0xA3EC0, size: 0x8, addend: 0x0, symName: __ZN16dmResourceMounts15GetDependenciesEPNS_21ResourceMountsContextEPKNS_22SGetDependenciesParamsEPFvPvPKNS_22SGetDependenciesResultEES5_, symObjAddr: 0x15BC, symBinAddr: 0x100039AD4, symSize: 0x74 }
  - { offset: 0xA407F, size: 0x8, addend: 0x0, symName: __ZN16dmResourceMountsL23GetDependenciesInternalEPNS_21DependencyIterContextEy, symObjAddr: 0x1630, symBinAddr: 0x100039B48, symSize: 0x38C }
  - { offset: 0xA4766, size: 0x8, addend: 0x0, symName: __ZNSt3__111__introsortINS_17_ClassicAlgPolicyERN16dmResourceMounts13MountSortPredEPNS2_12ArchiveMountELb0EEEvT1_S7_T0_NS_15iterator_traitsIS7_E15difference_typeEb, symObjAddr: 0x19BC, symBinAddr: 0x100039ED4, symSize: 0xDE0 }
  - { offset: 0xA4D91, size: 0x8, addend: 0x0, symName: __ZNSt3__111__introsortINS_17_ClassicAlgPolicyERN16dmResourceMounts13MountSortPredEPNS2_12ArchiveMountELb0EEEvT1_S7_T0_NS_15iterator_traitsIS7_E15difference_typeEb, symObjAddr: 0x19BC, symBinAddr: 0x100039ED4, symSize: 0xDE0 }
  - { offset: 0xA678C, size: 0x8, addend: 0x0, symName: __ZNSt3__127__insertion_sort_incompleteB8nn200100INS_17_ClassicAlgPolicyERN16dmResourceMounts13MountSortPredEPNS2_12ArchiveMountEEEbT1_S7_T0_, symObjAddr: 0x29E4, symBinAddr: 0x10003AEFC, symSize: 0x474 }
  - { offset: 0xA7713, size: 0x8, addend: 0x0, symName: __ZNSt3__17__sort5B8nn200100INS_17_ClassicAlgPolicyERN16dmResourceMounts13MountSortPredEPNS2_12ArchiveMountELi0EEEvT1_S7_S7_S7_S7_T0_, symObjAddr: 0x279C, symBinAddr: 0x10003ACB4, symSize: 0x248 }
  - { offset: 0xA7E5C, size: 0x8, addend: 0x0, symName: __ZNSt3__119__partial_sort_implB8nn200100INS_17_ClassicAlgPolicyERN16dmResourceMounts13MountSortPredEPNS2_12ArchiveMountES6_EET1_S7_S7_T2_OT0_, symObjAddr: 0x2E58, symBinAddr: 0x10003B370, symSize: 0x3D8 }
  - { offset: 0xAAC10, size: 0x8, addend: 0x0, symName: __ZN11dmHashTableIybE11SetCapacityEjj, symObjAddr: 0x3230, symBinAddr: 0x10003B748, symSize: 0x150 }
  - { offset: 0xAADE8, size: 0x8, addend: 0x0, symName: __ZN11dmHashTableIybE3PutEyRKb, symObjAddr: 0x3380, symBinAddr: 0x10003B898, symSize: 0x110 }
  - { offset: 0xAADF3, size: 0x8, addend: 0x0, symName: __ZN11dmHashTableIybE3PutEyRKb, symObjAddr: 0x3380, symBinAddr: 0x10003B898, symSize: 0x110 }
  - { offset: 0xAD01D, size: 0x8, addend: 0x0, symName: __ZN16dmResourceMounts14FreeMountsFileER7dmArrayINS_14MountFileEntryEE, symObjAddr: 0x0, symBinAddr: 0x10003B9A8, symSize: 0x90 }
  - { offset: 0xAD03B, size: 0x8, addend: 0x0, symName: __ZN16dmResourceMounts24MOUNTSFILE_CSV_SEPARATORE, symObjAddr: 0xC10, symBinAddr: 0x100343688, symSize: 0x0 }
  - { offset: 0xAD049, size: 0x8, addend: 0x0, symName: __ZN16dmResourceMounts14FreeMountsFileER7dmArrayINS_14MountFileEntryEE, symObjAddr: 0x0, symBinAddr: 0x10003B9A8, symSize: 0x90 }
  - { offset: 0xAD11D, size: 0x8, addend: 0x0, symName: __ZN16dmResourceMounts14ReadMountsFileEPKcR7dmArrayINS_14MountFileEntryEE, symObjAddr: 0x90, symBinAddr: 0x10003BA38, symSize: 0x4C4 }
  - { offset: 0xAD200, size: 0x8, addend: 0x0, symName: __ZN16dmResourceMounts14ReadMountsFileEPKcR7dmArrayINS_14MountFileEntryEE, symObjAddr: 0x90, symBinAddr: 0x10003BA38, symSize: 0x4C4 }
  - { offset: 0xAD798, size: 0x8, addend: 0x0, symName: __ZN16dmResourceMounts15WriteMountsFileEPKcRK7dmArrayINS_14MountFileEntryEE, symObjAddr: 0x554, symBinAddr: 0x10003BEFC, symSize: 0x3B0 }
  - { offset: 0xADCCA, size: 0x8, addend: 0x0, symName: __ZN16dmResourceMountsL8WriteStrEP7__sFILEPKc, symObjAddr: 0x904, symBinAddr: 0x10003C2AC, symSize: 0x7C }
  - { offset: 0xAE2D6, size: 0x8, addend: 0x0, symName: __ZN10dmResource15UpdatePreloaderEP17ResourcePreloaderPFbPKNS_31PreloaderCompleteCallbackParamsEEPS2_j, symObjAddr: 0x9B0, symBinAddr: 0x10003CAC4, symSize: 0x2A0 }
  - { offset: 0xAE301, size: 0x8, addend: 0x0, symName: __ZZN10dmResource15UpdatePreloaderEP17ResourcePreloaderPFbPKNS_31PreloaderCompleteCallbackParamsEEPS2_jE9_scope937, symObjAddr: 0x17A48, symBinAddr: 0x100358318, symSize: 0x0 }
  - { offset: 0xAE602, size: 0x8, addend: 0x0, symName: __ZN10dmResourceL22PreloaderUpdateOneItemEP17ResourcePreloaders, symObjAddr: 0xC50, symBinAddr: 0x10003CD64, symSize: 0x4BC }
  - { offset: 0xAE62D, size: 0x8, addend: 0x0, symName: __ZZN10dmResourceL22PreloaderUpdateOneItemEP17ResourcePreloadersE9_scope765, symObjAddr: 0x17A50, symBinAddr: 0x100358320, symSize: 0x0 }
  - { offset: 0xAEC7E, size: 0x8, addend: 0x0, symName: __ZN10dmResourceL8PopHintsEP17ResourcePreloader, symObjAddr: 0x110C, symBinAddr: 0x10003D220, symSize: 0x1C4 }
  - { offset: 0xAED31, size: 0x8, addend: 0x0, symName: __ZN10dmResource18MakePathDescriptorEP17ResourcePreloaderPKcR14PathDescriptor, symObjAddr: 0x214, symBinAddr: 0x10003C328, symSize: 0x34C }
  - { offset: 0xAF2F3, size: 0x8, addend: 0x0, symName: __ZN10dmResource12NewPreloaderEP15ResourceFactoryRK7dmArrayIPKcE, symObjAddr: 0x560, symBinAddr: 0x10003C674, symSize: 0x3E8 }
  - { offset: 0xAF7AC, size: 0x8, addend: 0x0, symName: __ZN10dmResource12NewPreloaderEP15ResourceFactoryPKc, symObjAddr: 0x948, symBinAddr: 0x10003CA5C, symSize: 0x68 }
  - { offset: 0xAF7B6, size: 0x8, addend: 0x0, symName: __ZN10dmResource12NewPreloaderEP15ResourceFactoryPKc, symObjAddr: 0x948, symBinAddr: 0x10003CA5C, symSize: 0x68 }
  - { offset: 0xAF92F, size: 0x8, addend: 0x0, symName: __ZN10dmResourceL8PopHintsEP17ResourcePreloader, symObjAddr: 0x110C, symBinAddr: 0x10003D220, symSize: 0x1C4 }
  - { offset: 0xAFB55, size: 0x8, addend: 0x0, symName: __ZN10dmResource15DeletePreloaderEP17ResourcePreloader, symObjAddr: 0x12D0, symBinAddr: 0x10003D3E4, symSize: 0x138 }
  - { offset: 0xAFD50, size: 0x8, addend: 0x0, symName: __ZN10dmResourceL23PreloaderTryPruneParentEP17ResourcePreloaderP14PreloadRequest, symObjAddr: 0x1558, symBinAddr: 0x10003D66C, symSize: 0xF4 }
  - { offset: 0xAFE6C, size: 0x8, addend: 0x0, symName: __ZN10dmResourceL14RemoveChildrenEP17ResourcePreloaderP14PreloadRequest, symObjAddr: 0x164C, symBinAddr: 0x10003D760, symSize: 0x170 }
  - { offset: 0xAFE76, size: 0x8, addend: 0x0, symName: __ZN10dmResourceL14RemoveChildrenEP17ResourcePreloaderP14PreloadRequest, symObjAddr: 0x164C, symBinAddr: 0x10003D760, symSize: 0x170 }
  - { offset: 0xAFFAD, size: 0x8, addend: 0x0, symName: __ZN10dmResourceL14CreateResourceEP17ResourcePreloaderP14PreloadRequestPvjj, symObjAddr: 0x17BC, symBinAddr: 0x10003D8D0, symSize: 0x37C }
  - { offset: 0xAFFB7, size: 0x8, addend: 0x0, symName: __ZN10dmResourceL14CreateResourceEP17ResourcePreloaderP14PreloadRequestPvjj, symObjAddr: 0x17BC, symBinAddr: 0x10003D8D0, symSize: 0x37C }
  - { offset: 0xB02F5, size: 0x8, addend: 0x0, symName: __ZN10dmResource15DeletePreloaderEP17ResourcePreloader, symObjAddr: 0x12D0, symBinAddr: 0x10003D3E4, symSize: 0x138 }
  - { offset: 0xB0495, size: 0x8, addend: 0x0, symName: __ZN10dmResource11PreloadHintEP23ResourcePreloadHintInfoPKc, symObjAddr: 0x1408, symBinAddr: 0x10003D51C, symSize: 0x150 }
  - { offset: 0xB04B5, size: 0x8, addend: 0x0, symName: __ZN10dmResource11PreloadHintEP23ResourcePreloadHintInfoPKc, symObjAddr: 0x1408, symBinAddr: 0x10003D51C, symSize: 0x150 }
  - { offset: 0xB06EC, size: 0x8, addend: 0x0, symName: __ZN10dmResourceL23PreloaderTryPruneParentEP17ResourcePreloaderP14PreloadRequest, symObjAddr: 0x1558, symBinAddr: 0x10003D66C, symSize: 0xF4 }
  - { offset: 0xB117C, size: 0x8, addend: 0x0, symName: __ZN10dmResource18MakePathDescriptorEP17ResourcePreloaderPKcR14PathDescriptor, symObjAddr: 0x214, symBinAddr: 0x10003C328, symSize: 0x34C }
  - { offset: 0xB1E77, size: 0x8, addend: 0x0, symName: __ZN10dmResource18MakePathDescriptorEP17ResourcePreloaderPKcR14PathDescriptor.cold.1, symObjAddr: 0x1DF8, symBinAddr: 0x10024F9A0, symSize: 0x28 }
  - { offset: 0xB218B, size: 0x8, addend: 0x0, symName: __ZN10dmResource12NewPreloaderEP15ResourceFactoryRK7dmArrayIPKcE.cold.3, symObjAddr: 0x1E68, symBinAddr: 0x10024F9C8, symSize: 0x28 }
  - { offset: 0xB2564, size: 0x8, addend: 0x0, symName: __ZN10dmResourceL22PreloaderUpdateOneItemEP17ResourcePreloaders.cold.1, symObjAddr: 0x1EB8, symBinAddr: 0x10024F9F0, symSize: 0x28 }
  - { offset: 0xB2664, size: 0x8, addend: 0x0, symName: __ZN17ResourcePreloaderD2Ev, symObjAddr: 0x1CF4, symBinAddr: 0x10003DC4C, symSize: 0xB4 }
  - { offset: 0xB268F, size: 0x8, addend: 0x0, symName: __ZN10dmResourceL22PreloaderUpdateOneItemEP17ResourcePreloaders.cold.2, symObjAddr: 0x1EE0, symBinAddr: 0x10024FA18, symSize: 0x24 }
  - { offset: 0xB2709, size: 0x8, addend: 0x0, symName: __ZN10dmResourceL22PreloaderUpdateOneItemEP17ResourcePreloaders.cold.3, symObjAddr: 0x1F04, symBinAddr: 0x10024FA3C, symSize: 0x28 }
  - { offset: 0xB2763, size: 0x8, addend: 0x0, symName: __ZN10dmResourceL22PreloaderUpdateOneItemEP17ResourcePreloaders.cold.5, symObjAddr: 0x1F50, symBinAddr: 0x10024FA64, symSize: 0x28 }
  - { offset: 0xB28D8, size: 0x8, addend: 0x0, symName: __ZN17ResourcePreloaderD2Ev, symObjAddr: 0x1CF4, symBinAddr: 0x10003DC4C, symSize: 0xB4 }
  - { offset: 0xB2AAD, size: 0x8, addend: 0x0, symName: __ZN10dmResource15DeletePreloaderEP17ResourcePreloader.cold.1, symObjAddr: 0x1FC4, symBinAddr: 0x10024FA8C, symSize: 0x28 }
  - { offset: 0xB2B71, size: 0x8, addend: 0x0, symName: __ZN10dmResource11PreloadHintEP23ResourcePreloadHintInfoPKc.cold.2, symObjAddr: 0x2038, symBinAddr: 0x10024FAB4, symSize: 0x28 }
  - { offset: 0xB2BF4, size: 0x8, addend: 0x0, symName: __ZN10dmResourceL14RemoveChildrenEP17ResourcePreloaderP14PreloadRequest.cold.6, symObjAddr: 0x2174, symBinAddr: 0x10024FB54, symSize: 0x28 }
  - { offset: 0xB2C22, size: 0x8, addend: 0x0, symName: __ZN10dmResourceL14RemoveChildrenEP17ResourcePreloaderP14PreloadRequest.cold.1, symObjAddr: 0x20B0, symBinAddr: 0x10024FADC, symSize: 0x28 }
  - { offset: 0xB2C50, size: 0x8, addend: 0x0, symName: __ZN10dmResourceL14RemoveChildrenEP17ResourcePreloaderP14PreloadRequest.cold.2, symObjAddr: 0x20D8, symBinAddr: 0x10024FB04, symSize: 0x28 }
  - { offset: 0xB2C7E, size: 0x8, addend: 0x0, symName: __ZN10dmResourceL14RemoveChildrenEP17ResourcePreloaderP14PreloadRequest.cold.3, symObjAddr: 0x2100, symBinAddr: 0x10024FB2C, symSize: 0x28 }
  - { offset: 0xB2CCC, size: 0x8, addend: 0x0, symName: __ZN10dmResourceL14RemoveChildrenEP17ResourcePreloaderP14PreloadRequest.cold.7, symObjAddr: 0x219C, symBinAddr: 0x10024FB7C, symSize: 0x28 }
  - { offset: 0xB2D4C, size: 0x8, addend: 0x0, symName: __ZN10dmResourceL14CreateResourceEP17ResourcePreloaderP14PreloadRequestPvjj.cold.1, symObjAddr: 0x21C4, symBinAddr: 0x10024FBA4, symSize: 0x28 }
  - { offset: 0xB2D64, size: 0x8, addend: 0x0, symName: __ZN10dmResourceL14CreateResourceEP17ResourcePreloaderP14PreloadRequestPvjj.cold.2, symObjAddr: 0x21EC, symBinAddr: 0x10024FBCC, symSize: 0x28 }
  - { offset: 0xB2D7C, size: 0x8, addend: 0x0, symName: __ZN10dmResourceL14CreateResourceEP17ResourcePreloaderP14PreloadRequestPvjj.cold.11, symObjAddr: 0x234C, symBinAddr: 0x10024FC94, symSize: 0x28 }
  - { offset: 0xB2D94, size: 0x8, addend: 0x0, symName: __ZN10dmResourceL14CreateResourceEP17ResourcePreloaderP14PreloadRequestPvjj.cold.6, symObjAddr: 0x2288, symBinAddr: 0x10024FBF4, symSize: 0x28 }
  - { offset: 0xB2DC1, size: 0x8, addend: 0x0, symName: __ZN10dmResourceL14CreateResourceEP17ResourcePreloaderP14PreloadRequestPvjj.cold.10, symObjAddr: 0x2324, symBinAddr: 0x10024FC6C, symSize: 0x28 }
  - { offset: 0xB2DD9, size: 0x8, addend: 0x0, symName: __ZN10dmResourceL14CreateResourceEP17ResourcePreloaderP14PreloadRequestPvjj.cold.9, symObjAddr: 0x22FC, symBinAddr: 0x10024FC44, symSize: 0x28 }
  - { offset: 0xB2DF1, size: 0x8, addend: 0x0, symName: __ZN10dmResourceL14CreateResourceEP17ResourcePreloaderP14PreloadRequestPvjj.cold.8, symObjAddr: 0x22D4, symBinAddr: 0x10024FC1C, symSize: 0x28 }
  - { offset: 0xB3009, size: 0x8, addend: 0x0, symName: _OUTLINED_FUNCTION_0, symObjAddr: 0x243C, symBinAddr: 0x10003DD00, symSize: 0x8 }
  - { offset: 0xB3233, size: 0x8, addend: 0x0, symName: __ZN10dmResource11PreloadDataEP15ResourceFactoryPKcjjPFiS1_PvP18ResourceDescriptorjjPhES4_, symObjAddr: 0x0, symBinAddr: 0x10003DD08, symSize: 0x10C }
  - { offset: 0xB32E5, size: 0x8, addend: 0x0, symName: __ZN10dmResource11PreloadDataEP15ResourceFactoryPKcjjPFiS1_PvP18ResourceDescriptorjjPhES4_, symObjAddr: 0x0, symBinAddr: 0x10003DD08, symSize: 0x10C }
  - { offset: 0xB346E, size: 0x8, addend: 0x0, symName: __ZN10dmResourceL10JobProcessEPN11dmJobThread10JobContextEyPvS3_, symObjAddr: 0x10C, symBinAddr: 0x10003DE14, symSize: 0xE0 }
  - { offset: 0xB364F, size: 0x8, addend: 0x0, symName: __ZN10dmResourceL11JobCallbackEPN11dmJobThread10JobContextEyNS0_9JobStatusEPvS4_i, symObjAddr: 0x1EC, symBinAddr: 0x10003DEF4, symSize: 0xB8 }
  - { offset: 0xB36BD, size: 0x8, addend: 0x0, symName: __ZN10dmResourceL11JobCallbackEPN11dmJobThread10JobContextEyNS0_9JobStatusEPvS4_i, symObjAddr: 0x1EC, symBinAddr: 0x10003DEF4, symSize: 0xB8 }
  - { offset: 0xB3827, size: 0x8, addend: 0x0, symName: __ZN10dmResource11PreloadDataEP15ResourceFactoryPKcjjPFiS1_PvP18ResourceDescriptorjjPhES4_.cold.1, symObjAddr: 0x2A4, symBinAddr: 0x10024FCBC, symSize: 0x28 }
  - { offset: 0xB396D, size: 0x8, addend: 0x0, symName: __ZN10dmResource11PreloadDataEP15ResourceFactoryPKcjjPFiS1_PvP18ResourceDescriptorjjPhES4_.cold.1, symObjAddr: 0x2A4, symBinAddr: 0x10024FCBC, symSize: 0x28 }
  - { offset: 0xB3B6D, size: 0x8, addend: 0x0, symName: __ZN10dmResourceL11JobCallbackEPN11dmJobThread10JobContextEyNS0_9JobStatusEPvS4_i.cold.1, symObjAddr: 0x2F4, symBinAddr: 0x10024FCE4, symSize: 0x28 }
  - { offset: 0xB3D66, size: 0x8, addend: 0x0, symName: __Z35ResourceTypeContextGetContextByHashP19ResourceTypeContexty, symObjAddr: 0x0, symBinAddr: 0x10003DFAC, symSize: 0x58 }
  - { offset: 0xB3D9C, size: 0x8, addend: 0x0, symName: _g_ResourceTypeCreatorDescFirst, symObjAddr: 0x6890, symBinAddr: 0x100369F78, symSize: 0x0 }
  - { offset: 0xB4211, size: 0x8, addend: 0x0, symName: __ZN10dmResource13RegisterTypesEP15ResourceFactoryP13dmHashTable64IPvE, symObjAddr: 0x1AC, symBinAddr: 0x10003E0A8, symSize: 0x14C }
  - { offset: 0xB4416, size: 0x8, addend: 0x0, symName: __ZN10dmResource15DeregisterTypesEP15ResourceFactoryP13dmHashTable64IPvE, symObjAddr: 0x454, symBinAddr: 0x10003E1F4, symSize: 0xD4 }
  - { offset: 0xB45A9, size: 0x8, addend: 0x0, symName: __Z35ResourceTypeContextGetContextByHashP19ResourceTypeContexty, symObjAddr: 0x0, symBinAddr: 0x10003DFAC, symSize: 0x58 }
  - { offset: 0xB4659, size: 0x8, addend: 0x0, symName: __Z17ResourceTypeResetP12ResourceType, symObjAddr: 0x58, symBinAddr: 0x10003E004, symSize: 0x1C }
  - { offset: 0xB4681, size: 0x8, addend: 0x0, symName: __Z24ResourceTypeSetStreamingP12ResourceTypej, symObjAddr: 0xBC, symBinAddr: 0x10003E020, symSize: 0x8 }
  - { offset: 0xB46B6, size: 0x8, addend: 0x0, symName: __Z23ResourceTypeIsStreamingP12ResourceType, symObjAddr: 0xC4, symBinAddr: 0x10003E028, symSize: 0x10 }
  - { offset: 0xB46E4, size: 0x8, addend: 0x0, symName: __Z26ResourceTypeGetPreloadSizeP12ResourceType, symObjAddr: 0xD4, symBinAddr: 0x10003E038, symSize: 0x8 }
  - { offset: 0xB4711, size: 0x8, addend: 0x0, symName: __Z31ResourceRegisterTypeCreatorDescPvjPKcPF14ResourceResultP19ResourceTypeContextP12ResourceTypeES8_, symObjAddr: 0xDC, symBinAddr: 0x10003E040, symSize: 0x68 }
  - { offset: 0xB4946, size: 0x8, addend: 0x0, symName: __ZN10dmResource15DeregisterTypesEP15ResourceFactoryP13dmHashTable64IPvE, symObjAddr: 0x454, symBinAddr: 0x10003E1F4, symSize: 0xD4 }
  - { offset: 0xB4BDC, size: 0x8, addend: 0x0, symName: __ZN10dmResourceL15DecryptWithXteaEPvj, symObjAddr: 0x0, symBinAddr: 0x10003E2C8, symSize: 0x5C }
  - { offset: 0xB4C0D, size: 0x8, addend: 0x0, symName: __ZN10dmResource3KEYE, symObjAddr: 0x520, symBinAddr: 0x100343690, symSize: 0x0 }
  - { offset: 0xB4C26, size: 0x8, addend: 0x0, symName: __ZN10dmResource20g_ResourceDecryptionE, symObjAddr: 0x528, symBinAddr: 0x100343698, symSize: 0x0 }
  - { offset: 0xB4C3F, size: 0x8, addend: 0x0, symName: __ZN10dmResourceL15DecryptWithXteaEPvj, symObjAddr: 0x0, symBinAddr: 0x10003E2C8, symSize: 0x5C }
  - { offset: 0xB4CC4, size: 0x8, addend: 0x0, symName: __ZN10dmResource13DecryptBufferEPvj, symObjAddr: 0x78, symBinAddr: 0x10003E324, symSize: 0xC }
  - { offset: 0xB4D18, size: 0x8, addend: 0x0, symName: __ZN10dmResource20DecryptSignatureHashEPNS_8ManifestEPKhjPPhPj, symObjAddr: 0x84, symBinAddr: 0x10003E330, symSize: 0x3C }
  - { offset: 0xB4DD9, size: 0x8, addend: 0x0, symName: __ZN10dmResource10HashLengthEN15dmLiveUpdateDDF13HashAlgorithmE, symObjAddr: 0xC0, symBinAddr: 0x10003E36C, symSize: 0x14 }
  - { offset: 0xB4E12, size: 0x8, addend: 0x0, symName: __ZN10dmResource16BytesToHexStringEPKhjPcj, symObjAddr: 0xD4, symBinAddr: 0x10003E380, symSize: 0xCC }
  - { offset: 0xB4F14, size: 0x8, addend: 0x0, symName: __ZN10dmResource18CreateResourceHashEN15dmLiveUpdateDDF13HashAlgorithmEPKhmPh, symObjAddr: 0x1A0, symBinAddr: 0x10003E44C, symSize: 0x78 }
  - { offset: 0xB4F9C, size: 0x8, addend: 0x0, symName: __ZN10dmResource18CreateManifestHashEN15dmLiveUpdateDDF13HashAlgorithmEPKhmPh, symObjAddr: 0x218, symBinAddr: 0x10003E4C4, symSize: 0x98 }
  - { offset: 0xB5031, size: 0x8, addend: 0x0, symName: __ZN10dmResource10MemCompareEPKhjS1_j, symObjAddr: 0x2B0, symBinAddr: 0x10003E55C, symSize: 0x64 }
  - { offset: 0xB50AB, size: 0x8, addend: 0x0, symName: __ZN10dmResource24GetCanonicalPathFromBaseEPKcS1_Pcj, symObjAddr: 0x314, symBinAddr: 0x10003E5C0, symSize: 0x80 }
  - { offset: 0xB5191, size: 0x8, addend: 0x0, symName: __ZN10dmResource16GetCanonicalPathEPKcPcj, symObjAddr: 0x394, symBinAddr: 0x10003E640, symSize: 0x84 }
  - { offset: 0xB580A, size: 0x8, addend: 0x0, symName: __ZN10dmResource14VerifyResourceEPNS_8ManifestEPKhjS3_j, symObjAddr: 0x22C, symBinAddr: 0x10003E6C4, symSize: 0x114 }
  - { offset: 0xB599B, size: 0x8, addend: 0x0, symName: __ZN10dmResource14VerifyManifestEPNS_8ManifestEPKc, symObjAddr: 0x340, symBinAddr: 0x10003E7D8, symSize: 0x40 }
  - { offset: 0xB59FA, size: 0x8, addend: 0x0, symName: __ZN10dmResourceL36VerifyManifestSupportedEngineVersionEPNS_8ManifestE, symObjAddr: 0x380, symBinAddr: 0x10003E818, symSize: 0x150 }
  - { offset: 0xB5B68, size: 0x8, addend: 0x0, symName: __ZN10dmResourceL23VerifyManifestSignatureEPNS_8ManifestEPKc, symObjAddr: 0x4D0, symBinAddr: 0x10003E968, symSize: 0x1C8 }
  - { offset: 0xB625D, size: 0x8, addend: 0x0, symName: __ZN10dmResourceL23VerifyManifestSignatureEPNS_8ManifestEPKc.cold.1, symObjAddr: 0x8E0, symBinAddr: 0x10024FD0C, symSize: 0x28 }
  - { offset: 0xB6457, size: 0x8, addend: 0x0, symName: __ZN18dmResourceProvider13ArchiveLoader6VerifyEv, symObjAddr: 0x0, symBinAddr: 0x10003EB30, symSize: 0x58 }
  - { offset: 0xB6488, size: 0x8, addend: 0x0, symName: __ZN18dmResourceProviderL16g_ArchiveLoadersE, symObjAddr: 0x4108, symBinAddr: 0x100358330, symSize: 0x0 }
  - { offset: 0xB6646, size: 0x8, addend: 0x0, symName: __ZN18dmResourceProvider8RegisterEPNS_13ArchiveLoaderEjPKcPFvS1_EPFNS_6ResultEPNS_19ArchiveLoaderParamsES1_ESA_, symObjAddr: 0x88, symBinAddr: 0x10003EB88, symSize: 0x74 }
  - { offset: 0xB6713, size: 0x8, addend: 0x0, symName: __ZN18dmResourceProvider17InitializeLoadersEPNS_19ArchiveLoaderParamsE, symObjAddr: 0xFC, symBinAddr: 0x10003EBFC, symSize: 0x8C }
  - { offset: 0xB67A6, size: 0x8, addend: 0x0, symName: __ZN18dmResourceProvider15FinalizeLoadersEPNS_19ArchiveLoaderParamsE, symObjAddr: 0x188, symBinAddr: 0x10003EC88, symSize: 0x8C }
  - { offset: 0xB6839, size: 0x8, addend: 0x0, symName: __ZN18dmResourceProvider16FindLoaderByNameEy, symObjAddr: 0x220, symBinAddr: 0x10003ED14, symSize: 0x28 }
  - { offset: 0xB6876, size: 0x8, addend: 0x0, symName: __ZN18dmResourceProvider11CanMountUriEPNS_13ArchiveLoaderEPKN5dmURI5PartsE, symObjAddr: 0x248, symBinAddr: 0x10003ED3C, symSize: 0xC }
  - { offset: 0xB6927, size: 0x8, addend: 0x0, symName: __ZN18dmResourceProvider11CreateMountEPNS_13ArchiveLoaderEPKN5dmURI5PartsEPNS_7ArchiveEPS7_, symObjAddr: 0x254, symBinAddr: 0x10003ED48, symSize: 0xA0 }
  - { offset: 0xB6A11, size: 0x8, addend: 0x0, symName: __ZN18dmResourceProvider11CreateMountEPNS_13ArchiveLoaderEPvPPNS_7ArchiveE, symObjAddr: 0x2F4, symBinAddr: 0x10003EDE8, symSize: 0x50 }
  - { offset: 0xB6A6C, size: 0x8, addend: 0x0, symName: __ZN18dmResourceProvider7UnmountEPNS_7ArchiveE, symObjAddr: 0x344, symBinAddr: 0x10003EE38, symSize: 0x38 }
  - { offset: 0xB6AB5, size: 0x8, addend: 0x0, symName: __ZN18dmResourceProvider11GetFileSizeEPNS_7ArchiveEyPKcPj, symObjAddr: 0x37C, symBinAddr: 0x10003EE70, symSize: 0xC }
  - { offset: 0xB6B2C, size: 0x8, addend: 0x0, symName: __ZN18dmResourceProvider8ReadFileEPNS_7ArchiveEyPKcPhj, symObjAddr: 0x388, symBinAddr: 0x10003EE7C, symSize: 0xC }
  - { offset: 0xB6BB7, size: 0x8, addend: 0x0, symName: __ZN18dmResourceProvider15ReadFilePartialEPNS_7ArchiveEyPKcjjPhPj, symObjAddr: 0x394, symBinAddr: 0x10003EE88, symSize: 0xC }
  - { offset: 0xB6C6A, size: 0x8, addend: 0x0, symName: __ZN18dmResourceProvider11GetManifestEPNS_7ArchiveEPPN10dmResource8ManifestE, symObjAddr: 0x3A0, symBinAddr: 0x10003EE94, symSize: 0x1C }
  - { offset: 0xB6CB1, size: 0x8, addend: 0x0, symName: __ZN18dmResourceProvider11SetManifestEPNS_7ArchiveEPN10dmResource8ManifestE, symObjAddr: 0x3BC, symBinAddr: 0x10003EEB0, symSize: 0x1C }
  - { offset: 0xB6CF8, size: 0x8, addend: 0x0, symName: __ZN18dmResourceProvider6GetUriEPNS_7ArchiveEPN5dmURI5PartsE, symObjAddr: 0x3D8, symBinAddr: 0x10003EECC, symSize: 0x28 }
  - { offset: 0xB6D35, size: 0x8, addend: 0x0, symName: __ZN18dmResourceProvider9WriteFileEPNS_7ArchiveEyPKcPKhj, symObjAddr: 0x400, symBinAddr: 0x10003EEF4, symSize: 0x54 }
  - { offset: 0xB6FBF, size: 0x8, addend: 0x0, symName: __ZN18dmResourceProvider13ArchiveLoader6VerifyEv, symObjAddr: 0x0, symBinAddr: 0x10003EB30, symSize: 0x58 }
  - { offset: 0xB7036, size: 0x8, addend: 0x0, symName: __ZN18dmResourceProvider13ArchiveLoader6VerifyEv.cold.6, symObjAddr: 0x51C, symBinAddr: 0x10024FDFC, symSize: 0x28 }
  - { offset: 0xB704E, size: 0x8, addend: 0x0, symName: __ZN18dmResourceProvider13ArchiveLoader6VerifyEv.cold.5, symObjAddr: 0x4F4, symBinAddr: 0x10024FDD4, symSize: 0x28 }
  - { offset: 0xB7066, size: 0x8, addend: 0x0, symName: __ZN18dmResourceProvider13ArchiveLoader6VerifyEv.cold.4, symObjAddr: 0x4CC, symBinAddr: 0x10024FDAC, symSize: 0x28 }
  - { offset: 0xB707E, size: 0x8, addend: 0x0, symName: __ZN18dmResourceProvider13ArchiveLoader6VerifyEv.cold.3, symObjAddr: 0x4A4, symBinAddr: 0x10024FD84, symSize: 0x28 }
  - { offset: 0xB7096, size: 0x8, addend: 0x0, symName: __ZN18dmResourceProvider13ArchiveLoader6VerifyEv.cold.2, symObjAddr: 0x47C, symBinAddr: 0x10024FD5C, symSize: 0x28 }
  - { offset: 0xB70AE, size: 0x8, addend: 0x0, symName: __ZN18dmResourceProvider13ArchiveLoader6VerifyEv.cold.1, symObjAddr: 0x454, symBinAddr: 0x10024FD34, symSize: 0x28 }
  - { offset: 0xB713E, size: 0x8, addend: 0x0, symName: __ZN25dmResourceProviderArchive13CreateArchiveEPhjS0_jS0_jPPv, symObjAddr: 0x0, symBinAddr: 0x10003EF48, symSize: 0x11C }
  - { offset: 0xB7172, size: 0x8, addend: 0x0, symName: __ZN25dmResourceProviderArchive26ResourceProviderArchive272E, symObjAddr: 0xADF0, symBinAddr: 0x100369F80, symSize: 0x0 }
  - { offset: 0xB71F8, size: 0x8, addend: 0x0, symName: __ZN25dmResourceProviderArchive13CreateArchiveEPhjS0_jS0_jPPv, symObjAddr: 0x0, symBinAddr: 0x10003EF48, symSize: 0x11C }
  - { offset: 0xB73CE, size: 0x8, addend: 0x0, symName: __ZN25dmResourceProviderArchiveL13DeleteArchiveEPNS_15GameArchiveFileE, symObjAddr: 0x11C, symBinAddr: 0x10003F064, symSize: 0x60 }
  - { offset: 0xB74CA, size: 0x8, addend: 0x0, symName: __ZN25dmResourceProviderArchiveL14CreateEntryMapEPNS_15GameArchiveFileE, symObjAddr: 0x17C, symBinAddr: 0x10003F0C4, symSize: 0xDC }
  - { offset: 0xB75DC, size: 0x8, addend: 0x0, symName: __ZN25dmResourceProviderArchiveL18SetupArchiveLoaderEPN18dmResourceProvider13ArchiveLoaderE, symObjAddr: 0x280, symBinAddr: 0x10003F1C8, symSize: 0x4C }
  - { offset: 0xB7605, size: 0x8, addend: 0x0, symName: __ZN25dmResourceProviderArchiveL10MatchesUriEPKN5dmURI5PartsE, symObjAddr: 0x538, symBinAddr: 0x10003F480, symSize: 0x4C }
  - { offset: 0xB7726, size: 0x8, addend: 0x0, symName: __ZN25dmResourceProviderArchiveL5MountEPKN5dmURI5PartsEPN18dmResourceProvider7ArchiveEPPv, symObjAddr: 0x584, symBinAddr: 0x10003F4CC, symSize: 0x220 }
  - { offset: 0xB7A4B, size: 0x8, addend: 0x0, symName: __ZN25dmResourceProviderArchiveL7UnmountEPv, symObjAddr: 0x7A4, symBinAddr: 0x10003F6EC, symSize: 0x18 }
  - { offset: 0xB7A8E, size: 0x8, addend: 0x0, symName: __ZN25dmResourceProviderArchiveL11GetManifestEPvPPN10dmResource8ManifestE, symObjAddr: 0x7BC, symBinAddr: 0x10003F704, symSize: 0x1C }
  - { offset: 0xB7AD8, size: 0x8, addend: 0x0, symName: __ZN25dmResourceProviderArchiveL11GetFileSizeEPvyPKcPj, symObjAddr: 0x7D8, symBinAddr: 0x10003F720, symSize: 0x60 }
  - { offset: 0xB7B4B, size: 0x8, addend: 0x0, symName: __ZN25dmResourceProviderArchiveL11GetFileSizeEPvyPKcPj, symObjAddr: 0x7D8, symBinAddr: 0x10003F720, symSize: 0x60 }
  - { offset: 0xB7B70, size: 0x8, addend: 0x0, symName: __ZN25dmResourceProviderArchiveL11GetFileSizeEPvyPKcPj, symObjAddr: 0x7D8, symBinAddr: 0x10003F720, symSize: 0x60 }
  - { offset: 0xB7BDB, size: 0x8, addend: 0x0, symName: __ZN25dmResourceProviderArchiveL8ReadFileEPvyPKcPhj, symObjAddr: 0x838, symBinAddr: 0x10003F780, symSize: 0x94 }
  - { offset: 0xB7C61, size: 0x8, addend: 0x0, symName: __ZN25dmResourceProviderArchiveL8ReadFileEPvyPKcPhj, symObjAddr: 0x838, symBinAddr: 0x10003F780, symSize: 0x94 }
  - { offset: 0xB7C86, size: 0x8, addend: 0x0, symName: __ZN25dmResourceProviderArchiveL8ReadFileEPvyPKcPhj, symObjAddr: 0x838, symBinAddr: 0x10003F780, symSize: 0x94 }
  - { offset: 0xB7CFE, size: 0x8, addend: 0x0, symName: __ZN25dmResourceProviderArchiveL15ReadFilePartialEPvyPKcjjPhPj, symObjAddr: 0x8CC, symBinAddr: 0x10003F814, symSize: 0x84 }
  - { offset: 0xB7DA2, size: 0x8, addend: 0x0, symName: __ZN25dmResourceProviderArchiveL15ReadFilePartialEPvyPKcjjPhPj, symObjAddr: 0x8CC, symBinAddr: 0x10003F814, symSize: 0x84 }
  - { offset: 0xB7DC7, size: 0x8, addend: 0x0, symName: __ZN25dmResourceProviderArchiveL15ReadFilePartialEPvyPKcjjPhPj, symObjAddr: 0x8CC, symBinAddr: 0x10003F814, symSize: 0x84 }
  - { offset: 0xB88C8, size: 0x8, addend: 0x0, symName: __ZN11dmHashTableIyN25dmResourceProviderArchive9EntryInfoEE11SetCapacityEjj, symObjAddr: 0x2CC, symBinAddr: 0x10003F214, symSize: 0x150 }
  - { offset: 0xB8AA0, size: 0x8, addend: 0x0, symName: __ZN11dmHashTableIyN25dmResourceProviderArchive9EntryInfoEE3PutEyRKS1_, symObjAddr: 0x41C, symBinAddr: 0x10003F364, symSize: 0x11C }
  - { offset: 0xB8AB0, size: 0x8, addend: 0x0, symName: __ZN11dmHashTableIyN25dmResourceProviderArchive9EntryInfoEE3PutEyRKS1_, symObjAddr: 0x41C, symBinAddr: 0x10003F364, symSize: 0x11C }
  - { offset: 0xB8C00, size: 0x8, addend: 0x0, symName: __ZN25dmResourceProviderArchiveL10MatchesUriEPKN5dmURI5PartsE, symObjAddr: 0x538, symBinAddr: 0x10003F480, symSize: 0x4C }
  - { offset: 0xB8C0B, size: 0x8, addend: 0x0, symName: _ResourceProviderArchive, symObjAddr: 0x258, symBinAddr: 0x10003F1A0, symSize: 0x28 }
  - { offset: 0xB90E6, size: 0x8, addend: 0x0, symName: __ZN32dmResourceProviderArchiveMutable33ResourceProviderArchiveMutable589E, symObjAddr: 0xEB40, symBinAddr: 0x10036A000, symSize: 0x0 }
  - { offset: 0xB9174, size: 0x8, addend: 0x0, symName: __ZN32dmResourceProviderArchiveMutableL13DeleteArchiveEPNS_15GameArchiveFileE, symObjAddr: 0x100, symBinAddr: 0x10003F898, symSize: 0x60 }
  - { offset: 0xB9265, size: 0x8, addend: 0x0, symName: __ZN32dmResourceProviderArchiveMutableL14CreateEntryMapEPNS_15GameArchiveFileE, symObjAddr: 0x160, symBinAddr: 0x10003F8F8, symSize: 0x154 }
  - { offset: 0xB9458, size: 0x8, addend: 0x0, symName: __ZN32dmResourceProviderArchiveMutableL18SetupArchiveLoaderEPN18dmResourceProvider13ArchiveLoaderE, symObjAddr: 0x2DC, symBinAddr: 0x10003FA74, symSize: 0x60 }
  - { offset: 0xB9481, size: 0x8, addend: 0x0, symName: __ZN32dmResourceProviderArchiveMutableL10MatchesUriEPKN5dmURI5PartsE, symObjAddr: 0x5A8, symBinAddr: 0x10003FAD4, symSize: 0x4C }
  - { offset: 0xB9644, size: 0x8, addend: 0x0, symName: __ZN32dmResourceProviderArchiveMutableL5MountEPKN5dmURI5PartsEPN18dmResourceProvider7ArchiveEPPv, symObjAddr: 0x5F4, symBinAddr: 0x10003FB20, symSize: 0x46C }
  - { offset: 0xB9CAF, size: 0x8, addend: 0x0, symName: __ZN32dmResourceProviderArchiveMutableL7UnmountEPv, symObjAddr: 0xA60, symBinAddr: 0x10003FF8C, symSize: 0x5C }
  - { offset: 0xB9D91, size: 0x8, addend: 0x0, symName: __ZN32dmResourceProviderArchiveMutableL11GetManifestEPvPPN10dmResource8ManifestE, symObjAddr: 0xABC, symBinAddr: 0x10003FFE8, symSize: 0x1C }
  - { offset: 0xB9DDF, size: 0x8, addend: 0x0, symName: __ZN32dmResourceProviderArchiveMutableL11SetManifestEPvPN10dmResource8ManifestE, symObjAddr: 0xAD8, symBinAddr: 0x100040004, symSize: 0x12C }
  - { offset: 0xB9F5B, size: 0x8, addend: 0x0, symName: __ZN32dmResourceProviderArchiveMutableL11GetFileSizeEPvyPKcPj, symObjAddr: 0xC04, symBinAddr: 0x100040130, symSize: 0x70 }
  - { offset: 0xBA065, size: 0x8, addend: 0x0, symName: __ZN32dmResourceProviderArchiveMutableL8ReadFileEPvyPKcPhj, symObjAddr: 0xC74, symBinAddr: 0x1000401A0, symSize: 0xAC }
  - { offset: 0xBA1BE, size: 0x8, addend: 0x0, symName: __ZN32dmResourceProviderArchiveMutableL15ReadFilePartialEPvyPKcjjPhPj, symObjAddr: 0xD20, symBinAddr: 0x10004024C, symSize: 0x8 }
  - { offset: 0xBA3A1, size: 0x8, addend: 0x0, symName: __ZN32dmResourceProviderArchiveMutableL9WriteFileEPvyPKcPKhj, symObjAddr: 0xD28, symBinAddr: 0x100040254, symSize: 0x3F8 }
  - { offset: 0xBB7E4, size: 0x8, addend: 0x0, symName: __ZN32dmResourceProviderArchiveMutableL10MatchesUriEPKN5dmURI5PartsE, symObjAddr: 0x5A8, symBinAddr: 0x10003FAD4, symSize: 0x4C }
  - { offset: 0xBB7F4, size: 0x8, addend: 0x0, symName: _ResourceProviderArchiveMutable, symObjAddr: 0x2B4, symBinAddr: 0x10003FA4C, symSize: 0x28 }
  - { offset: 0xBBE5F, size: 0x8, addend: 0x0, symName: __ZN32dmResourceProviderArchivePrivate19GetArchiveIndexPathEPKN5dmURI5PartsEPcj, symObjAddr: 0x0, symBinAddr: 0x10004064C, symSize: 0x48 }
  - { offset: 0xBBEB1, size: 0x8, addend: 0x0, symName: __ZN32dmResourceProviderArchivePrivate19GetArchiveIndexPathEPKN5dmURI5PartsEPcj, symObjAddr: 0x0, symBinAddr: 0x10004064C, symSize: 0x48 }
  - { offset: 0xBBF18, size: 0x8, addend: 0x0, symName: __ZN32dmResourceProviderArchivePrivate18GetArchiveDataPathEPKN5dmURI5PartsEPcj, symObjAddr: 0x48, symBinAddr: 0x100040694, symSize: 0x48 }
  - { offset: 0xBBFFD, size: 0x8, addend: 0x0, symName: _ResourceProviderFile, symObjAddr: 0x0, symBinAddr: 0x1000406DC, symSize: 0x28 }
  - { offset: 0xBC01D, size: 0x8, addend: 0x0, symName: __ZN22dmResourceProviderFile23ResourceProviderFile140E, symObjAddr: 0x3350, symBinAddr: 0x10036A080, symSize: 0x0 }
  - { offset: 0xBC042, size: 0x8, addend: 0x0, symName: __ZN22dmResourceProviderFileL18SetupArchiveLoaderEPN18dmResourceProvider13ArchiveLoaderE, symObjAddr: 0x28, symBinAddr: 0x100040704, symSize: 0x44 }
  - { offset: 0xBC069, size: 0x8, addend: 0x0, symName: __ZN22dmResourceProviderFileL10MatchesUriEPKN5dmURI5PartsE, symObjAddr: 0x6C, symBinAddr: 0x100040748, symSize: 0x24 }
  - { offset: 0xBC0B8, size: 0x8, addend: 0x0, symName: __ZN22dmResourceProviderFileL5MountEPKN5dmURI5PartsEPN18dmResourceProvider7ArchiveEPPv, symObjAddr: 0x90, symBinAddr: 0x10004076C, symSize: 0x60 }
  - { offset: 0xBC140, size: 0x8, addend: 0x0, symName: __ZN22dmResourceProviderFileL7UnmountEPv, symObjAddr: 0xF0, symBinAddr: 0x1000407CC, symSize: 0x1C }
  - { offset: 0xBC1D2, size: 0x8, addend: 0x0, symName: __ZN22dmResourceProviderFileL11GetFileSizeEPvyPKcPj, symObjAddr: 0x10C, symBinAddr: 0x1000407E8, symSize: 0xB0 }
  - { offset: 0xBC318, size: 0x8, addend: 0x0, symName: __ZN22dmResourceProviderFileL8ReadFileEPvyPKcPhj, symObjAddr: 0x1BC, symBinAddr: 0x100040898, symSize: 0xC4 }
  - { offset: 0xBC489, size: 0x8, addend: 0x0, symName: __ZN22dmResourceProviderFileL15ReadFilePartialEPvyPKcjjPhPj, symObjAddr: 0x280, symBinAddr: 0x10004095C, symSize: 0xD8 }
  - { offset: 0xBC739, size: 0x8, addend: 0x0, symName: _ResourceProviderFile, symObjAddr: 0x0, symBinAddr: 0x1000406DC, symSize: 0x28 }
  - { offset: 0xBC7E5, size: 0x8, addend: 0x0, symName: _ResourceProviderHttp, symObjAddr: 0x0, symBinAddr: 0x100040A34, symSize: 0x30 }
  - { offset: 0xBC806, size: 0x8, addend: 0x0, symName: __ZN22dmResourceProviderHttp23ResourceProviderHttp360E, symObjAddr: 0x8090, symBinAddr: 0x10036A100, symSize: 0x0 }
  - { offset: 0xBC81F, size: 0x8, addend: 0x0, symName: __ZN22dmResourceProviderHttpL11g_HttpCacheE, symObjAddr: 0x8110, symBinAddr: 0x100358338, symSize: 0x0 }
  - { offset: 0xBC8E2, size: 0x8, addend: 0x0, symName: __ZN22dmResourceProviderHttpL22SetupArchiveLoaderHttpEPN18dmResourceProvider13ArchiveLoaderE, symObjAddr: 0x30, symBinAddr: 0x100040A64, symSize: 0x44 }
  - { offset: 0xBC90B, size: 0x8, addend: 0x0, symName: __ZN22dmResourceProviderHttpL27InitializeArchiveLoaderHttpEPN18dmResourceProvider19ArchiveLoaderParamsEPNS0_13ArchiveLoaderE, symObjAddr: 0x74, symBinAddr: 0x100040AA8, symSize: 0x14 }
  - { offset: 0xBC946, size: 0x8, addend: 0x0, symName: __ZN22dmResourceProviderHttpL25FinalizeArchiveLoaderHttpEPN18dmResourceProvider19ArchiveLoaderParamsEPNS0_13ArchiveLoaderE, symObjAddr: 0x88, symBinAddr: 0x100040ABC, symSize: 0x10 }
  - { offset: 0xBC97D, size: 0x8, addend: 0x0, symName: __ZN22dmResourceProviderHttpL10MatchesUriEPKN5dmURI5PartsE, symObjAddr: 0x98, symBinAddr: 0x100040ACC, symSize: 0x4C }
  - { offset: 0xBCA4B, size: 0x8, addend: 0x0, symName: __ZN22dmResourceProviderHttpL5MountEPKN5dmURI5PartsEPN18dmResourceProvider7ArchiveEPPv, symObjAddr: 0xE4, symBinAddr: 0x100040B18, symSize: 0x198 }
  - { offset: 0xBCCC7, size: 0x8, addend: 0x0, symName: __ZN22dmResourceProviderHttpL7UnmountEPv, symObjAddr: 0x27C, symBinAddr: 0x100040CB0, symSize: 0x4C }
  - { offset: 0xBCD9B, size: 0x8, addend: 0x0, symName: __ZN22dmResourceProviderHttpL11GetFileSizeEPvyPKcPj, symObjAddr: 0x2C8, symBinAddr: 0x100040CFC, symSize: 0x1C }
  - { offset: 0xBCE29, size: 0x8, addend: 0x0, symName: __ZN22dmResourceProviderHttpL17GetRequestFromUriEPNS_19HttpProviderContextEPKcS3_jjPjPh, symObjAddr: 0x5F8, symBinAddr: 0x10004102C, symSize: 0x2BC }
  - { offset: 0xBD12C, size: 0x8, addend: 0x0, symName: __ZN22dmResourceProviderHttpL8ReadFileEPvyPKcPhj, symObjAddr: 0x2E4, symBinAddr: 0x100040D18, symSize: 0x38 }
  - { offset: 0xBD1F0, size: 0x8, addend: 0x0, symName: __ZN22dmResourceProviderHttpL15ReadFilePartialEPvyPKcjjPhPj, symObjAddr: 0x31C, symBinAddr: 0x100040D50, symSize: 0x18 }
  - { offset: 0xBD2C5, size: 0x8, addend: 0x0, symName: __ZN22dmResourceProviderHttpL10HttpHeaderEPN12dmHttpClient8ResponseEPviPKcS5_, symObjAddr: 0x334, symBinAddr: 0x100040D68, symSize: 0x144 }
  - { offset: 0xBD48D, size: 0x8, addend: 0x0, symName: __ZN22dmResourceProviderHttpL11HttpContentEPN12dmHttpClient8ResponseEPviPKvjijjjPKc, symObjAddr: 0x478, symBinAddr: 0x100040EAC, symSize: 0xE8 }
  - { offset: 0xBD497, size: 0x8, addend: 0x0, symName: __ZN22dmResourceProviderHttpL11HttpContentEPN12dmHttpClient8ResponseEPviPKvjijjjPKc, symObjAddr: 0x478, symBinAddr: 0x100040EAC, symSize: 0xE8 }
  - { offset: 0xBD681, size: 0x8, addend: 0x0, symName: __ZN22dmResourceProviderHttpL16HttpWriteHeadersEPN12dmHttpClient8ResponseEPv, symObjAddr: 0x560, symBinAddr: 0x100040F94, symSize: 0x98 }
  - { offset: 0xBD68C, size: 0x8, addend: 0x0, symName: __ZN22dmResourceProviderHttpL16HttpWriteHeadersEPN12dmHttpClient8ResponseEPv, symObjAddr: 0x560, symBinAddr: 0x100040F94, symSize: 0x98 }
  - { offset: 0xBDE4A, size: 0x8, addend: 0x0, symName: _ResourceProviderHttp, symObjAddr: 0x0, symBinAddr: 0x100040A34, symSize: 0x30 }
  - { offset: 0xBE45D, size: 0x8, addend: 0x0, symName: _ResourceProviderZip, symObjAddr: 0x0, symBinAddr: 0x1000412E8, symSize: 0x28 }
  - { offset: 0xBE48E, size: 0x8, addend: 0x0, symName: __ZN21dmResourceProviderZip36LIVEUPDATE_ARCHIVE_MANIFEST_FILENAMEE, symObjAddr: 0x1048, symBinAddr: 0x1003436A0, symSize: 0x0 }
  - { offset: 0xBE4AA, size: 0x8, addend: 0x0, symName: __ZN21dmResourceProviderZip22ResourceProviderZip410E, symObjAddr: 0xD030, symBinAddr: 0x10036A180, symSize: 0x0 }
  - { offset: 0xBE4CF, size: 0x8, addend: 0x0, symName: __ZN21dmResourceProviderZipL18ANDROID_ASSET_PATHE, symObjAddr: 0x1050, symBinAddr: 0x100264700, symSize: 0x0 }
  - { offset: 0xBE579, size: 0x8, addend: 0x0, symName: __ZN21dmResourceProviderZipL25SetupArchiveLoaderHttpZipEPN18dmResourceProvider13ArchiveLoaderE, symObjAddr: 0x28, symBinAddr: 0x100041310, symSize: 0x4C }
  - { offset: 0xBE5A2, size: 0x8, addend: 0x0, symName: __ZN21dmResourceProviderZipL10MatchesUriEPKN5dmURI5PartsE, symObjAddr: 0x74, symBinAddr: 0x10004135C, symSize: 0x58 }
  - { offset: 0xBE7DB, size: 0x8, addend: 0x0, symName: __ZN21dmResourceProviderZipL5MountEPKN5dmURI5PartsEPN18dmResourceProvider7ArchiveEPPv, symObjAddr: 0xCC, symBinAddr: 0x1000413B4, symSize: 0x62C }
  - { offset: 0xBF039, size: 0x8, addend: 0x0, symName: __ZN21dmResourceProviderZipL24DeleteZipArchiveInternalEPv, symObjAddr: 0xA2C, symBinAddr: 0x100041D14, symSize: 0x6C }
  - { offset: 0xBF152, size: 0x8, addend: 0x0, symName: __ZN21dmResourceProviderZipL7UnmountEPv, symObjAddr: 0x6F8, symBinAddr: 0x1000419E0, symSize: 0x18 }
  - { offset: 0xBF196, size: 0x8, addend: 0x0, symName: __ZN21dmResourceProviderZipL11GetManifestEPvPPN10dmResource8ManifestE, symObjAddr: 0x710, symBinAddr: 0x1000419F8, symSize: 0x1C }
  - { offset: 0xBF1E3, size: 0x8, addend: 0x0, symName: __ZN21dmResourceProviderZipL11GetFileSizeEPvyPKcPj, symObjAddr: 0x72C, symBinAddr: 0x100041A14, symSize: 0x58 }
  - { offset: 0xBF25D, size: 0x8, addend: 0x0, symName: __ZN21dmResourceProviderZipL11GetFileSizeEPvyPKcPj, symObjAddr: 0x72C, symBinAddr: 0x100041A14, symSize: 0x58 }
  - { offset: 0xBF283, size: 0x8, addend: 0x0, symName: __ZN21dmResourceProviderZipL11GetFileSizeEPvyPKcPj, symObjAddr: 0x72C, symBinAddr: 0x100041A14, symSize: 0x58 }
  - { offset: 0xBF390, size: 0x8, addend: 0x0, symName: __ZN21dmResourceProviderZipL8ReadFileEPvyPKcPhj, symObjAddr: 0x784, symBinAddr: 0x100041A6C, symSize: 0x1D4 }
  - { offset: 0xBF442, size: 0x8, addend: 0x0, symName: __ZN21dmResourceProviderZipL8ReadFileEPvyPKcPhj, symObjAddr: 0x784, symBinAddr: 0x100041A6C, symSize: 0x1D4 }
  - { offset: 0xBF461, size: 0x8, addend: 0x0, symName: __ZN21dmResourceProviderZipL8ReadFileEPvyPKcPhj, symObjAddr: 0x784, symBinAddr: 0x100041A6C, symSize: 0x1D4 }
  - { offset: 0xBF67F, size: 0x8, addend: 0x0, symName: __ZN21dmResourceProviderZipL15ReadFilePartialEPvyPKcjjPhPj, symObjAddr: 0x958, symBinAddr: 0x100041C40, symSize: 0xD4 }
  - { offset: 0xBF73D, size: 0x8, addend: 0x0, symName: __ZN21dmResourceProviderZipL15ReadFilePartialEPvyPKcjjPhPj, symObjAddr: 0x958, symBinAddr: 0x100041C40, symSize: 0xD4 }
  - { offset: 0xBF763, size: 0x8, addend: 0x0, symName: __ZN21dmResourceProviderZipL15ReadFilePartialEPvyPKcjjPhPj, symObjAddr: 0x958, symBinAddr: 0x100041C40, symSize: 0xD4 }
  - { offset: 0xC029C, size: 0x8, addend: 0x0, symName: _ResourceProviderZip, symObjAddr: 0x0, symBinAddr: 0x1000412E8, symSize: 0x28 }
  - { offset: 0xC0C00, size: 0x8, addend: 0x0, symName: __ZN11dmLoadQueue14DoLoadResourceEP15ResourceFactoryPNS_7RequestEP7dmArrayIcEPNS_10LoadResultE, symObjAddr: 0x0, symBinAddr: 0x100041D80, symSize: 0x150 }
  - { offset: 0xC0D31, size: 0x8, addend: 0x0, symName: __ZN11dmLoadQueue14DoLoadResourceEP15ResourceFactoryPNS_7RequestEP7dmArrayIcEPNS_10LoadResultE, symObjAddr: 0x0, symBinAddr: 0x100041D80, symSize: 0x150 }
  - { offset: 0xC1110, size: 0x8, addend: 0x0, symName: __ZN11dmLoadQueue14DoLoadResourceEP15ResourceFactoryPNS_7RequestEP7dmArrayIcEPNS_10LoadResultE.cold.2, symObjAddr: 0x178, symBinAddr: 0x10024FE24, symSize: 0x28 }
  - { offset: 0xC1128, size: 0x8, addend: 0x0, symName: __ZN11dmLoadQueue14DoLoadResourceEP15ResourceFactoryPNS_7RequestEP7dmArrayIcEPNS_10LoadResultE.cold.3, symObjAddr: 0x1A0, symBinAddr: 0x10024FE4C, symSize: 0x28 }
  - { offset: 0xC1183, size: 0x8, addend: 0x0, symName: __ZN11dmLoadQueue11CreateQueueEP15ResourceFactory, symObjAddr: 0x0, symBinAddr: 0x100041ED0, symSize: 0x70 }
  - { offset: 0xC1321, size: 0x8, addend: 0x0, symName: __ZN11dmLoadQueue11CreateQueueEP15ResourceFactory, symObjAddr: 0x0, symBinAddr: 0x100041ED0, symSize: 0x70 }
  - { offset: 0xC1450, size: 0x8, addend: 0x0, symName: __ZN11dmLoadQueueL10LoadThreadEPv, symObjAddr: 0x70, symBinAddr: 0x100041F40, symSize: 0x194 }
  - { offset: 0xC16A7, size: 0x8, addend: 0x0, symName: __ZN11dmLoadQueue11DeleteQueueEPNS_5QueueE, symObjAddr: 0x204, symBinAddr: 0x1000420D4, symSize: 0x88 }
  - { offset: 0xC16E1, size: 0x8, addend: 0x0, symName: __ZN11dmLoadQueue11DeleteQueueEPNS_5QueueE, symObjAddr: 0x204, symBinAddr: 0x1000420D4, symSize: 0x88 }
  - { offset: 0xC18BC, size: 0x8, addend: 0x0, symName: __ZN11dmLoadQueue9BeginLoadEPNS_5QueueEPKcS3_PNS_11PreloadInfoE, symObjAddr: 0x28C, symBinAddr: 0x10004215C, symSize: 0xE0 }
  - { offset: 0xC19F4, size: 0x8, addend: 0x0, symName: __ZN11dmLoadQueue7EndLoadEPNS_5QueueEPNS_7RequestEPPvPjS6_PNS_10LoadResultE, symObjAddr: 0x36C, symBinAddr: 0x10004223C, symSize: 0xA4 }
  - { offset: 0xC19FF, size: 0x8, addend: 0x0, symName: __ZN11dmLoadQueue7EndLoadEPNS_5QueueEPNS_7RequestEPPvPjS6_PNS_10LoadResultE, symObjAddr: 0x36C, symBinAddr: 0x10004223C, symSize: 0xA4 }
  - { offset: 0xC1B4E, size: 0x8, addend: 0x0, symName: __ZN11dmLoadQueue8FreeLoadEPNS_5QueueEPNS_7RequestE, symObjAddr: 0x410, symBinAddr: 0x1000422E0, symSize: 0xD0 }
  - { offset: 0xC20B3, size: 0x8, addend: 0x0, symName: __ZN11dmLoadQueue9BeginLoadEPNS_5QueueEPKcS3_PNS_11PreloadInfoE.cold.4, symObjAddr: 0x580, symBinAddr: 0x10024FEEC, symSize: 0x28 }
  - { offset: 0xC20CB, size: 0x8, addend: 0x0, symName: __ZN11dmLoadQueue9BeginLoadEPNS_5QueueEPKcS3_PNS_11PreloadInfoE.cold.3, symObjAddr: 0x558, symBinAddr: 0x10024FEC4, symSize: 0x28 }
  - { offset: 0xC20E3, size: 0x8, addend: 0x0, symName: __ZN11dmLoadQueue9BeginLoadEPNS_5QueueEPKcS3_PNS_11PreloadInfoE.cold.2, symObjAddr: 0x530, symBinAddr: 0x10024FE9C, symSize: 0x28 }
  - { offset: 0xC20FB, size: 0x8, addend: 0x0, symName: __ZN11dmLoadQueue9BeginLoadEPNS_5QueueEPKcS3_PNS_11PreloadInfoE.cold.1, symObjAddr: 0x508, symBinAddr: 0x10024FE74, symSize: 0x28 }
  - { offset: 0xC217C, size: 0x8, addend: 0x0, symName: __ZN10dmResource7MapFileEPKcRPvRj, symObjAddr: 0x0, symBinAddr: 0x1000423B0, symSize: 0x124 }
  - { offset: 0xC21DC, size: 0x8, addend: 0x0, symName: __ZN10dmResource7MapFileEPKcRPvRj, symObjAddr: 0x0, symBinAddr: 0x1000423B0, symSize: 0x124 }
  - { offset: 0xC2330, size: 0x8, addend: 0x0, symName: __ZN10dmResource9UnmapFileERPvj, symObjAddr: 0x124, symBinAddr: 0x1000424D4, symSize: 0x2C }
  - { offset: 0xC238B, size: 0x8, addend: 0x0, symName: __ZN10dmResource20MountArchiveInternalEPKcS1_PPN17dmResourceArchive21ArchiveIndexContainerEPPv, symObjAddr: 0x194, symBinAddr: 0x100042500, symSize: 0x14C }
  - { offset: 0xC253A, size: 0x8, addend: 0x0, symName: __ZN10dmResource22UnmountArchiveInternalERPN17dmResourceArchive21ArchiveIndexContainerEPv, symObjAddr: 0x2E0, symBinAddr: 0x10004264C, symSize: 0x50 }
  - { offset: 0xC2C2F, size: 0x8, addend: 0x0, symName: _dmLiveUpdateDDF_HashDigest_FIELDS_DESCRIPTOR, symObjAddr: 0x4F0, symBinAddr: 0x1003436A8, symSize: 0x0 }
  - { offset: 0xC2C64, size: 0x8, addend: 0x0, symName: _dmLiveUpdateDDF_HashDigest_ONEOF_OFFSETS, symObjAddr: 0x4238, symBinAddr: 0x10036A200, symSize: 0x0 }
  - { offset: 0xC2C7A, size: 0x8, addend: 0x0, symName: _dmLiveUpdateDDF_HashDigest_DESCRIPTOR, symObjAddr: 0x4240, symBinAddr: 0x10036A208, symSize: 0x0 }
  - { offset: 0xC2C90, size: 0x8, addend: 0x0, symName: _g_Register_dmLiveUpdateDDF_HashDigest, symObjAddr: 0x4288, symBinAddr: 0x10036A250, symSize: 0x0 }
  - { offset: 0xC2CA7, size: 0x8, addend: 0x0, symName: _dmLiveUpdateDDF_ManifestHeader_resource_hash_algorithm_DEFAULT_VALUE, symObjAddr: 0x528, symBinAddr: 0x1003436D8, symSize: 0x0 }
  - { offset: 0xC2CCA, size: 0x8, addend: 0x0, symName: _dmLiveUpdateDDF_ManifestHeader_signature_hash_algorithm_DEFAULT_VALUE, symObjAddr: 0x530, symBinAddr: 0x1003436E0, symSize: 0x0 }
  - { offset: 0xC2CE1, size: 0x8, addend: 0x0, symName: _dmLiveUpdateDDF_ManifestHeader_signature_sign_algorithm_DEFAULT_VALUE, symObjAddr: 0x538, symBinAddr: 0x1003436E8, symSize: 0x0 }
  - { offset: 0xC2CF7, size: 0x8, addend: 0x0, symName: _dmLiveUpdateDDF_ManifestHeader_FIELDS_DESCRIPTOR, symObjAddr: 0x540, symBinAddr: 0x1003436F0, symSize: 0x0 }
  - { offset: 0xC2D19, size: 0x8, addend: 0x0, symName: _dmLiveUpdateDDF_ManifestHeader_ONEOF_OFFSETS, symObjAddr: 0x4290, symBinAddr: 0x10036A258, symSize: 0x0 }
  - { offset: 0xC2D2F, size: 0x8, addend: 0x0, symName: _dmLiveUpdateDDF_ManifestHeader_DESCRIPTOR, symObjAddr: 0x4298, symBinAddr: 0x10036A260, symSize: 0x0 }
  - { offset: 0xC2D45, size: 0x8, addend: 0x0, symName: _g_Register_dmLiveUpdateDDF_ManifestHeader, symObjAddr: 0x42E0, symBinAddr: 0x10036A2A8, symSize: 0x0 }
  - { offset: 0xC2D5C, size: 0x8, addend: 0x0, symName: _dmLiveUpdateDDF_ResourceEntry_url_DEFAULT_VALUE, symObjAddr: 0x42E4, symBinAddr: 0x10036A2AC, symSize: 0x0 }
  - { offset: 0xC2D7F, size: 0x8, addend: 0x0, symName: _dmLiveUpdateDDF_ResourceEntry_flags_DEFAULT_VALUE, symObjAddr: 0x42E8, symBinAddr: 0x10036A2B0, symSize: 0x0 }
  - { offset: 0xC2D95, size: 0x8, addend: 0x0, symName: _dmLiveUpdateDDF_ResourceEntry_FIELDS_DESCRIPTOR, symObjAddr: 0x608, symBinAddr: 0x1003437B0, symSize: 0x0 }
  - { offset: 0xC2DB7, size: 0x8, addend: 0x0, symName: _dmLiveUpdateDDF_ResourceEntry_ONEOF_OFFSETS, symObjAddr: 0x42F0, symBinAddr: 0x10036A2B8, symSize: 0x0 }
  - { offset: 0xC2DCD, size: 0x8, addend: 0x0, symName: _dmLiveUpdateDDF_ResourceEntry_DESCRIPTOR, symObjAddr: 0x42F8, symBinAddr: 0x10036A2C0, symSize: 0x0 }
  - { offset: 0xC2DE3, size: 0x8, addend: 0x0, symName: _g_Register_dmLiveUpdateDDF_ResourceEntry, symObjAddr: 0x4340, symBinAddr: 0x10036A308, symSize: 0x0 }
  - { offset: 0xC2DF9, size: 0x8, addend: 0x0, symName: _dmLiveUpdateDDF_ManifestData_FIELDS_DESCRIPTOR, symObjAddr: 0x760, symBinAddr: 0x100343900, symSize: 0x0 }
  - { offset: 0xC2E1B, size: 0x8, addend: 0x0, symName: _dmLiveUpdateDDF_ManifestData_ONEOF_OFFSETS, symObjAddr: 0x4348, symBinAddr: 0x10036A310, symSize: 0x0 }
  - { offset: 0xC2E31, size: 0x8, addend: 0x0, symName: _dmLiveUpdateDDF_ManifestData_DESCRIPTOR, symObjAddr: 0x4350, symBinAddr: 0x10036A318, symSize: 0x0 }
  - { offset: 0xC2E41, size: 0x8, addend: 0x0, symName: __ZN15dmLiveUpdateDDF12ManifestData15m_DDFDescriptorE, symObjAddr: 0x7F0, symBinAddr: 0x100343990, symSize: 0x0 }
  - { offset: 0xC2E5B, size: 0x8, addend: 0x0, symName: _g_Register_dmLiveUpdateDDF_ManifestData, symObjAddr: 0x4398, symBinAddr: 0x10036A360, symSize: 0x0 }
  - { offset: 0xC2E72, size: 0x8, addend: 0x0, symName: _dmLiveUpdateDDF_ManifestFile_version_DEFAULT_VALUE, symObjAddr: 0x439C, symBinAddr: 0x10036A364, symSize: 0x0 }
  - { offset: 0xC2E88, size: 0x8, addend: 0x0, symName: _dmLiveUpdateDDF_ManifestFile_FIELDS_DESCRIPTOR, symObjAddr: 0x7F8, symBinAddr: 0x100343998, symSize: 0x0 }
  - { offset: 0xC2E9E, size: 0x8, addend: 0x0, symName: _dmLiveUpdateDDF_ManifestFile_ONEOF_OFFSETS, symObjAddr: 0x43A8, symBinAddr: 0x10036A370, symSize: 0x0 }
  - { offset: 0xC2EB4, size: 0x8, addend: 0x0, symName: _dmLiveUpdateDDF_ManifestFile_DESCRIPTOR, symObjAddr: 0x43B0, symBinAddr: 0x10036A378, symSize: 0x0 }
  - { offset: 0xC2EC4, size: 0x8, addend: 0x0, symName: __ZN15dmLiveUpdateDDF12ManifestFile15m_DDFDescriptorE, symObjAddr: 0x8B8, symBinAddr: 0x100343A58, symSize: 0x0 }
  - { offset: 0xC2EDE, size: 0x8, addend: 0x0, symName: _g_Register_dmLiveUpdateDDF_ManifestFile, symObjAddr: 0x43F8, symBinAddr: 0x10036A3C0, symSize: 0x0 }
  - { offset: 0xC2F2E, size: 0x8, addend: 0x0, symName: __GLOBAL__sub_I_liveupdate_ddf.cpp, symObjAddr: 0x4, symBinAddr: 0x10004269C, symSize: 0x208 }
  - { offset: 0xC3205, size: 0x8, addend: 0x0, symName: _dmResourceDDF_Reload_resources_DEFAULT_VALUE, symObjAddr: 0x1D10, symBinAddr: 0x10036A3C8, symSize: 0x0 }
  - { offset: 0xC3235, size: 0x8, addend: 0x0, symName: _dmResourceDDF_Reload_FIELDS_DESCRIPTOR, symObjAddr: 0x80, symBinAddr: 0x100343A60, symSize: 0x0 }
  - { offset: 0xC3278, size: 0x8, addend: 0x0, symName: _dmResourceDDF_Reload_ONEOF_OFFSETS, symObjAddr: 0x1D18, symBinAddr: 0x10036A3D0, symSize: 0x0 }
  - { offset: 0xC328E, size: 0x8, addend: 0x0, symName: _dmResourceDDF_Reload_DESCRIPTOR, symObjAddr: 0x1D20, symBinAddr: 0x10036A3D8, symSize: 0x0 }
  - { offset: 0xC329E, size: 0x8, addend: 0x0, symName: __ZN13dmResourceDDF6Reload15m_DDFDescriptorE, symObjAddr: 0xB0, symBinAddr: 0x100343A90, symSize: 0x0 }
  - { offset: 0xC32B8, size: 0x8, addend: 0x0, symName: _g_Register_dmResourceDDF_Reload, symObjAddr: 0x1D68, symBinAddr: 0x10036A420, symSize: 0x0 }
  - { offset: 0xC32D0, size: 0x8, addend: 0x0, symName: __GLOBAL__sub_I_resource_ddf.cpp, symObjAddr: 0x4, symBinAddr: 0x1000428A4, symSize: 0x64 }
  - { offset: 0xC32E7, size: 0x8, addend: 0x0, symName: __GLOBAL__sub_I_resource_ddf.cpp, symObjAddr: 0x4, symBinAddr: 0x1000428A4, symSize: 0x64 }
  - { offset: 0xC352C, size: 0x8, addend: 0x0, symName: __ZN12dmGameSystemL19PROP_LINEAR_DAMPINGE, symObjAddr: 0x24B60, symBinAddr: 0x100358340, symSize: 0x0 }
  - { offset: 0xC3545, size: 0x8, addend: 0x0, symName: __ZN12dmGameSystemL20PROP_ANGULAR_DAMPINGE, symObjAddr: 0x24B68, symBinAddr: 0x100358348, symSize: 0x0 }
  - { offset: 0xC355E, size: 0x8, addend: 0x0, symName: __ZN12dmGameSystemL20PROP_LINEAR_VELOCITYE, symObjAddr: 0x24B70, symBinAddr: 0x100358350, symSize: 0x0 }
  - { offset: 0xC3577, size: 0x8, addend: 0x0, symName: __ZN12dmGameSystemL21PROP_ANGULAR_VELOCITYE, symObjAddr: 0x24B78, symBinAddr: 0x100358358, symSize: 0x0 }
  - { offset: 0xC3590, size: 0x8, addend: 0x0, symName: __ZN12dmGameSystemL9PROP_MASSE, symObjAddr: 0x24B80, symBinAddr: 0x100358360, symSize: 0x0 }
  - { offset: 0xC35A9, size: 0x8, addend: 0x0, symName: __ZN12dmGameSystemL11PROP_BULLETE, symObjAddr: 0x24B88, symBinAddr: 0x100358368, symSize: 0x0 }
  - { offset: 0xC35C2, size: 0x8, addend: 0x0, symName: __ZN12dmGameSystemL16g_PhysicsAdapterE, symObjAddr: 0x24B98, symBinAddr: 0x100358378, symSize: 0x0 }
  - { offset: 0xC3996, size: 0x8, addend: 0x0, symName: __ZN12dmGameSystemL29g_NumPhysicsTransformsUpdatedE, symObjAddr: 0x24BA0, symBinAddr: 0x100358380, symSize: 0x0 }
  - { offset: 0xC39AF, size: 0x8, addend: 0x0, symName: __ZN12dmGameSystemL26g_CollisionOverflowWarningE, symObjAddr: 0x24BB0, symBinAddr: 0x100358390, symSize: 0x0 }
  - { offset: 0xC39CF, size: 0x8, addend: 0x0, symName: __ZN12dmGameSystemL24g_ContactOverflowWarningE, symObjAddr: 0x24BB1, symBinAddr: 0x100358391, symSize: 0x0 }
  - { offset: 0xC3D63, size: 0x8, addend: 0x0, symName: __ZN12dmGameSystem32CompCollisionObjectBox2DNewWorldERKN12dmGameObject23ComponentNewWorldParamsE, symObjAddr: 0x30, symBinAddr: 0x100042908, symSize: 0x260 }
  - { offset: 0xC3F12, size: 0x8, addend: 0x0, symName: __ZN12dmGameSystemL17GetWorldTransformEPvRN11dmTransform9TransformE, symObjAddr: 0x290, symBinAddr: 0x100042B68, symSize: 0x5C }
  - { offset: 0xC4000, size: 0x8, addend: 0x0, symName: __ZN12dmGameSystemL17SetWorldTransformEPvRKN10Vectormath3Aos6Point3ERKNS2_4QuatE, symObjAddr: 0x2EC, symBinAddr: 0x100042BC4, symSize: 0x88 }
  - { offset: 0xC4195, size: 0x8, addend: 0x0, symName: __ZN12dmGameSystem35CompCollisionObjectBox2DDeleteWorldERKN12dmGameObject26ComponentDeleteWorldParamsE, symObjAddr: 0x374, symBinAddr: 0x100042C4C, symSize: 0x80 }
  - { offset: 0xC431A, size: 0x8, addend: 0x0, symName: __ZN12dmGameSystem30CompCollisionObjectBox2DCreateERKN12dmGameObject21ComponentCreateParamsE, symObjAddr: 0x3F4, symBinAddr: 0x100042CCC, symSize: 0xF0 }
  - { offset: 0xC43C2, size: 0x8, addend: 0x0, symName: __ZN12dmGameSystemL21CreateCollisionObjectEPNS_19PhysicsContextBox2DEPNS_19CollisionWorldBox2DEPN12dmGameObject8InstanceEPNS_23CollisionComponentBox2DEb, symObjAddr: 0x4E4, symBinAddr: 0x100042DBC, symSize: 0x1BC }
  - { offset: 0xC4653, size: 0x8, addend: 0x0, symName: __ZN12dmGameSystemL13SetupTileGridEPNS_19CollisionWorldBox2DEPNS_23CollisionComponentBox2DE, symObjAddr: 0x1438, symBinAddr: 0x100043D10, symSize: 0x208 }
  - { offset: 0xC4938, size: 0x8, addend: 0x0, symName: __ZN12dmGameSystemL16DispatchCallbackEPN9dmMessage7MessageEPv, symObjAddr: 0x1640, symBinAddr: 0x100043F18, symSize: 0x130 }
  - { offset: 0xC4968, size: 0x8, addend: 0x0, symName: __ZN12dmGameSystem31CompCollisionObjectBox2DDestroyERKN12dmGameObject22ComponentDestroyParamsE, symObjAddr: 0x6A0, symBinAddr: 0x100042F78, symSize: 0x114 }
  - { offset: 0xC4B08, size: 0x8, addend: 0x0, symName: __ZN12dmGameSystemL11DeleteJointEPNS_19CollisionWorldBox2DEPNS_10JointEntryE, symObjAddr: 0x7B4, symBinAddr: 0x10004308C, symSize: 0x7C }
  - { offset: 0xC4B12, size: 0x8, addend: 0x0, symName: __ZN12dmGameSystemL11DeleteJointEPNS_19CollisionWorldBox2DEPNS_10JointEntryE, symObjAddr: 0x7B4, symBinAddr: 0x10004308C, symSize: 0x7C }
  - { offset: 0xC4BDE, size: 0x8, addend: 0x0, symName: __ZN12dmGameSystem29CompCollisionObjectBox2DFinalERKN12dmGameObject20ComponentFinalParamsE, symObjAddr: 0x830, symBinAddr: 0x100043108, symSize: 0x20 }
  - { offset: 0xC4BE9, size: 0x8, addend: 0x0, symName: __ZN12dmGameSystem29CompCollisionObjectBox2DFinalERKN12dmGameObject20ComponentFinalParamsE, symObjAddr: 0x830, symBinAddr: 0x100043108, symSize: 0x20 }
  - { offset: 0xC4C28, size: 0x8, addend: 0x0, symName: __ZN12dmGameSystem35CompCollisionObjectBox2DAddToUpdateERKN12dmGameObject26ComponentAddToUpdateParamsE, symObjAddr: 0x850, symBinAddr: 0x100043128, symSize: 0xBC }
  - { offset: 0xC4D38, size: 0x8, addend: 0x0, symName: __ZN12dmGameSystem30CompCollisionObjectBox2DUpdateERKN12dmGameObject22ComponentsUpdateParamsERNS0_22ComponentsUpdateResultE, symObjAddr: 0x90C, symBinAddr: 0x1000431E4, symSize: 0x24 }
  - { offset: 0xC4D5D, size: 0x8, addend: 0x0, symName: __ZN12dmGameSystem30CompCollisionObjectBox2DUpdateERKN12dmGameObject22ComponentsUpdateParamsERNS0_22ComponentsUpdateResultE, symObjAddr: 0x90C, symBinAddr: 0x1000431E4, symSize: 0x24 }
  - { offset: 0xC4DBA, size: 0x8, addend: 0x0, symName: __ZN12dmGameSystemL33CompCollisionObjectUpdateInternalERKN12dmGameObject22ComponentsUpdateParamsERNS0_22ComponentsUpdateResultE, symObjAddr: 0x930, symBinAddr: 0x100043208, symSize: 0x3D0 }
  - { offset: 0xC52E8, size: 0x8, addend: 0x0, symName: __ZN12dmGameSystem35CompCollisionObjectBox2DFixedUpdateERKN12dmGameObject22ComponentsUpdateParamsERNS0_22ComponentsUpdateResultE, symObjAddr: 0xD00, symBinAddr: 0x1000435D8, symSize: 0x28 }
  - { offset: 0xC53BA, size: 0x8, addend: 0x0, symName: __ZN12dmGameSystem35CompCollisionObjectBox2DFixedUpdateERKN12dmGameObject22ComponentsUpdateParamsERNS0_22ComponentsUpdateResultE, symObjAddr: 0xD00, symBinAddr: 0x1000435D8, symSize: 0x28 }
  - { offset: 0xC5416, size: 0x8, addend: 0x0, symName: __ZN12dmGameSystem34CompCollisionObjectBox2DPostUpdateERKN12dmGameObject26ComponentsPostUpdateParamsE, symObjAddr: 0xD28, symBinAddr: 0x100043600, symSize: 0x7C }
  - { offset: 0xC54D3, size: 0x8, addend: 0x0, symName: __ZN12dmGameSystem33CompCollisionObjectBox2DOnMessageERKN12dmGameObject24ComponentOnMessageParamsE, symObjAddr: 0xDA4, symBinAddr: 0x10004367C, symSize: 0x368 }
  - { offset: 0xC5813, size: 0x8, addend: 0x0, symName: __ZN12dmGameSystem32CompCollisionObjectBox2DOnReloadERKN12dmGameObject23ComponentOnReloadParamsE, symObjAddr: 0x110C, symBinAddr: 0x1000439E4, symSize: 0x6C }
  - { offset: 0xC581D, size: 0x8, addend: 0x0, symName: __ZN12dmGameSystem32CompCollisionObjectBox2DOnReloadERKN12dmGameObject23ComponentOnReloadParamsE, symObjAddr: 0x110C, symBinAddr: 0x1000439E4, symSize: 0x6C }
  - { offset: 0xC589A, size: 0x8, addend: 0x0, symName: __ZN12dmGameSystem35CompCollisionObjectBox2DGetPropertyERKN12dmGameObject26ComponentGetPropertyParamsERNS0_12PropertyDescE, symObjAddr: 0x1178, symBinAddr: 0x100043A50, symSize: 0x154 }
  - { offset: 0xC5955, size: 0x8, addend: 0x0, symName: __ZN12dmGameSystem35CompCollisionObjectBox2DSetPropertyERKN12dmGameObject26ComponentSetPropertyParamsE, symObjAddr: 0x12CC, symBinAddr: 0x100043BA4, symSize: 0x15C }
  - { offset: 0xC5A86, size: 0x8, addend: 0x0, symName: __ZN12dmGameSystem32CompCollisionObjectGetBox2DWorldEPv, symObjAddr: 0x1428, symBinAddr: 0x100043D00, symSize: 0x8 }
  - { offset: 0xC5AD3, size: 0x8, addend: 0x0, symName: __ZN12dmGameSystem31CompCollisionObjectGetBox2DBodyEPv, symObjAddr: 0x1430, symBinAddr: 0x100043D08, symSize: 0x8 }
  - { offset: 0xC5B1F, size: 0x8, addend: 0x0, symName: __ZN12dmGameSystemL16DispatchCallbackEPN9dmMessage7MessageEPv, symObjAddr: 0x1640, symBinAddr: 0x100043F18, symSize: 0x130 }
  - { offset: 0xC5D24, size: 0x8, addend: 0x0, symName: __ZN12dmGameSystemL14IsEnabledBox2DEPNS_14CollisionWorldEPNS_18CollisionComponentE, symObjAddr: 0x1770, symBinAddr: 0x100044048, symSize: 0x8 }
  - { offset: 0xC5D79, size: 0x8, addend: 0x0, symName: __ZN12dmGameSystemL20WakeupCollisionBox2DEPNS_14CollisionWorldEPNS_18CollisionComponentE, symObjAddr: 0x1778, symBinAddr: 0x100044050, symSize: 0x8 }
  - { offset: 0xC5DCA, size: 0x8, addend: 0x0, symName: __ZN12dmGameSystemL12RayCastBox2DEPNS_14CollisionWorldERKN9dmPhysics14RayCastRequestER7dmArrayINS2_15RayCastResponseEE, symObjAddr: 0x1780, symBinAddr: 0x100044058, symSize: 0x8 }
  - { offset: 0xC5E3E, size: 0x8, addend: 0x0, symName: __ZN12dmGameSystemL15SetGravityBox2DEPNS_14CollisionWorldERKN10Vectormath3Aos7Vector3E, symObjAddr: 0x1788, symBinAddr: 0x100044060, symSize: 0x8 }
  - { offset: 0xC5E9C, size: 0x8, addend: 0x0, symName: __ZN12dmGameSystemL15GetGravityBox2DEPNS_14CollisionWorldE, symObjAddr: 0x1790, symBinAddr: 0x100044068, symSize: 0x8 }
  - { offset: 0xC5EF0, size: 0x8, addend: 0x0, symName: __ZN12dmGameSystemL22SetCollisionFlipHBox2DEPNS_14CollisionWorldEPNS_18CollisionComponentEb, symObjAddr: 0x1798, symBinAddr: 0x100044070, symSize: 0x4C }
  - { offset: 0xC5F76, size: 0x8, addend: 0x0, symName: __ZN12dmGameSystemL22SetCollisionFlipVBox2DEPNS_14CollisionWorldEPNS_18CollisionComponentEb, symObjAddr: 0x17E4, symBinAddr: 0x1000440BC, symSize: 0x5C }
  - { offset: 0xC5FFD, size: 0x8, addend: 0x0, symName: __ZN12dmGameSystemL22GetCollisionGroupBox2DEPNS_14CollisionWorldEPNS_18CollisionComponentE, symObjAddr: 0x1840, symBinAddr: 0x100044118, symSize: 0x30 }
  - { offset: 0xC60A1, size: 0x8, addend: 0x0, symName: __ZN12dmGameSystemL22SetCollisionGroupBox2DEPNS_14CollisionWorldEPNS_18CollisionComponentEy, symObjAddr: 0x1870, symBinAddr: 0x100044148, symSize: 0x54 }
  - { offset: 0xC6156, size: 0x8, addend: 0x0, symName: __ZN12dmGameSystemL24GetCollisionMaskBitBox2DEPNS_14CollisionWorldEPNS_18CollisionComponentEyPb, symObjAddr: 0x18C4, symBinAddr: 0x10004419C, symSize: 0x5C }
  - { offset: 0xC621B, size: 0x8, addend: 0x0, symName: __ZN12dmGameSystemL24SetCollisionMaskBitBox2DEPNS_14CollisionWorldEPNS_18CollisionComponentEyb, symObjAddr: 0x1920, symBinAddr: 0x1000441F8, symSize: 0x5C }
  - { offset: 0xC62E5, size: 0x8, addend: 0x0, symName: __ZN12dmGameSystemL15UpdateMassBox2DEPNS_14CollisionWorldEPNS_18CollisionComponentEf, symObjAddr: 0x197C, symBinAddr: 0x100044254, symSize: 0x3C }
  - { offset: 0xC637B, size: 0x8, addend: 0x0, symName: __ZN12dmGameSystemL13GetShapeBox2DEPNS_14CollisionWorldEPNS_18CollisionComponentEjPNS_9ShapeInfoE, symObjAddr: 0x19B8, symBinAddr: 0x100044290, symSize: 0xDC }
  - { offset: 0xC64B2, size: 0x8, addend: 0x0, symName: __ZN12dmGameSystemL13SetShapeBox2DEPNS_14CollisionWorldEPNS_18CollisionComponentEjPNS_9ShapeInfoE, symObjAddr: 0x1A94, symBinAddr: 0x10004436C, symSize: 0xD0 }
  - { offset: 0xC64BD, size: 0x8, addend: 0x0, symName: __ZN12dmGameSystemL13SetShapeBox2DEPNS_14CollisionWorldEPNS_18CollisionComponentEjPNS_9ShapeInfoE, symObjAddr: 0x1A94, symBinAddr: 0x10004436C, symSize: 0xD0 }
  - { offset: 0xC65D6, size: 0x8, addend: 0x0, symName: __ZN12dmGameSystemL16CreateJointBox2DEPNS_14CollisionWorldEPNS_18CollisionComponentEyRKN10Vectormath3Aos6Point3ES3_S8_N9dmPhysics9JointTypeERKNS9_18ConnectJointParamsE, symObjAddr: 0x1B64, symBinAddr: 0x10004443C, symSize: 0xF0 }
  - { offset: 0xC6623, size: 0x8, addend: 0x0, symName: __ZN12dmGameSystemL16CreateJointBox2DEPNS_14CollisionWorldEPNS_18CollisionComponentEyRKN10Vectormath3Aos6Point3ES3_S8_N9dmPhysics9JointTypeERKNS9_18ConnectJointParamsE, symObjAddr: 0x1B64, symBinAddr: 0x10004443C, symSize: 0xF0 }
  - { offset: 0xC67ED, size: 0x8, addend: 0x0, symName: __ZN12dmGameSystemL17DestroyJointBox2DEPNS_14CollisionWorldEPNS_18CollisionComponentEy, symObjAddr: 0x1C54, symBinAddr: 0x10004452C, symSize: 0x94 }
  - { offset: 0xC68D7, size: 0x8, addend: 0x0, symName: __ZN12dmGameSystemL19GetJointParamsBox2DEPNS_14CollisionWorldEPNS_18CollisionComponentEyRN9dmPhysics9JointTypeERNS4_18ConnectJointParamsE, symObjAddr: 0x1CE8, symBinAddr: 0x1000445C0, symSize: 0x74 }
  - { offset: 0xC6989, size: 0x8, addend: 0x0, symName: __ZN12dmGameSystemL19GetJointParamsBox2DEPNS_14CollisionWorldEPNS_18CollisionComponentEyRN9dmPhysics9JointTypeERNS4_18ConnectJointParamsE, symObjAddr: 0x1CE8, symBinAddr: 0x1000445C0, symSize: 0x74 }
  - { offset: 0xC69C7, size: 0x8, addend: 0x0, symName: __ZN12dmGameSystemL17GetJointTypeBox2DEPNS_14CollisionWorldEPNS_18CollisionComponentEyRN9dmPhysics9JointTypeE, symObjAddr: 0x1D5C, symBinAddr: 0x100044634, symSize: 0x44 }
  - { offset: 0xC6A49, size: 0x8, addend: 0x0, symName: __ZN12dmGameSystemL17GetJointTypeBox2DEPNS_14CollisionWorldEPNS_18CollisionComponentEyRN9dmPhysics9JointTypeE, symObjAddr: 0x1D5C, symBinAddr: 0x100044634, symSize: 0x44 }
  - { offset: 0xC6A74, size: 0x8, addend: 0x0, symName: __ZN12dmGameSystemL19SetJointParamsBox2DEPNS_14CollisionWorldEPNS_18CollisionComponentEyRKN9dmPhysics18ConnectJointParamsE, symObjAddr: 0x1DA0, symBinAddr: 0x100044678, symSize: 0x6C }
  - { offset: 0xC6B16, size: 0x8, addend: 0x0, symName: __ZN12dmGameSystemL19SetJointParamsBox2DEPNS_14CollisionWorldEPNS_18CollisionComponentEyRKN9dmPhysics18ConnectJointParamsE, symObjAddr: 0x1DA0, symBinAddr: 0x100044678, symSize: 0x6C }
  - { offset: 0xC6B55, size: 0x8, addend: 0x0, symName: __ZN12dmGameSystemL26GetJointReactionForceBox2DEPNS_14CollisionWorldEPNS_18CollisionComponentEyRN10Vectormath3Aos7Vector3E, symObjAddr: 0x1E0C, symBinAddr: 0x1000446E4, symSize: 0x7C }
  - { offset: 0xC6BF7, size: 0x8, addend: 0x0, symName: __ZN12dmGameSystemL26GetJointReactionForceBox2DEPNS_14CollisionWorldEPNS_18CollisionComponentEyRN10Vectormath3Aos7Vector3E, symObjAddr: 0x1E0C, symBinAddr: 0x1000446E4, symSize: 0x7C }
  - { offset: 0xC6C36, size: 0x8, addend: 0x0, symName: __ZN12dmGameSystemL27GetJointReactionTorqueBox2DEPNS_14CollisionWorldEPNS_18CollisionComponentEyRf, symObjAddr: 0x1E88, symBinAddr: 0x100044760, symSize: 0x7C }
  - { offset: 0xC6CD8, size: 0x8, addend: 0x0, symName: __ZN12dmGameSystemL27GetJointReactionTorqueBox2DEPNS_14CollisionWorldEPNS_18CollisionComponentEyRf, symObjAddr: 0x1E88, symBinAddr: 0x100044760, symSize: 0x7C }
  - { offset: 0xC6D16, size: 0x8, addend: 0x0, symName: __ZN12dmGameSystemL25GetPhysicsEngineTypeBox2DEPNS_14CollisionWorldE, symObjAddr: 0x1F04, symBinAddr: 0x1000447DC, symSize: 0x8 }
  - { offset: 0xC6D61, size: 0x8, addend: 0x0, symName: __ZL17rmtp_Components_p, symObjAddr: 0x24B90, symBinAddr: 0x100358370, symSize: 0x0 }
  - { offset: 0xCA339, size: 0x8, addend: 0x0, symName: __ZN12dmGameSystem31CompCollisionObjectBox2DDestroyERKN12dmGameObject22ComponentDestroyParamsE.cold.1, symObjAddr: 0x1F68, symBinAddr: 0x10024FF14, symSize: 0x28 }
  - { offset: 0xCA391, size: 0x8, addend: 0x0, symName: __ZN12dmGameSystemL11DeleteJointEPNS_19CollisionWorldBox2DEPNS_10JointEntryE.cold.2, symObjAddr: 0x1FE0, symBinAddr: 0x10024FF64, symSize: 0x28 }
  - { offset: 0xCA3A9, size: 0x8, addend: 0x0, symName: __ZN12dmGameSystemL11DeleteJointEPNS_19CollisionWorldBox2DEPNS_10JointEntryE.cold.1, symObjAddr: 0x1FB8, symBinAddr: 0x10024FF3C, symSize: 0x28 }
  - { offset: 0xCA412, size: 0x8, addend: 0x0, symName: __ZN12dmGameSystem35CompCollisionObjectBox2DAddToUpdateERKN12dmGameObject26ComponentAddToUpdateParamsE.cold.1, symObjAddr: 0x2030, symBinAddr: 0x10024FF8C, symSize: 0x28 }
  - { offset: 0xCA677, size: 0x8, addend: 0x0, symName: __ZN12dmGameSystemL33CompCollisionObjectUpdateInternalERKN12dmGameObject22ComponentsUpdateParamsERNS0_22ComponentsUpdateResultE.cold.2, symObjAddr: 0x20A4, symBinAddr: 0x10024FFB4, symSize: 0x28 }
  - { offset: 0xCA7F4, size: 0x8, addend: 0x0, symName: __ZN12dmGameSystemL13SetupTileGridEPNS_19CollisionWorldBox2DEPNS_23CollisionComponentBox2DE.cold.2, symObjAddr: 0x2118, symBinAddr: 0x100250004, symSize: 0x28 }
  - { offset: 0xCA837, size: 0x8, addend: 0x0, symName: __ZN12dmGameSystemL13SetupTileGridEPNS_19CollisionWorldBox2DEPNS_23CollisionComponentBox2DE.cold.1, symObjAddr: 0x20F0, symBinAddr: 0x10024FFDC, symSize: 0x28 }
  - { offset: 0xCA8CF, size: 0x8, addend: 0x0, symName: __ZN12dmGameSystemL16DispatchCallbackEPN9dmMessage7MessageEPv.cold.1, symObjAddr: 0x2164, symBinAddr: 0x10025002C, symSize: 0x28 }
  - { offset: 0xCA8E7, size: 0x8, addend: 0x0, symName: __ZN12dmGameSystemL13GetShapeBox2DEPNS_14CollisionWorldEPNS_18CollisionComponentEjPNS_9ShapeInfoE.cold.1, symObjAddr: 0x218C, symBinAddr: 0x100250054, symSize: 0x28 }
  - { offset: 0xCA8FF, size: 0x8, addend: 0x0, symName: __ZN12dmGameSystemL13SetShapeBox2DEPNS_14CollisionWorldEPNS_18CollisionComponentEjPNS_9ShapeInfoE.cold.1, symObjAddr: 0x21B4, symBinAddr: 0x10025007C, symSize: 0x28 }
  - { offset: 0xCA9D2, size: 0x8, addend: 0x0, symName: __GLOBAL__sub_I_comp_collision_object_box2d.cpp, symObjAddr: 0x2208, symBinAddr: 0x1000447E4, symSize: 0xB0 }
  - { offset: 0xCAB1E, size: 0x8, addend: 0x0, symName: __GLOBAL__sub_I_comp_collision_object_box2d.cpp.cold.1, symObjAddr: 0x22B8, symBinAddr: 0x1002500A4, symSize: 0x5C }
  - { offset: 0xCADEE, size: 0x8, addend: 0x0, symName: __ZN12dmGameSystemL19PROP_LINEAR_DAMPINGE, symObjAddr: 0x1A1A8, symBinAddr: 0x1003583A8, symSize: 0x0 }
  - { offset: 0xCAE07, size: 0x8, addend: 0x0, symName: __ZN12dmGameSystemL20PROP_ANGULAR_DAMPINGE, symObjAddr: 0x1A1B0, symBinAddr: 0x1003583B0, symSize: 0x0 }
  - { offset: 0xCAE20, size: 0x8, addend: 0x0, symName: __ZN12dmGameSystemL20PROP_LINEAR_VELOCITYE, symObjAddr: 0x1A1B8, symBinAddr: 0x1003583B8, symSize: 0x0 }
  - { offset: 0xCAE39, size: 0x8, addend: 0x0, symName: __ZN12dmGameSystemL21PROP_ANGULAR_VELOCITYE, symObjAddr: 0x1A1C0, symBinAddr: 0x1003583C0, symSize: 0x0 }
  - { offset: 0xCAE52, size: 0x8, addend: 0x0, symName: __ZN12dmGameSystemL9PROP_MASSE, symObjAddr: 0x1A1C8, symBinAddr: 0x1003583C8, symSize: 0x0 }
  - { offset: 0xCAE6B, size: 0x8, addend: 0x0, symName: __ZN12dmGameSystemL11PROP_BULLETE, symObjAddr: 0x1A1D0, symBinAddr: 0x1003583D0, symSize: 0x0 }
  - { offset: 0xCAE84, size: 0x8, addend: 0x0, symName: __ZN12dmGameSystemL16g_PhysicsAdapterE, symObjAddr: 0x1A1E0, symBinAddr: 0x1003583E0, symSize: 0x0 }
  - { offset: 0xCAF68, size: 0x8, addend: 0x0, symName: __ZN12dmGameSystemL29g_NumPhysicsTransformsUpdatedE, symObjAddr: 0x1A1E8, symBinAddr: 0x1003583E8, symSize: 0x0 }
  - { offset: 0xCAF81, size: 0x8, addend: 0x0, symName: __ZN12dmGameSystemL26g_CollisionOverflowWarningE, symObjAddr: 0x1A1F8, symBinAddr: 0x1003583F8, symSize: 0x0 }
  - { offset: 0xCAFA1, size: 0x8, addend: 0x0, symName: __ZN12dmGameSystemL24g_ContactOverflowWarningE, symObjAddr: 0x1A1F9, symBinAddr: 0x1003583F9, symSize: 0x0 }
  - { offset: 0xCB0FD, size: 0x8, addend: 0x0, symName: __ZN12dmGameSystem35CompCollisionObjectBullet3DNewWorldERKN12dmGameObject23ComponentNewWorldParamsE, symObjAddr: 0x30, symBinAddr: 0x100044894, symSize: 0x218 }
  - { offset: 0xCB2AC, size: 0x8, addend: 0x0, symName: __ZN12dmGameSystemL17GetWorldTransformEPvRN11dmTransform9TransformE, symObjAddr: 0x248, symBinAddr: 0x100044AAC, symSize: 0x5C }
  - { offset: 0xCB3A0, size: 0x8, addend: 0x0, symName: __ZN12dmGameSystemL17SetWorldTransformEPvRKN10Vectormath3Aos6Point3ERKNS2_4QuatE, symObjAddr: 0x2A4, symBinAddr: 0x100044B08, symSize: 0x6C }
  - { offset: 0xCB4CF, size: 0x8, addend: 0x0, symName: __ZN12dmGameSystem38CompCollisionObjectBullet3DDeleteWorldERKN12dmGameObject26ComponentDeleteWorldParamsE, symObjAddr: 0x310, symBinAddr: 0x100044B74, symSize: 0x80 }
  - { offset: 0xCB655, size: 0x8, addend: 0x0, symName: __ZN12dmGameSystem33CompCollisionObjectBullet3DCreateERKN12dmGameObject21ComponentCreateParamsE, symObjAddr: 0x390, symBinAddr: 0x100044BF4, symSize: 0xEC }
  - { offset: 0xCB6F6, size: 0x8, addend: 0x0, symName: __ZN12dmGameSystemL21CreateCollisionObjectEPNS_22PhysicsContextBullet3DEPNS_22CollisionWorldBullet3DEPN12dmGameObject8InstanceEPNS_26CollisionComponentBullet3DEb, symObjAddr: 0x47C, symBinAddr: 0x100044CE0, symSize: 0x198 }
  - { offset: 0xCB8E7, size: 0x8, addend: 0x0, symName: __ZN12dmGameSystem34CompCollisionObjectBullet3DDestroyERKN12dmGameObject22ComponentDestroyParamsE, symObjAddr: 0x614, symBinAddr: 0x100044E78, symSize: 0xA4 }
  - { offset: 0xCB9D8, size: 0x8, addend: 0x0, symName: __ZN12dmGameSystem33CompCollisionObjectBullet3DUpdateERKN12dmGameObject22ComponentsUpdateParamsERNS0_22ComponentsUpdateResultE, symObjAddr: 0x6D8, symBinAddr: 0x100044F1C, symSize: 0x24 }
  - { offset: 0xCBA35, size: 0x8, addend: 0x0, symName: __ZN12dmGameSystemL33CompCollisionObjectUpdateInternalERKN12dmGameObject22ComponentsUpdateParamsERNS0_22ComponentsUpdateResultE, symObjAddr: 0x6FC, symBinAddr: 0x100044F40, symSize: 0x250 }
  - { offset: 0xCBDC2, size: 0x8, addend: 0x0, symName: __ZN12dmGameSystem38CompCollisionObjectBullet3DFixedUpdateERKN12dmGameObject22ComponentsUpdateParamsERNS0_22ComponentsUpdateResultE, symObjAddr: 0x94C, symBinAddr: 0x100045190, symSize: 0x28 }
  - { offset: 0xCBE1E, size: 0x8, addend: 0x0, symName: __ZN12dmGameSystem37CompCollisionObjectBullet3DPostUpdateERKN12dmGameObject26ComponentsPostUpdateParamsE, symObjAddr: 0x974, symBinAddr: 0x1000451B8, symSize: 0x7C }
  - { offset: 0xCBEDB, size: 0x8, addend: 0x0, symName: __ZN12dmGameSystem38CompCollisionObjectBullet3DAddToUpdateERKN12dmGameObject26ComponentAddToUpdateParamsE, symObjAddr: 0x9F0, symBinAddr: 0x100045234, symSize: 0xBC }
  - { offset: 0xCBFEB, size: 0x8, addend: 0x0, symName: __ZN12dmGameSystem36CompCollisionObjectBullet3DOnMessageERKN12dmGameObject24ComponentOnMessageParamsE, symObjAddr: 0xAAC, symBinAddr: 0x1000452F0, symSize: 0x1EC }
  - { offset: 0xCC010, size: 0x8, addend: 0x0, symName: __ZN12dmGameSystem36CompCollisionObjectBullet3DOnMessageERKN12dmGameObject24ComponentOnMessageParamsE, symObjAddr: 0xAAC, symBinAddr: 0x1000452F0, symSize: 0x1EC }
  - { offset: 0xCC1C8, size: 0x8, addend: 0x0, symName: __ZN12dmGameSystem35CompCollisionObjectBullet3DOnReloadERKN12dmGameObject23ComponentOnReloadParamsE, symObjAddr: 0xC98, symBinAddr: 0x1000454DC, symSize: 0x6C }
  - { offset: 0xCC245, size: 0x8, addend: 0x0, symName: __ZN12dmGameSystem38CompCollisionObjectBullet3DGetPropertyERKN12dmGameObject26ComponentGetPropertyParamsERNS0_12PropertyDescE, symObjAddr: 0xD04, symBinAddr: 0x100045548, symSize: 0x15C }
  - { offset: 0xCC306, size: 0x8, addend: 0x0, symName: __ZN12dmGameSystem38CompCollisionObjectBullet3DSetPropertyERKN12dmGameObject26ComponentSetPropertyParamsE, symObjAddr: 0xE60, symBinAddr: 0x1000456A4, symSize: 0x15C }
  - { offset: 0xCC43C, size: 0x8, addend: 0x0, symName: __ZN12dmGameSystemL16DispatchCallbackEPN9dmMessage7MessageEPv, symObjAddr: 0xFBC, symBinAddr: 0x100045800, symSize: 0x118 }
  - { offset: 0xCC5C6, size: 0x8, addend: 0x0, symName: __ZN12dmGameSystemL17IsEnabledBullet3DEPNS_14CollisionWorldEPNS_18CollisionComponentE, symObjAddr: 0x10D4, symBinAddr: 0x100045918, symSize: 0x8 }
  - { offset: 0xCC61B, size: 0x8, addend: 0x0, symName: __ZN12dmGameSystemL23WakeupCollisionBullet3DEPNS_14CollisionWorldEPNS_18CollisionComponentE, symObjAddr: 0x10DC, symBinAddr: 0x100045920, symSize: 0x8 }
  - { offset: 0xCC66C, size: 0x8, addend: 0x0, symName: __ZN12dmGameSystemL15RayCastBullet3DEPNS_14CollisionWorldERKN9dmPhysics14RayCastRequestER7dmArrayINS2_15RayCastResponseEE, symObjAddr: 0x10E4, symBinAddr: 0x100045928, symSize: 0x8 }
  - { offset: 0xCC6E0, size: 0x8, addend: 0x0, symName: __ZN12dmGameSystemL18SetGravityBullet3DEPNS_14CollisionWorldERKN10Vectormath3Aos7Vector3E, symObjAddr: 0x10EC, symBinAddr: 0x100045930, symSize: 0x8 }
  - { offset: 0xCC73E, size: 0x8, addend: 0x0, symName: __ZN12dmGameSystemL18GetGravityBullet3DEPNS_14CollisionWorldE, symObjAddr: 0x10F4, symBinAddr: 0x100045938, symSize: 0x8 }
  - { offset: 0xCC793, size: 0x8, addend: 0x0, symName: __ZN12dmGameSystemL25GetCollisionGroupBullet3DEPNS_14CollisionWorldEPNS_18CollisionComponentE, symObjAddr: 0x10FC, symBinAddr: 0x100045940, symSize: 0x2C }
  - { offset: 0xCC827, size: 0x8, addend: 0x0, symName: __ZN12dmGameSystemL25SetCollisionGroupBullet3DEPNS_14CollisionWorldEPNS_18CollisionComponentEy, symObjAddr: 0x1128, symBinAddr: 0x10004596C, symSize: 0x54 }
  - { offset: 0xCC8DC, size: 0x8, addend: 0x0, symName: __ZN12dmGameSystemL27GetCollisionMaskBitBullet3DEPNS_14CollisionWorldEPNS_18CollisionComponentEyPb, symObjAddr: 0x117C, symBinAddr: 0x1000459C0, symSize: 0x54 }
  - { offset: 0xCC9A1, size: 0x8, addend: 0x0, symName: __ZN12dmGameSystemL27SetCollisionMaskBitBullet3DEPNS_14CollisionWorldEPNS_18CollisionComponentEyb, symObjAddr: 0x11D0, symBinAddr: 0x100045A14, symSize: 0x5C }
  - { offset: 0xCCA96, size: 0x8, addend: 0x0, symName: __ZN12dmGameSystemL16GetShapeBullet3DEPNS_14CollisionWorldEPNS_18CollisionComponentEjPNS_9ShapeInfoE, symObjAddr: 0x122C, symBinAddr: 0x100045A70, symSize: 0x118 }
  - { offset: 0xCCC03, size: 0x8, addend: 0x0, symName: __ZN12dmGameSystemL16SetShapeBullet3DEPNS_14CollisionWorldEPNS_18CollisionComponentEjPNS_9ShapeInfoE, symObjAddr: 0x1344, symBinAddr: 0x100045B88, symSize: 0x130 }
  - { offset: 0xCCC0E, size: 0x8, addend: 0x0, symName: __ZN12dmGameSystemL16SetShapeBullet3DEPNS_14CollisionWorldEPNS_18CollisionComponentEjPNS_9ShapeInfoE, symObjAddr: 0x1344, symBinAddr: 0x100045B88, symSize: 0x130 }
  - { offset: 0xCCDE3, size: 0x8, addend: 0x0, symName: __ZN12dmGameSystemL28GetPhysicsEngineTypeBullet3DEPNS_14CollisionWorldE, symObjAddr: 0x1474, symBinAddr: 0x100045CB8, symSize: 0x8 }
  - { offset: 0xCCDED, size: 0x8, addend: 0x0, symName: __ZN12dmGameSystemL23ReplaceAndDeleteShape3DEPN9dmPhysics9Context3DEPNS_26CollisionComponentBullet3DEPvS5_j, symObjAddr: 0x147C, symBinAddr: 0x100045CC0, symSize: 0xAC }
  - { offset: 0xCCEE7, size: 0x8, addend: 0x0, symName: __ZN12dmGameSystemL28GetPhysicsEngineTypeBullet3DEPNS_14CollisionWorldE, symObjAddr: 0x1474, symBinAddr: 0x100045CB8, symSize: 0x8 }
  - { offset: 0xCCF2B, size: 0x8, addend: 0x0, symName: __ZL17rmtp_Components_p, symObjAddr: 0x1A1D8, symBinAddr: 0x1003583D8, symSize: 0x0 }
  - { offset: 0xCE374, size: 0x8, addend: 0x0, symName: __ZN12dmGameSystem38CompCollisionObjectBullet3DAddToUpdateERKN12dmGameObject26ComponentAddToUpdateParamsE.cold.1, symObjAddr: 0x15AC, symBinAddr: 0x100250100, symSize: 0x28 }
  - { offset: 0xCE467, size: 0x8, addend: 0x0, symName: __ZN12dmGameSystemL16DispatchCallbackEPN9dmMessage7MessageEPv.cold.1, symObjAddr: 0x15FC, symBinAddr: 0x100250128, symSize: 0x28 }
  - { offset: 0xCE47F, size: 0x8, addend: 0x0, symName: __ZN12dmGameSystemL16GetShapeBullet3DEPNS_14CollisionWorldEPNS_18CollisionComponentEjPNS_9ShapeInfoE.cold.1, symObjAddr: 0x1624, symBinAddr: 0x100250150, symSize: 0x28 }
  - { offset: 0xCE497, size: 0x8, addend: 0x0, symName: __ZN12dmGameSystemL16SetShapeBullet3DEPNS_14CollisionWorldEPNS_18CollisionComponentEjPNS_9ShapeInfoE.cold.1, symObjAddr: 0x164C, symBinAddr: 0x100250178, symSize: 0x28 }
  - { offset: 0xCE4AF, size: 0x8, addend: 0x0, symName: __ZN12dmGameSystemL23ReplaceAndDeleteShape3DEPN9dmPhysics9Context3DEPNS_26CollisionComponentBullet3DEPvS5_j.cold.1, symObjAddr: 0x1674, symBinAddr: 0x1002501A0, symSize: 0x28 }
  - { offset: 0xCE510, size: 0x8, addend: 0x0, symName: __GLOBAL__sub_I_comp_collision_object_bullet3d.cpp, symObjAddr: 0x169C, symBinAddr: 0x100045D6C, symSize: 0xB0 }
  - { offset: 0xCE65C, size: 0x8, addend: 0x0, symName: __GLOBAL__sub_I_comp_collision_object_bullet3d.cpp.cold.1, symObjAddr: 0x174C, symBinAddr: 0x1002501C8, symSize: 0x5C }
  - { offset: 0xCE90A, size: 0x8, addend: 0x0, symName: __ZL17rmtp_Components_p, symObjAddr: 0x12090, symBinAddr: 0x100358410, symSize: 0x0 }
  - { offset: 0xCE947, size: 0x8, addend: 0x0, symName: __ZN12dmGameSystemL15CAMERA_PROP_FOVE, symObjAddr: 0x12098, symBinAddr: 0x100358418, symSize: 0x0 }
  - { offset: 0xCE960, size: 0x8, addend: 0x0, symName: __ZN12dmGameSystemL18CAMERA_PROP_NEAR_ZE, symObjAddr: 0x120A0, symBinAddr: 0x100358420, symSize: 0x0 }
  - { offset: 0xCE979, size: 0x8, addend: 0x0, symName: __ZN12dmGameSystemL17CAMERA_PROP_FAR_ZE, symObjAddr: 0x120A8, symBinAddr: 0x100358428, symSize: 0x0 }
  - { offset: 0xCE992, size: 0x8, addend: 0x0, symName: __ZN12dmGameSystemL29CAMERA_PROP_ORTHOGRAPHIC_ZOOME, symObjAddr: 0x120B0, symBinAddr: 0x100358430, symSize: 0x0 }
  - { offset: 0xCE9AB, size: 0x8, addend: 0x0, symName: __ZN12dmGameSystemL22CAMERA_PROP_PROJECTIONE, symObjAddr: 0x120B8, symBinAddr: 0x100358438, symSize: 0x0 }
  - { offset: 0xCE9C4, size: 0x8, addend: 0x0, symName: __ZN12dmGameSystemL16CAMERA_PROP_VIEWE, symObjAddr: 0x120C0, symBinAddr: 0x100358440, symSize: 0x0 }
  - { offset: 0xCE9DD, size: 0x8, addend: 0x0, symName: __ZN12dmGameSystemL24CAMERA_PROP_ASPECT_RATIOE, symObjAddr: 0x120C8, symBinAddr: 0x100358448, symSize: 0x0 }
  - { offset: 0xCEABE, size: 0x8, addend: 0x0, symName: __ZN12dmGameSystem18CompCameraNewWorldERKN12dmGameObject23ComponentNewWorldParamsE, symObjAddr: 0x30, symBinAddr: 0x100045E1C, symSize: 0x70 }
  - { offset: 0xCEBE5, size: 0x8, addend: 0x0, symName: __ZN12dmGameSystem21CompCameraDeleteWorldERKN12dmGameObject26ComponentDeleteWorldParamsE, symObjAddr: 0xA0, symBinAddr: 0x100045E8C, symSize: 0x54 }
  - { offset: 0xCED21, size: 0x8, addend: 0x0, symName: __ZN12dmGameSystem16CompCameraCreateERKN12dmGameObject21ComponentCreateParamsE, symObjAddr: 0xF4, symBinAddr: 0x100045EE0, symSize: 0x210 }
  - { offset: 0xCF05C, size: 0x8, addend: 0x0, symName: __ZN12dmGameSystemL15CameraStackPushEPNS_11CameraWorldEPNS_15CameraComponentE, symObjAddr: 0x3C8, symBinAddr: 0x1000461B4, symSize: 0xB4 }
  - { offset: 0xCF18B, size: 0x8, addend: 0x0, symName: __ZN12dmGameSystem22CompCameraGetComponentERKN12dmGameObject18ComponentGetParamsE, symObjAddr: 0x47C, symBinAddr: 0x100046268, symSize: 0x8 }
  - { offset: 0xCF1AB, size: 0x8, addend: 0x0, symName: __ZN12dmGameSystemL17CameraStackRemoveEPNS_11CameraWorldEPNS_15CameraComponentE, symObjAddr: 0x584, symBinAddr: 0x100046370, symSize: 0xB8 }
  - { offset: 0xCF2DF, size: 0x8, addend: 0x0, symName: __ZN7dmArrayIN12dmGameSystem15CameraComponentEE9EraseSwapEj, symObjAddr: 0x63C, symBinAddr: 0x100046428, symSize: 0xC0 }
  - { offset: 0xCF2EA, size: 0x8, addend: 0x0, symName: __ZN12dmGameSystem22CompCameraGetComponentERKN12dmGameObject18ComponentGetParamsE, symObjAddr: 0x47C, symBinAddr: 0x100046268, symSize: 0x8 }
  - { offset: 0xCF318, size: 0x8, addend: 0x0, symName: __ZN12dmGameSystem17CompCameraDestroyERKN12dmGameObject22ComponentDestroyParamsE, symObjAddr: 0x484, symBinAddr: 0x100046270, symSize: 0x100 }
  - { offset: 0xCF430, size: 0x8, addend: 0x0, symName: __ZN12dmGameSystemL17CameraStackRemoveEPNS_11CameraWorldEPNS_15CameraComponentE, symObjAddr: 0x584, symBinAddr: 0x100046370, symSize: 0xB8 }
  - { offset: 0xCF43B, size: 0x8, addend: 0x0, symName: __ZN12dmGameSystem21CompCameraAddToUpdateERKN12dmGameObject26ComponentAddToUpdateParamsE, symObjAddr: 0x6FC, symBinAddr: 0x1000464E8, symSize: 0x1C }
  - { offset: 0xCF4CB, size: 0x8, addend: 0x0, symName: __ZN12dmGameSystem20CompCameraLateUpdateERKN12dmGameObject22ComponentsUpdateParamsERNS0_22ComponentsUpdateResultE, symObjAddr: 0x718, symBinAddr: 0x100046504, symSize: 0x238 }
  - { offset: 0xCF928, size: 0x8, addend: 0x0, symName: __ZN12dmGameSystem19CompCameraOnMessageERKN12dmGameObject24ComponentOnMessageParamsE, symObjAddr: 0x950, symBinAddr: 0x10004673C, symSize: 0x170 }
  - { offset: 0xCFA0D, size: 0x8, addend: 0x0, symName: __ZN12dmGameSystem18CompCameraOnReloadERKN12dmGameObject23ComponentOnReloadParamsE, symObjAddr: 0xAC0, symBinAddr: 0x1000468AC, symSize: 0x128 }
  - { offset: 0xCFB5C, size: 0x8, addend: 0x0, symName: __ZN12dmGameSystem21CompCameraGetPropertyERKN12dmGameObject26ComponentGetPropertyParamsERNS0_12PropertyDescE, symObjAddr: 0xBE8, symBinAddr: 0x1000469D4, symSize: 0x18C }
  - { offset: 0xCFD8F, size: 0x8, addend: 0x0, symName: __ZN12dmGameSystem21CompCameraSetPropertyERKN12dmGameObject26ComponentSetPropertyParamsE, symObjAddr: 0xD74, symBinAddr: 0x100046B60, symSize: 0x154 }
  - { offset: 0xD0ED3, size: 0x8, addend: 0x0, symName: __ZN7dmArrayIN12dmGameSystem15CameraComponentEE4PushERKS1_, symObjAddr: 0x304, symBinAddr: 0x1000460F0, symSize: 0xC4 }
  - { offset: 0xD10F9, size: 0x8, addend: 0x0, symName: __ZN12dmGameSystemL15CameraStackPushEPNS_11CameraWorldEPNS_15CameraComponentE, symObjAddr: 0x3C8, symBinAddr: 0x1000461B4, symSize: 0xB4 }
  - { offset: 0xD1282, size: 0x8, addend: 0x0, symName: __ZN7dmArrayIN12dmGameSystem15CameraComponentEE9EraseSwapEj, symObjAddr: 0x63C, symBinAddr: 0x100046428, symSize: 0xC0 }
  - { offset: 0xD14A9, size: 0x8, addend: 0x0, symName: __ZN12dmGameSystem21CompCameraAddToUpdateERKN12dmGameObject26ComponentAddToUpdateParamsE, symObjAddr: 0x6FC, symBinAddr: 0x1000464E8, symSize: 0x1C }
  - { offset: 0xD1529, size: 0x8, addend: 0x0, symName: __ZN12dmGameSystemL17CameraStackRemoveEPNS_11CameraWorldEPNS_15CameraComponentE.cold.3, symObjAddr: 0x102C, symBinAddr: 0x100250224, symSize: 0x28 }
  - { offset: 0xD1693, size: 0x8, addend: 0x0, symName: __GLOBAL__sub_I_comp_camera.cpp, symObjAddr: 0x10E0, symBinAddr: 0x100046CB4, symSize: 0xC0 }
  - { offset: 0xD17F0, size: 0x8, addend: 0x0, symName: __GLOBAL__sub_I_comp_camera.cpp.cold.1, symObjAddr: 0x11A0, symBinAddr: 0x10025024C, symSize: 0x5C }
  - { offset: 0xD1A9E, size: 0x8, addend: 0x0, symName: __ZL17rmtp_Components_p, symObjAddr: 0x15608, symBinAddr: 0x100358460, symSize: 0x0 }
  - { offset: 0xD1ADB, size: 0x8, addend: 0x0, symName: __ZN12dmGameSystem32COLLECTION_FACTORY_MAX_COUNT_KEYE, symObjAddr: 0x1388, symBinAddr: 0x100343A98, symSize: 0x0 }
  - { offset: 0xD1AF4, size: 0x8, addend: 0x0, symName: __ZN12dmGameSystemL33COLLECTION_FACTORY_PROP_PROTOTYPEE, symObjAddr: 0x15610, symBinAddr: 0x100358468, symSize: 0x0 }
  - { offset: 0xD1C88, size: 0x8, addend: 0x0, symName: __ZN12dmGameSystem29CompCollectionFactoryNewWorldERKN12dmGameObject23ComponentNewWorldParamsE, symObjAddr: 0x50, symBinAddr: 0x100046D74, symSize: 0x1DC }
  - { offset: 0xD1EFD, size: 0x8, addend: 0x0, symName: __ZN12dmGameSystem32CompCollectionFactoryDeleteWorldERKN12dmGameObject26ComponentDeleteWorldParamsE, symObjAddr: 0x22C, symBinAddr: 0x100046F50, symSize: 0x54 }
  - { offset: 0xD1F08, size: 0x8, addend: 0x0, symName: __ZN12dmGameSystem32CompCollectionFactoryDeleteWorldERKN12dmGameObject26ComponentDeleteWorldParamsE, symObjAddr: 0x22C, symBinAddr: 0x100046F50, symSize: 0x54 }
  - { offset: 0xD200E, size: 0x8, addend: 0x0, symName: __ZN12dmGameSystem27CompCollectionFactoryCreateERKN12dmGameObject21ComponentCreateParamsE, symObjAddr: 0x280, symBinAddr: 0x100046FA4, symSize: 0xBC }
  - { offset: 0xD212A, size: 0x8, addend: 0x0, symName: __ZN12dmGameSystem28CompCollectionFactoryDestroyERKN12dmGameObject22ComponentDestroyParamsE, symObjAddr: 0x33C, symBinAddr: 0x100047060, symSize: 0x124 }
  - { offset: 0xD2176, size: 0x8, addend: 0x0, symName: __ZN12dmGameSystem28CompCollectionFactoryDestroyERKN12dmGameObject22ComponentDestroyParamsE, symObjAddr: 0x33C, symBinAddr: 0x100047060, symSize: 0x124 }
  - { offset: 0xD22C2, size: 0x8, addend: 0x0, symName: __ZN12dmGameSystem32CompCollectionFactoryAddToUpdateERKN12dmGameObject26ComponentAddToUpdateParamsE, symObjAddr: 0x460, symBinAddr: 0x100047184, symSize: 0x1C }
  - { offset: 0xD22E3, size: 0x8, addend: 0x0, symName: __ZN12dmGameSystem32CompCollectionFactoryAddToUpdateERKN12dmGameObject26ComponentAddToUpdateParamsE, symObjAddr: 0x460, symBinAddr: 0x100047184, symSize: 0x1C }
  - { offset: 0xD236A, size: 0x8, addend: 0x0, symName: __ZN12dmGameSystem27CompCollectionFactoryUpdateERKN12dmGameObject22ComponentsUpdateParamsERNS0_22ComponentsUpdateResultE, symObjAddr: 0x47C, symBinAddr: 0x1000471A0, symSize: 0x368 }
  - { offset: 0xD2763, size: 0x8, addend: 0x0, symName: __ZN12dmGameSystemL23PreloadCompleteCallbackEPKN10dmResource31PreloaderCompleteCallbackParamsE, symObjAddr: 0x7E4, symBinAddr: 0x100047508, symSize: 0x1A8 }
  - { offset: 0xD2842, size: 0x8, addend: 0x0, symName: __ZN12dmGameSystemL23PreloadCompleteCallbackEPKN10dmResource31PreloaderCompleteCallbackParamsE, symObjAddr: 0x7E4, symBinAddr: 0x100047508, symSize: 0x1A8 }
  - { offset: 0xD2AF2, size: 0x8, addend: 0x0, symName: __ZN12dmGameSystem25CompCollectionFactoryLoadEPNS_22CollectionFactoryWorldEPNS_26CollectionFactoryComponentEiii, symObjAddr: 0x98C, symBinAddr: 0x1000476B0, symSize: 0x174 }
  - { offset: 0xD2AFD, size: 0x8, addend: 0x0, symName: __ZN12dmGameSystem25CompCollectionFactoryLoadEPNS_22CollectionFactoryWorldEPNS_26CollectionFactoryComponentEiii, symObjAddr: 0x98C, symBinAddr: 0x1000476B0, symSize: 0x174 }
  - { offset: 0xD2D31, size: 0x8, addend: 0x0, symName: __ZN12dmGameSystem27CompCollectionFactoryUnloadEPNS_22CollectionFactoryWorldEPNS_26CollectionFactoryComponentE, symObjAddr: 0xB00, symBinAddr: 0x100047824, symSize: 0xB8 }
  - { offset: 0xD2D3C, size: 0x8, addend: 0x0, symName: __ZN12dmGameSystem27CompCollectionFactoryUnloadEPNS_22CollectionFactoryWorldEPNS_26CollectionFactoryComponentE, symObjAddr: 0xB00, symBinAddr: 0x100047824, symSize: 0xB8 }
  - { offset: 0xD2E57, size: 0x8, addend: 0x0, symName: __ZN12dmGameSystem30CompCollectionFactoryGetStatusEPNS_26CollectionFactoryComponentE, symObjAddr: 0xBB8, symBinAddr: 0x1000478DC, symSize: 0x30 }
  - { offset: 0xD2ECE, size: 0x8, addend: 0x0, symName: __ZN12dmGameSystem30CompCollectionFactoryIsLoadingEPNS_26CollectionFactoryComponentE, symObjAddr: 0xC10, symBinAddr: 0x10004790C, symSize: 0xC }
  - { offset: 0xD2EFE, size: 0x8, addend: 0x0, symName: __ZN12dmGameSystem39CompCollectionFactoryIsDynamicPrototypeEPNS_26CollectionFactoryComponentE, symObjAddr: 0xC1C, symBinAddr: 0x100047918, symSize: 0x10 }
  - { offset: 0xD2F2E, size: 0x8, addend: 0x0, symName: __ZN12dmGameSystem39CompCollectionFactoryGetResourceFactoryEPNS_22CollectionFactoryWorldE, symObjAddr: 0xC2C, symBinAddr: 0x100047928, symSize: 0x8 }
  - { offset: 0xD2F5D, size: 0x8, addend: 0x0, symName: __ZN12dmGameSystem32CompCollectionFactoryGetPropertyERKN12dmGameObject26ComponentGetPropertyParamsERNS0_12PropertyDescE, symObjAddr: 0xC34, symBinAddr: 0x100047930, symSize: 0xA8 }
  - { offset: 0xD2FF8, size: 0x8, addend: 0x0, symName: __ZN12dmGameSystem26CompCollectionFactorySpawnEPNS_22CollectionFactoryWorldEPNS_26CollectionFactoryComponentEPN12dmGameObject16CollectionHandleEPKcRKN10Vectormath3Aos6Point3ERKNSA_4QuatERKNSA_7Vector3EP11dmHashTableIyPNS4_17PropertyContainerEEPSK_IyyE, symObjAddr: 0xCE4, symBinAddr: 0x1000479D8, symSize: 0x28 }
  - { offset: 0xD3C7E, size: 0x8, addend: 0x0, symName: __ZN12dmGameSystem28CompCollectionFactoryDestroyERKN12dmGameObject22ComponentDestroyParamsE.cold.1, symObjAddr: 0xE50, symBinAddr: 0x1002502A8, symSize: 0x28 }
  - { offset: 0xD3CBF, size: 0x8, addend: 0x0, symName: __ZN12dmGameSystem28CompCollectionFactoryDestroyERKN12dmGameObject22ComponentDestroyParamsE.cold.2, symObjAddr: 0xE78, symBinAddr: 0x1002502D0, symSize: 0x28 }
  - { offset: 0xD3D97, size: 0x8, addend: 0x0, symName: __ZN12dmGameSystem27CompCollectionFactoryUpdateERKN12dmGameObject22ComponentsUpdateParamsERNS0_22ComponentsUpdateResultE.cold.2, symObjAddr: 0xEEC, symBinAddr: 0x100250320, symSize: 0x28 }
  - { offset: 0xD3DDA, size: 0x8, addend: 0x0, symName: __ZN12dmGameSystem27CompCollectionFactoryUpdateERKN12dmGameObject22ComponentsUpdateParamsERNS0_22ComponentsUpdateResultE.cold.1, symObjAddr: 0xEC4, symBinAddr: 0x1002502F8, symSize: 0x28 }
  - { offset: 0xD3E07, size: 0x8, addend: 0x0, symName: __ZN12dmGameSystem27CompCollectionFactoryUpdateERKN12dmGameObject22ComponentsUpdateParamsERNS0_22ComponentsUpdateResultE.cold.3, symObjAddr: 0xF14, symBinAddr: 0x100250348, symSize: 0x28 }
  - { offset: 0xD3EFB, size: 0x8, addend: 0x0, symName: __ZN12dmGameSystemL23PreloadCompleteCallbackEPKN10dmResource31PreloaderCompleteCallbackParamsE.cold.2, symObjAddr: 0xF64, symBinAddr: 0x100250370, symSize: 0x28 }
  - { offset: 0xD4112, size: 0x8, addend: 0x0, symName: __GLOBAL__sub_I_comp_collection_factory.cpp, symObjAddr: 0x1020, symBinAddr: 0x100047A00, symSize: 0x48 }
  - { offset: 0xD41AF, size: 0x8, addend: 0x0, symName: __GLOBAL__sub_I_comp_collection_factory.cpp.cold.1, symObjAddr: 0x1068, symBinAddr: 0x100250398, symSize: 0x5C }
  - { offset: 0xD4430, size: 0x8, addend: 0x0, symName: __ZL17rmtp_Components_p, symObjAddr: 0x18098, symBinAddr: 0x100358480, symSize: 0x0 }
  - { offset: 0xD445C, size: 0x8, addend: 0x0, symName: __Z20rmtp_CollectionProxyv, symObjAddr: 0x0, symBinAddr: 0x100047A48, symSize: 0x30 }
  - { offset: 0xD447C, size: 0x8, addend: 0x0, symName: __MergedGlobals, symObjAddr: 0x180D8, symBinAddr: 0x1003584C0, symSize: 0x0 }
  - { offset: 0xD44A4, size: 0x8, addend: 0x0, symName: __ZN12dmGameSystem30COLLECTION_PROXY_MAX_COUNT_KEYE, symObjAddr: 0x1EF0, symBinAddr: 0x100343AA0, symSize: 0x0 }
  - { offset: 0xD44BD, size: 0x8, addend: 0x0, symName: __ZN12dmGameSystemL26COLLECTION_PROXY_LOAD_HASHE, symObjAddr: 0x180A0, symBinAddr: 0x100358488, symSize: 0x0 }
  - { offset: 0xD44D6, size: 0x8, addend: 0x0, symName: __ZN12dmGameSystemL32COLLECTION_PROXY_ASYNC_LOAD_HASHE, symObjAddr: 0x180A8, symBinAddr: 0x100358490, symSize: 0x0 }
  - { offset: 0xD44EF, size: 0x8, addend: 0x0, symName: __ZN12dmGameSystemL28COLLECTION_PROXY_UNLOAD_HASHE, symObjAddr: 0x180B0, symBinAddr: 0x100358498, symSize: 0x0 }
  - { offset: 0xD4508, size: 0x8, addend: 0x0, symName: __ZN12dmGameSystemL26COLLECTION_PROXY_INIT_HASHE, symObjAddr: 0x180B8, symBinAddr: 0x1003584A0, symSize: 0x0 }
  - { offset: 0xD4521, size: 0x8, addend: 0x0, symName: __ZN12dmGameSystemL27COLLECTION_PROXY_FINAL_HASHE, symObjAddr: 0x180C0, symBinAddr: 0x1003584A8, symSize: 0x0 }
  - { offset: 0xD453A, size: 0x8, addend: 0x0, symName: __ZN12dmGameSystemL28COLLECTION_PROXY_LOADED_HASHE, symObjAddr: 0x180C8, symBinAddr: 0x1003584B0, symSize: 0x0 }
  - { offset: 0xD4553, size: 0x8, addend: 0x0, symName: __ZN12dmGameSystemL30COLLECTION_PROXY_UNLOADED_HASHE, symObjAddr: 0x180D0, symBinAddr: 0x1003584B8, symSize: 0x0 }
  - { offset: 0xD474E, size: 0x8, addend: 0x0, symName: __ZN12dmGameSystem12LoadCompleteEPNS_24CollectionProxyComponentEN12dmGameObject6ResultE, symObjAddr: 0x90, symBinAddr: 0x100047A78, symSize: 0xC4 }
  - { offset: 0xD4820, size: 0x8, addend: 0x0, symName: __ZN12dmGameSystem14UnloadCompleteEPNS_24CollectionProxyComponentEN12dmGameObject6ResultE, symObjAddr: 0x154, symBinAddr: 0x100047B3C, symSize: 0xEC }
  - { offset: 0xD4968, size: 0x8, addend: 0x0, symName: __ZN12dmGameSystem33GetCollectionUrlHashFromComponentEPNS_20CollectionProxyWorldEyj, symObjAddr: 0x240, symBinAddr: 0x100047C28, symSize: 0xD8 }
  - { offset: 0xD4A4E, size: 0x8, addend: 0x0, symName: __ZN12dmGameSystem32CollectionProxySetCollectionPathEPNS_20CollectionProxyWorldEPNS_24CollectionProxyComponentEPKc, symObjAddr: 0x318, symBinAddr: 0x100047D00, symSize: 0x98 }
  - { offset: 0xD4AC3, size: 0x8, addend: 0x0, symName: __ZN12dmGameSystem27CompCollectionProxyNewWorldERKN12dmGameObject23ComponentNewWorldParamsE, symObjAddr: 0x3B0, symBinAddr: 0x100047D98, symSize: 0x178 }
  - { offset: 0xD4CA0, size: 0x8, addend: 0x0, symName: __ZN12dmGameSystem30CompCollectionProxyDeleteWorldERKN12dmGameObject26ComponentDeleteWorldParamsE, symObjAddr: 0x528, symBinAddr: 0x100047F10, symSize: 0x108 }
  - { offset: 0xD4CAB, size: 0x8, addend: 0x0, symName: __ZN12dmGameSystem30CompCollectionProxyDeleteWorldERKN12dmGameObject26ComponentDeleteWorldParamsE, symObjAddr: 0x528, symBinAddr: 0x100047F10, symSize: 0x108 }
  - { offset: 0xD4EA8, size: 0x8, addend: 0x0, symName: __ZN12dmGameSystem25CompCollectionProxyCreateERKN12dmGameObject21ComponentCreateParamsE, symObjAddr: 0x630, symBinAddr: 0x100048018, symSize: 0xF0 }
  - { offset: 0xD4EB3, size: 0x8, addend: 0x0, symName: __ZN12dmGameSystem25CompCollectionProxyCreateERKN12dmGameObject21ComponentCreateParamsE, symObjAddr: 0x630, symBinAddr: 0x100048018, symSize: 0xF0 }
  - { offset: 0xD4FD0, size: 0x8, addend: 0x0, symName: __ZN12dmGameSystem26CompCollectionProxyDestroyERKN12dmGameObject22ComponentDestroyParamsE, symObjAddr: 0x720, symBinAddr: 0x100048108, symSize: 0xD0 }
  - { offset: 0xD4FF5, size: 0x8, addend: 0x0, symName: __ZN12dmGameSystem26CompCollectionProxyDestroyERKN12dmGameObject22ComponentDestroyParamsE, symObjAddr: 0x720, symBinAddr: 0x100048108, symSize: 0xD0 }
  - { offset: 0xD50EF, size: 0x8, addend: 0x0, symName: __ZN12dmGameSystem24CompCollectionProxyFinalERKN12dmGameObject20ComponentFinalParamsE, symObjAddr: 0x7F0, symBinAddr: 0x1000481D8, symSize: 0x34 }
  - { offset: 0xD50F9, size: 0x8, addend: 0x0, symName: __ZN12dmGameSystem24CompCollectionProxyFinalERKN12dmGameObject20ComponentFinalParamsE, symObjAddr: 0x7F0, symBinAddr: 0x1000481D8, symSize: 0x34 }
  - { offset: 0xD5146, size: 0x8, addend: 0x0, symName: __ZN12dmGameSystem30CompCollectionProxyAddToUpdateERKN12dmGameObject26ComponentAddToUpdateParamsE, symObjAddr: 0x824, symBinAddr: 0x10004820C, symSize: 0x1C }
  - { offset: 0xD5185, size: 0x8, addend: 0x0, symName: __ZN12dmGameSystem25CompCollectionProxyUpdateERKN12dmGameObject22ComponentsUpdateParamsERNS0_22ComponentsUpdateResultE, symObjAddr: 0x840, symBinAddr: 0x100048228, symSize: 0x20C }
  - { offset: 0xD5388, size: 0x8, addend: 0x0, symName: __ZN12dmGameSystemL23PreloadCompleteCallbackEPKN10dmResource31PreloaderCompleteCallbackParamsE, symObjAddr: 0xA4C, symBinAddr: 0x100048434, symSize: 0x78 }
  - { offset: 0xD5428, size: 0x8, addend: 0x0, symName: __ZN12dmGameSystem25CompCollectionProxyRenderERKN12dmGameObject22ComponentsRenderParamsE, symObjAddr: 0xAC4, symBinAddr: 0x1000484AC, symSize: 0xA8 }
  - { offset: 0xD54D7, size: 0x8, addend: 0x0, symName: __ZN12dmGameSystem29CompCollectionProxyPostUpdateERKN12dmGameObject26ComponentsPostUpdateParamsE, symObjAddr: 0xB6C, symBinAddr: 0x100048554, symSize: 0xA8 }
  - { offset: 0xD5587, size: 0x8, addend: 0x0, symName: __ZN12dmGameSystemL31CompCollectionProxyLoadInternalEPNS_22CollectionProxyContextEPNS_24CollectionProxyComponentEPFvPKcN12dmGameObject6ResultEPvES8_PN9dmMessage3URLESD_PNSB_7MessageEb, symObjAddr: 0xC2C, symBinAddr: 0x1000485FC, symSize: 0x1D8 }
  - { offset: 0xD5892, size: 0x8, addend: 0x0, symName: __ZN12dmGameSystemL34CompCollectionProxyDisableInternalEPNS_24CollectionProxyComponentEPN9dmMessage7MessageE, symObjAddr: 0x1114, symBinAddr: 0x1000487D4, symSize: 0x7C }
  - { offset: 0xD592F, size: 0x8, addend: 0x0, symName: __ZN12dmGameSystem28CompCollectionProxyOnMessageERKN12dmGameObject24ComponentOnMessageParamsE, symObjAddr: 0x11B4, symBinAddr: 0x100048850, symSize: 0x2E4 }
  - { offset: 0xD5C25, size: 0x8, addend: 0x0, symName: __ZN12dmGameSystem26CompCollectionProxyOnInputERKN12dmGameObject22ComponentOnInputParamsE, symObjAddr: 0x1498, symBinAddr: 0x100048B34, symSize: 0x50 }
  - { offset: 0xD5C9B, size: 0x8, addend: 0x0, symName: __ZN12dmGameSystem31CompCollectionProxyIterChildrenEPN12dmGameObject17SceneNodeIteratorEPNS0_9SceneNodeE, symObjAddr: 0x14E8, symBinAddr: 0x100048B84, symSize: 0x5C }
  - { offset: 0xD5CE9, size: 0x8, addend: 0x0, symName: __ZN12dmGameSystemL30CompCollectionProxyIterGetNextEPN12dmGameObject17SceneNodeIteratorE, symObjAddr: 0x1544, symBinAddr: 0x100048BE0, symSize: 0x24 }
  - { offset: 0xD5CF3, size: 0x8, addend: 0x0, symName: __ZN12dmGameSystemL30CompCollectionProxyIterGetNextEPN12dmGameObject17SceneNodeIteratorE, symObjAddr: 0x1544, symBinAddr: 0x100048BE0, symSize: 0x24 }
  - { offset: 0xD687E, size: 0x8, addend: 0x0, symName: __Z20rmtp_CollectionProxyv.cold.1, symObjAddr: 0x1568, symBinAddr: 0x1002503F4, symSize: 0x54 }
  - { offset: 0xD6D0F, size: 0x8, addend: 0x0, symName: __ZN12dmGameSystemL31CompCollectionProxyLoadInternalEPNS_22CollectionProxyContextEPNS_24CollectionProxyComponentEPFvPKcN12dmGameObject6ResultEPvES8_PN9dmMessage3URLESD_PNSB_7MessageEb.cold.2, symObjAddr: 0x17E8, symBinAddr: 0x100250470, symSize: 0x28 }
  - { offset: 0xD6D27, size: 0x8, addend: 0x0, symName: __ZN12dmGameSystemL31CompCollectionProxyLoadInternalEPNS_22CollectionProxyContextEPNS_24CollectionProxyComponentEPFvPKcN12dmGameObject6ResultEPvES8_PN9dmMessage3URLESD_PNSB_7MessageEb.cold.1, symObjAddr: 0x17C0, symBinAddr: 0x100250448, symSize: 0x28 }
  - { offset: 0xD6D3F, size: 0x8, addend: 0x0, symName: __ZN12dmGameSystem31CompCollectionProxyIterChildrenEPN12dmGameObject17SceneNodeIteratorEPNS0_9SceneNodeE.cold.1, symObjAddr: 0x1810, symBinAddr: 0x100250498, symSize: 0x28 }
  - { offset: 0xD6DD7, size: 0x8, addend: 0x0, symName: __GLOBAL__sub_I_comp_collection_proxy.cpp, symObjAddr: 0x1860, symBinAddr: 0x100048C10, symSize: 0xF0 }
  - { offset: 0xD6F70, size: 0x8, addend: 0x0, symName: __GLOBAL__sub_I_comp_collection_proxy.cpp.cold.1, symObjAddr: 0x1950, symBinAddr: 0x1002504C0, symSize: 0x5C }
  - { offset: 0xD6FB2, size: 0x8, addend: 0x0, symName: __GLOBAL__sub_I_comp_collection_proxy.cpp.cold.2, symObjAddr: 0x19AC, symBinAddr: 0x10025051C, symSize: 0x5C }
  - { offset: 0xD6FF4, size: 0x8, addend: 0x0, symName: __GLOBAL__sub_I_comp_collection_proxy.cpp.cold.3, symObjAddr: 0x1A08, symBinAddr: 0x100250578, symSize: 0x5C }
  - { offset: 0xD7036, size: 0x8, addend: 0x0, symName: _OUTLINED_FUNCTION_0, symObjAddr: 0x1838, symBinAddr: 0x100048C04, symSize: 0xC }
  - { offset: 0xD732D, size: 0x8, addend: 0x0, symName: __ZN12dmGameSystemL19PROP_LINEAR_DAMPINGE, symObjAddr: 0x1DD00, symBinAddr: 0x1003584F0, symSize: 0x0 }
  - { offset: 0xD7346, size: 0x8, addend: 0x0, symName: __ZN12dmGameSystemL20PROP_ANGULAR_DAMPINGE, symObjAddr: 0x1DD08, symBinAddr: 0x1003584F8, symSize: 0x0 }
  - { offset: 0xD735F, size: 0x8, addend: 0x0, symName: __ZN12dmGameSystemL20PROP_LINEAR_VELOCITYE, symObjAddr: 0x1DD10, symBinAddr: 0x100358500, symSize: 0x0 }
  - { offset: 0xD7378, size: 0x8, addend: 0x0, symName: __ZN12dmGameSystemL21PROP_ANGULAR_VELOCITYE, symObjAddr: 0x1DD18, symBinAddr: 0x100358508, symSize: 0x0 }
  - { offset: 0xD7391, size: 0x8, addend: 0x0, symName: __ZN12dmGameSystemL9PROP_MASSE, symObjAddr: 0x1DD20, symBinAddr: 0x100358510, symSize: 0x0 }
  - { offset: 0xD73AA, size: 0x8, addend: 0x0, symName: __ZN12dmGameSystemL11PROP_BULLETE, symObjAddr: 0x1DD28, symBinAddr: 0x100358518, symSize: 0x0 }
  - { offset: 0xD73C3, size: 0x8, addend: 0x0, symName: __ZN12dmGameSystem33PHYSICS_MAX_COLLISION_OBJECTS_KEYE, symObjAddr: 0x1DE8, symBinAddr: 0x100343AA8, symSize: 0x0 }
  - { offset: 0xD73DC, size: 0x8, addend: 0x0, symName: __ZN12dmGameSystem26PHYSICS_MAX_COLLISIONS_KEYE, symObjAddr: 0x1DF0, symBinAddr: 0x100343AB0, symSize: 0x0 }
  - { offset: 0xD73F5, size: 0x8, addend: 0x0, symName: __ZN12dmGameSystem24PHYSICS_MAX_CONTACTS_KEYE, symObjAddr: 0x1DF8, symBinAddr: 0x100343AB8, symSize: 0x0 }
  - { offset: 0xD740E, size: 0x8, addend: 0x0, symName: __ZN12dmGameSystem26PHYSICS_USE_FIXED_TIMESTEPE, symObjAddr: 0x1E00, symBinAddr: 0x100343AC0, symSize: 0x0 }
  - { offset: 0xD7427, size: 0x8, addend: 0x0, symName: __ZN12dmGameSystem27PHYSICS_MAX_FIXED_TIMESTEPSE, symObjAddr: 0x1E08, symBinAddr: 0x100343AC8, symSize: 0x0 }
  - { offset: 0xD7440, size: 0x8, addend: 0x0, symName: __ZN12dmGameSystem25BOX2D_VELOCITY_ITERATIONSE, symObjAddr: 0x1E10, symBinAddr: 0x100343AD0, symSize: 0x0 }
  - { offset: 0xD7459, size: 0x8, addend: 0x0, symName: __ZN12dmGameSystem25BOX2D_POSITION_ITERATIONSE, symObjAddr: 0x1E18, symBinAddr: 0x100343AD8, symSize: 0x0 }
  - { offset: 0xD7472, size: 0x8, addend: 0x0, symName: __ZN12dmGameSystem20BOX2D_SUB_STEP_COUNTE, symObjAddr: 0x1E20, symBinAddr: 0x100343AE0, symSize: 0x0 }
  - { offset: 0xD7563, size: 0x8, addend: 0x0, symName: __ZN12dmGameSystem27CompCollisionObjectNewWorldERKN12dmGameObject23ComponentNewWorldParamsE, symObjAddr: 0x0, symBinAddr: 0x100048D00, symSize: 0x28 }
  - { offset: 0xD75E4, size: 0x8, addend: 0x0, symName: __ZN12dmGameSystem30CompCollisionObjectDeleteWorldERKN12dmGameObject26ComponentDeleteWorldParamsE, symObjAddr: 0x28, symBinAddr: 0x100048D28, symSize: 0x28 }
  - { offset: 0xD7665, size: 0x8, addend: 0x0, symName: __ZN12dmGameSystem25CompCollisionObjectCreateERKN12dmGameObject21ComponentCreateParamsE, symObjAddr: 0x50, symBinAddr: 0x100048D50, symSize: 0x28 }
  - { offset: 0xD76E6, size: 0x8, addend: 0x0, symName: __ZN12dmGameSystem26CompCollisionObjectDestroyERKN12dmGameObject22ComponentDestroyParamsE, symObjAddr: 0x78, symBinAddr: 0x100048D78, symSize: 0x28 }
  - { offset: 0xD7767, size: 0x8, addend: 0x0, symName: __ZN12dmGameSystem24CompCollisionObjectFinalERKN12dmGameObject20ComponentFinalParamsE, symObjAddr: 0xA0, symBinAddr: 0x100048DA0, symSize: 0x28 }
  - { offset: 0xD77E8, size: 0x8, addend: 0x0, symName: __ZN12dmGameSystem30CompCollisionObjectAddToUpdateERKN12dmGameObject26ComponentAddToUpdateParamsE, symObjAddr: 0xC8, symBinAddr: 0x100048DC8, symSize: 0x28 }
  - { offset: 0xD7883, size: 0x8, addend: 0x0, symName: __ZN12dmGameSystem25CompCollisionObjectUpdateERKN12dmGameObject22ComponentsUpdateParamsERNS0_22ComponentsUpdateResultE, symObjAddr: 0xF0, symBinAddr: 0x100048DF0, symSize: 0x9C }
  - { offset: 0xD7A70, size: 0x8, addend: 0x0, symName: __ZN12dmGameSystem30CompCollisionObjectFixedUpdateERKN12dmGameObject22ComponentsUpdateParamsERNS0_22ComponentsUpdateResultE, symObjAddr: 0x18C, symBinAddr: 0x100048E8C, symSize: 0x28 }
  - { offset: 0xD7B08, size: 0x8, addend: 0x0, symName: __ZN12dmGameSystem29CompCollisionObjectPostUpdateERKN12dmGameObject26ComponentsPostUpdateParamsE, symObjAddr: 0x1B4, symBinAddr: 0x100048EB4, symSize: 0x28 }
  - { offset: 0xD7B89, size: 0x8, addend: 0x0, symName: __ZN12dmGameSystem28CompCollisionObjectOnMessageERKN12dmGameObject24ComponentOnMessageParamsE, symObjAddr: 0x1DC, symBinAddr: 0x100048EDC, symSize: 0x28 }
  - { offset: 0xD7C0A, size: 0x8, addend: 0x0, symName: __ZN12dmGameSystem31CompCollisionObjectGetComponentERKN12dmGameObject18ComponentGetParamsE, symObjAddr: 0x204, symBinAddr: 0x100048F04, symSize: 0x8 }
  - { offset: 0xD7C38, size: 0x8, addend: 0x0, symName: __ZN12dmGameSystem27CompCollisionObjectOnReloadERKN12dmGameObject23ComponentOnReloadParamsE, symObjAddr: 0x20C, symBinAddr: 0x100048F0C, symSize: 0x24 }
  - { offset: 0xD7CAB, size: 0x8, addend: 0x0, symName: __ZN12dmGameSystem30CompCollisionObjectGetPropertyERKN12dmGameObject26ComponentGetPropertyParamsERNS0_12PropertyDescE, symObjAddr: 0x230, symBinAddr: 0x100048F30, symSize: 0x28 }
  - { offset: 0xD7D43, size: 0x8, addend: 0x0, symName: __ZN12dmGameSystem30CompCollisionObjectSetPropertyERKN12dmGameObject26ComponentSetPropertyParamsE, symObjAddr: 0x258, symBinAddr: 0x100048F58, symSize: 0x28 }
  - { offset: 0xD7DC4, size: 0x8, addend: 0x0, symName: __ZN12dmGameSystem16GetGroupBitIndexEPNS_14CollisionWorldEyb, symObjAddr: 0x280, symBinAddr: 0x100048F80, symSize: 0x260 }
  - { offset: 0xD7E44, size: 0x8, addend: 0x0, symName: __ZN12dmGameSystem19GetShapeIndexSharedEPNS_14CollisionWorldEPNS_18CollisionComponentEyPj, symObjAddr: 0x4E0, symBinAddr: 0x1000491E0, symSize: 0x70 }
  - { offset: 0xD7EFB, size: 0x8, addend: 0x0, symName: __ZN12dmGameSystem27CompCollisionIterPropertiesEPN12dmGameObject25SceneNodePropertyIteratorEPNS0_9SceneNodeE, symObjAddr: 0x558, symBinAddr: 0x100049250, symSize: 0x40 }
  - { offset: 0xD7F46, size: 0x8, addend: 0x0, symName: __ZN12dmGameSystemL34CompCollisionIterPropertiesGetNextEPN12dmGameObject25SceneNodePropertyIteratorE, symObjAddr: 0x598, symBinAddr: 0x100049290, symSize: 0x68 }
  - { offset: 0xD7F51, size: 0x8, addend: 0x0, symName: __ZN12dmGameSystemL34CompCollisionIterPropertiesGetNextEPN12dmGameObject25SceneNodePropertyIteratorE, symObjAddr: 0x598, symBinAddr: 0x100049290, symSize: 0x68 }
  - { offset: 0xD7FDA, size: 0x8, addend: 0x0, symName: __ZN12dmGameSystem29CompCollisionGetGroupBitIndexEPNS_14CollisionWorldEy, symObjAddr: 0x600, symBinAddr: 0x1000492F8, symSize: 0x8 }
  - { offset: 0xD8036, size: 0x8, addend: 0x0, symName: __ZN12dmGameSystem25SetCollisionWorldCallbackEPNS_14CollisionWorldEPN8dmScript15LuaCallbackInfoEb, symObjAddr: 0x610, symBinAddr: 0x100049300, symSize: 0x18 }
  - { offset: 0xD807C, size: 0x8, addend: 0x0, symName: __ZN12dmGameSystem15GetLSBGroupHashEPNS_14CollisionWorldEt, symObjAddr: 0x628, symBinAddr: 0x100049318, symSize: 0x38 }
  - { offset: 0xD80B2, size: 0x8, addend: 0x0, symName: __ZN12dmGameSystem32CompCollisionObjectGetIdentifierEPNS_18CollisionComponentE, symObjAddr: 0x660, symBinAddr: 0x100049350, symSize: 0x8 }
  - { offset: 0xD8126, size: 0x8, addend: 0x0, symName: __ZN12dmGameSystem15RayCastCallbackERKN9dmPhysics15RayCastResponseERKNS0_14RayCastRequestEPv, symObjAddr: 0x668, symBinAddr: 0x100049358, symSize: 0x250 }
  - { offset: 0xD8549, size: 0x8, addend: 0x0, symName: __ZN12dmGameSystemL18RunPhysicsCallbackEPNS_14CollisionWorldEPKN5dmDDF10DescriptorEPKc, symObjAddr: 0x8B8, symBinAddr: 0x1000495A8, symSize: 0x248 }
  - { offset: 0xD8878, size: 0x8, addend: 0x0, symName: __ZN12dmGameSystem21TriggerExitedCallbackERKN9dmPhysics11TriggerExitEPv, symObjAddr: 0xB00, symBinAddr: 0x1000497F0, symSize: 0x178 }
  - { offset: 0xD8929, size: 0x8, addend: 0x0, symName: __ZN12dmGameSystem21TriggerExitedCallbackERKN9dmPhysics11TriggerExitEPv, symObjAddr: 0xB00, symBinAddr: 0x1000497F0, symSize: 0x178 }
  - { offset: 0xD8B6E, size: 0x8, addend: 0x0, symName: __ZN12dmGameSystemL9BroadCastIN12dmPhysicsDDF15TriggerResponseEEEvPT_PN12dmGameObject8InstanceEyt, symObjAddr: 0xC78, symBinAddr: 0x100049968, symSize: 0x11C }
  - { offset: 0xD8D76, size: 0x8, addend: 0x0, symName: __ZN12dmGameSystem22TriggerEnteredCallbackERKN9dmPhysics12TriggerEnterEPv, symObjAddr: 0xD94, symBinAddr: 0x100049A84, symSize: 0x180 }
  - { offset: 0xD8FBB, size: 0x8, addend: 0x0, symName: __ZN12dmGameSystem17CollisionCallbackEPvtS0_tS0_, symObjAddr: 0xF14, symBinAddr: 0x100049C04, symSize: 0x220 }
  - { offset: 0xD9376, size: 0x8, addend: 0x0, symName: __ZN12dmGameSystemL9BroadCastIN12dmPhysicsDDF17CollisionResponseEEEvPT_PN12dmGameObject8InstanceEyt, symObjAddr: 0x1134, symBinAddr: 0x100049E24, symSize: 0x11C }
  - { offset: 0xD957E, size: 0x8, addend: 0x0, symName: __ZN12dmGameSystem20ContactPointCallbackERKN9dmPhysics12ContactPointEPv, symObjAddr: 0x1250, symBinAddr: 0x100049F40, symSize: 0x36C }
  - { offset: 0xD9AD8, size: 0x8, addend: 0x0, symName: __ZN12dmGameSystemL9BroadCastIN12dmPhysicsDDF20ContactPointResponseEEEvPT_PN12dmGameObject8InstanceEyt, symObjAddr: 0x15BC, symBinAddr: 0x10004A2AC, symSize: 0x11C }
  - { offset: 0xD9CE1, size: 0x8, addend: 0x0, symName: __ZN12dmGameSystem15WakeupCollisionEPNS_14CollisionWorldEPNS_18CollisionComponentE, symObjAddr: 0x16D8, symBinAddr: 0x10004A3C8, symSize: 0x14 }
  - { offset: 0xD9D24, size: 0x8, addend: 0x0, symName: __ZN12dmGameSystem7RayCastEPNS_14CollisionWorldERKN9dmPhysics14RayCastRequestER7dmArrayINS2_15RayCastResponseEE, symObjAddr: 0x16EC, symBinAddr: 0x10004A3DC, symSize: 0x14 }
  - { offset: 0xD9D76, size: 0x8, addend: 0x0, symName: __ZN12dmGameSystem11CreateJointEPNS_14CollisionWorldEPNS_18CollisionComponentEyRKN10Vectormath3Aos6Point3ES3_S8_N9dmPhysics9JointTypeERKNS9_18ConnectJointParamsE, symObjAddr: 0x1700, symBinAddr: 0x10004A3F0, symSize: 0x18 }
  - { offset: 0xD9E14, size: 0x8, addend: 0x0, symName: __ZN12dmGameSystem12DestroyJointEPNS_14CollisionWorldEPNS_18CollisionComponentEy, symObjAddr: 0x1718, symBinAddr: 0x10004A408, symSize: 0x18 }
  - { offset: 0xD9E6C, size: 0x8, addend: 0x0, symName: __ZN12dmGameSystem14GetJointParamsEPNS_14CollisionWorldEPNS_18CollisionComponentEyRN9dmPhysics9JointTypeERNS4_18ConnectJointParamsE, symObjAddr: 0x1730, symBinAddr: 0x10004A420, symSize: 0x18 }
  - { offset: 0xD9EE0, size: 0x8, addend: 0x0, symName: __ZN12dmGameSystem12GetJointTypeEPNS_14CollisionWorldEPNS_18CollisionComponentEyRN9dmPhysics9JointTypeE, symObjAddr: 0x1748, symBinAddr: 0x10004A438, symSize: 0x18 }
  - { offset: 0xD9F46, size: 0x8, addend: 0x0, symName: __ZN12dmGameSystem14SetJointParamsEPNS_14CollisionWorldEPNS_18CollisionComponentEyRKN9dmPhysics18ConnectJointParamsE, symObjAddr: 0x1760, symBinAddr: 0x10004A450, symSize: 0x18 }
  - { offset: 0xD9FAC, size: 0x8, addend: 0x0, symName: __ZN12dmGameSystem21GetJointReactionForceEPNS_14CollisionWorldEPNS_18CollisionComponentEyRN10Vectormath3Aos7Vector3E, symObjAddr: 0x1778, symBinAddr: 0x10004A468, symSize: 0x18 }
  - { offset: 0xDA012, size: 0x8, addend: 0x0, symName: __ZN12dmGameSystem22GetJointReactionTorqueEPNS_14CollisionWorldEPNS_18CollisionComponentEyRf, symObjAddr: 0x1790, symBinAddr: 0x10004A480, symSize: 0x18 }
  - { offset: 0xDA077, size: 0x8, addend: 0x0, symName: __ZN12dmGameSystem10SetGravityEPNS_14CollisionWorldERKN10Vectormath3Aos7Vector3E, symObjAddr: 0x17A8, symBinAddr: 0x10004A498, symSize: 0x14 }
  - { offset: 0xDA0BB, size: 0x8, addend: 0x0, symName: __ZN12dmGameSystem10GetGravityEPNS_14CollisionWorldE, symObjAddr: 0x17BC, symBinAddr: 0x10004A4AC, symSize: 0x1C }
  - { offset: 0xDA151, size: 0x8, addend: 0x0, symName: __ZN12dmGameSystem17SetCollisionFlipHEPNS_14CollisionWorldEPNS_18CollisionComponentEb, symObjAddr: 0x17D8, symBinAddr: 0x10004A4C8, symSize: 0x14 }
  - { offset: 0xDA1A7, size: 0x8, addend: 0x0, symName: __ZN12dmGameSystem17SetCollisionFlipVEPNS_14CollisionWorldEPNS_18CollisionComponentEb, symObjAddr: 0x17EC, symBinAddr: 0x10004A4DC, symSize: 0x14 }
  - { offset: 0xDA1FE, size: 0x8, addend: 0x0, symName: __ZN12dmGameSystem17GetCollisionGroupEPNS_14CollisionWorldEPNS_18CollisionComponentE, symObjAddr: 0x1800, symBinAddr: 0x10004A4F0, symSize: 0x18 }
  - { offset: 0xDA248, size: 0x8, addend: 0x0, symName: __ZN12dmGameSystem17SetCollisionGroupEPNS_14CollisionWorldEPNS_18CollisionComponentEy, symObjAddr: 0x1818, symBinAddr: 0x10004A508, symSize: 0x18 }
  - { offset: 0xDA2A0, size: 0x8, addend: 0x0, symName: __ZN12dmGameSystem19GetCollisionMaskBitEPNS_14CollisionWorldEPNS_18CollisionComponentEyPb, symObjAddr: 0x1830, symBinAddr: 0x10004A520, symSize: 0x18 }
  - { offset: 0xDA306, size: 0x8, addend: 0x0, symName: __ZN12dmGameSystem19SetCollisionMaskBitEPNS_14CollisionWorldEPNS_18CollisionComponentEyb, symObjAddr: 0x1848, symBinAddr: 0x10004A538, symSize: 0x18 }
  - { offset: 0xDA370, size: 0x8, addend: 0x0, symName: __ZN12dmGameSystem10UpdateMassEPNS_14CollisionWorldEPNS_18CollisionComponentEf, symObjAddr: 0x1860, symBinAddr: 0x10004A550, symSize: 0x14 }
  - { offset: 0xDA3C3, size: 0x8, addend: 0x0, symName: __ZN12dmGameSystem13GetShapeIndexEPNS_14CollisionWorldEPNS_18CollisionComponentEyPj, symObjAddr: 0x1874, symBinAddr: 0x10004A564, symSize: 0x18 }
  - { offset: 0xDA429, size: 0x8, addend: 0x0, symName: __ZN12dmGameSystem8GetShapeEPNS_14CollisionWorldEPNS_18CollisionComponentEjPNS_9ShapeInfoE, symObjAddr: 0x188C, symBinAddr: 0x10004A57C, symSize: 0x18 }
  - { offset: 0xDA48F, size: 0x8, addend: 0x0, symName: __ZN12dmGameSystem8SetShapeEPNS_14CollisionWorldEPNS_18CollisionComponentEjPNS_9ShapeInfoE, symObjAddr: 0x18A4, symBinAddr: 0x10004A594, symSize: 0x18 }
  - { offset: 0xDA4F5, size: 0x8, addend: 0x0, symName: __ZN12dmGameSystem20GetPhysicsEngineTypeEPNS_14CollisionWorldE, symObjAddr: 0x18BC, symBinAddr: 0x10004A5AC, symSize: 0x18 }
  - { offset: 0xDB1B5, size: 0x8, addend: 0x0, symName: __ZN12dmGameSystem19GetShapeIndexSharedEPNS_14CollisionWorldEPNS_18CollisionComponentEyPj.cold.1, symObjAddr: 0x18D4, symBinAddr: 0x1002505D4, symSize: 0x28 }
  - { offset: 0xDB1E3, size: 0x8, addend: 0x0, symName: __ZN12dmGameSystem27CompCollisionIterPropertiesEPN12dmGameObject25SceneNodePropertyIteratorEPNS0_9SceneNodeE.cold.1, symObjAddr: 0x18FC, symBinAddr: 0x1002505FC, symSize: 0x28 }
  - { offset: 0xDB1FB, size: 0x8, addend: 0x0, symName: __ZN12dmGameSystem27CompCollisionIterPropertiesEPN12dmGameObject25SceneNodePropertyIteratorEPNS0_9SceneNodeE.cold.2, symObjAddr: 0x1924, symBinAddr: 0x100250624, symSize: 0x28 }
  - { offset: 0xDB6C5, size: 0x8, addend: 0x0, symName: __GLOBAL__sub_I_comp_collision_object.cpp, symObjAddr: 0x19EC, symBinAddr: 0x10004A5C4, symSize: 0x88 }
  - { offset: 0xDB9ED, size: 0x8, addend: 0x0, symName: __ZL17rmtp_Components_p, symObjAddr: 0x13780, symBinAddr: 0x100358528, symSize: 0x0 }
  - { offset: 0xDBA2A, size: 0x8, addend: 0x0, symName: __ZN12dmGameSystem21FACTORY_MAX_COUNT_KEYE, symObjAddr: 0x1438, symBinAddr: 0x100343AE8, symSize: 0x0 }
  - { offset: 0xDBA43, size: 0x8, addend: 0x0, symName: __ZN12dmGameSystemL22FACTORY_PROP_PROTOTYPEE, symObjAddr: 0x13788, symBinAddr: 0x100358530, symSize: 0x0 }
  - { offset: 0xDBBD1, size: 0x8, addend: 0x0, symName: __ZN12dmGameSystem19CompFactoryNewWorldERKN12dmGameObject23ComponentNewWorldParamsE, symObjAddr: 0x50, symBinAddr: 0x10004A64C, symSize: 0x1E4 }
  - { offset: 0xDBE10, size: 0x8, addend: 0x0, symName: __ZN12dmGameSystem22CompFactoryDeleteWorldERKN12dmGameObject26ComponentDeleteWorldParamsE, symObjAddr: 0x234, symBinAddr: 0x10004A830, symSize: 0x54 }
  - { offset: 0xDBE1B, size: 0x8, addend: 0x0, symName: __ZN12dmGameSystem22CompFactoryDeleteWorldERKN12dmGameObject26ComponentDeleteWorldParamsE, symObjAddr: 0x234, symBinAddr: 0x10004A830, symSize: 0x54 }
  - { offset: 0xDBF25, size: 0x8, addend: 0x0, symName: __ZN12dmGameSystem17CompFactoryCreateERKN12dmGameObject21ComponentCreateParamsE, symObjAddr: 0x288, symBinAddr: 0x10004A884, symSize: 0xBC }
  - { offset: 0xDC041, size: 0x8, addend: 0x0, symName: __ZN12dmGameSystem23CompFactoryGetComponentERKN12dmGameObject18ComponentGetParamsE, symObjAddr: 0x344, symBinAddr: 0x10004A940, symSize: 0x8 }
  - { offset: 0xDC067, size: 0x8, addend: 0x0, symName: __ZN12dmGameSystem23CompFactoryGetComponentERKN12dmGameObject18ComponentGetParamsE, symObjAddr: 0x344, symBinAddr: 0x10004A940, symSize: 0x8 }
  - { offset: 0xDC0BB, size: 0x8, addend: 0x0, symName: __ZN12dmGameSystem18CompFactoryDestroyERKN12dmGameObject22ComponentDestroyParamsE, symObjAddr: 0x34C, symBinAddr: 0x10004A948, symSize: 0x120 }
  - { offset: 0xDC209, size: 0x8, addend: 0x0, symName: __ZN12dmGameSystem22CompFactoryAddToUpdateERKN12dmGameObject26ComponentAddToUpdateParamsE, symObjAddr: 0x46C, symBinAddr: 0x10004AA68, symSize: 0x1C }
  - { offset: 0xDC22A, size: 0x8, addend: 0x0, symName: __ZN12dmGameSystem22CompFactoryAddToUpdateERKN12dmGameObject26ComponentAddToUpdateParamsE, symObjAddr: 0x46C, symBinAddr: 0x10004AA68, symSize: 0x1C }
  - { offset: 0xDC2B1, size: 0x8, addend: 0x0, symName: __ZN12dmGameSystem17CompFactoryUpdateERKN12dmGameObject22ComponentsUpdateParamsERNS0_22ComponentsUpdateResultE, symObjAddr: 0x488, symBinAddr: 0x10004AA84, symSize: 0x384 }
  - { offset: 0xDC6C9, size: 0x8, addend: 0x0, symName: __ZN12dmGameSystemL23PreloadCompleteCallbackEPKN10dmResource31PreloaderCompleteCallbackParamsE, symObjAddr: 0x80C, symBinAddr: 0x10004AE08, symSize: 0x90 }
  - { offset: 0xDC728, size: 0x8, addend: 0x0, symName: __ZN12dmGameSystemL23PreloadCompleteCallbackEPKN10dmResource31PreloaderCompleteCallbackParamsE, symObjAddr: 0x80C, symBinAddr: 0x10004AE08, symSize: 0x90 }
  - { offset: 0xDC7CF, size: 0x8, addend: 0x0, symName: __ZN12dmGameSystem20CompFactoryOnMessageERKN12dmGameObject24ComponentOnMessageParamsE, symObjAddr: 0x89C, symBinAddr: 0x10004AE98, symSize: 0x114 }
  - { offset: 0xDC9F4, size: 0x8, addend: 0x0, symName: __ZN12dmGameSystem7DoSpawnEPNS_12FactoryWorldEPNS_16FactoryComponentEPN12dmGameObject16CollectionHandleEyRKN10Vectormath3Aos6Point3ERKNS8_4QuatERKNS8_7Vector3EPNS4_17PropertyContainerEPPNS4_8InstanceE, symObjAddr: 0x9B0, symBinAddr: 0x10004AFAC, symSize: 0x1B0 }
  - { offset: 0xDCCF9, size: 0x8, addend: 0x0, symName: __ZN12dmGameSystem15CompFactoryLoadEPNS_12FactoryWorldEPNS_16FactoryComponentEiii, symObjAddr: 0xB74, symBinAddr: 0x10004B15C, symSize: 0xA4 }
  - { offset: 0xDCDE5, size: 0x8, addend: 0x0, symName: __ZN12dmGameSystem17CompFactoryUnloadEPNS_12FactoryWorldEPNS_16FactoryComponentE, symObjAddr: 0xC18, symBinAddr: 0x10004B200, symSize: 0x78 }
  - { offset: 0xDCE8C, size: 0x8, addend: 0x0, symName: __ZN12dmGameSystem20CompFactoryGetStatusEPNS_12FactoryWorldEPNS_16FactoryComponentE, symObjAddr: 0xD38, symBinAddr: 0x10004B278, symSize: 0x30 }
  - { offset: 0xDCF04, size: 0x8, addend: 0x0, symName: __ZN12dmGameSystem20CompFactoryIsLoadingEPNS_12FactoryWorldEPNS_16FactoryComponentE, symObjAddr: 0xD68, symBinAddr: 0x10004B2A8, symSize: 0xC }
  - { offset: 0xDCF42, size: 0x8, addend: 0x0, symName: __ZN12dmGameSystem29CompFactoryIsDynamicPrototypeEPNS_12FactoryWorldEPNS_16FactoryComponentE, symObjAddr: 0xD74, symBinAddr: 0x10004B2B4, symSize: 0x10 }
  - { offset: 0xDCF80, size: 0x8, addend: 0x0, symName: __ZN12dmGameSystem29CompFactoryGetDefaultResourceEPNS_12FactoryWorldEPNS_16FactoryComponentE, symObjAddr: 0xD84, symBinAddr: 0x10004B2C4, symSize: 0x8 }
  - { offset: 0xDCFBE, size: 0x8, addend: 0x0, symName: __ZN12dmGameSystem28CompFactoryGetCustomResourceEPNS_12FactoryWorldEPNS_16FactoryComponentE, symObjAddr: 0xD8C, symBinAddr: 0x10004B2CC, symSize: 0x8 }
  - { offset: 0xDCFFB, size: 0x8, addend: 0x0, symName: __ZN12dmGameSystem22CompFactorySetResourceEPNS_12FactoryWorldEPNS_16FactoryComponentEPNS_15FactoryResourceE, symObjAddr: 0xD94, symBinAddr: 0x10004B2D4, symSize: 0x8 }
  - { offset: 0xDD040, size: 0x8, addend: 0x0, symName: __ZN12dmGameSystem22CompFactoryGetPropertyERKN12dmGameObject26ComponentGetPropertyParamsERNS0_12PropertyDescE, symObjAddr: 0xD9C, symBinAddr: 0x10004B2DC, symSize: 0xB0 }
  - { offset: 0xDD0CA, size: 0x8, addend: 0x0, symName: __ZN12dmGameSystem16CompFactorySpawnEPNS_12FactoryWorldEPNS_16FactoryComponentEPN12dmGameObject16CollectionHandleEyRKN10Vectormath3Aos6Point3ERKNS8_4QuatERKNS8_7Vector3EPNS4_17PropertyContainerEPPNS4_8InstanceE, symObjAddr: 0xE4C, symBinAddr: 0x10004B38C, symSize: 0xC }
  - { offset: 0xDDFA7, size: 0x8, addend: 0x0, symName: __ZN12dmGameSystem17CompFactoryUpdateERKN12dmGameObject22ComponentsUpdateParamsERNS0_22ComponentsUpdateResultE.cold.2, symObjAddr: 0x1038, symBinAddr: 0x100250674, symSize: 0x28 }
  - { offset: 0xDDFEA, size: 0x8, addend: 0x0, symName: __ZN12dmGameSystem17CompFactoryUpdateERKN12dmGameObject22ComponentsUpdateParamsERNS0_22ComponentsUpdateResultE.cold.1, symObjAddr: 0x1010, symBinAddr: 0x10025064C, symSize: 0x28 }
  - { offset: 0xDE017, size: 0x8, addend: 0x0, symName: __ZN12dmGameSystem17CompFactoryUpdateERKN12dmGameObject22ComponentsUpdateParamsERNS0_22ComponentsUpdateResultE.cold.3, symObjAddr: 0x1060, symBinAddr: 0x10025069C, symSize: 0x28 }
  - { offset: 0xDE10D, size: 0x8, addend: 0x0, symName: __GLOBAL__sub_I_comp_factory.cpp, symObjAddr: 0x10A0, symBinAddr: 0x10004B398, symSize: 0x48 }
  - { offset: 0xDE198, size: 0x8, addend: 0x0, symName: __GLOBAL__sub_I_comp_factory.cpp.cold.1, symObjAddr: 0x10E8, symBinAddr: 0x1002506C4, symSize: 0x5C }
  - { offset: 0xDE42D, size: 0x8, addend: 0x0, symName: __ZL10rmtp_Gui_p, symObjAddr: 0x772F0, symBinAddr: 0x100358550, symSize: 0x0 }
  - { offset: 0xDE46A, size: 0x8, addend: 0x0, symName: __ZN12dmGameSystemL24g_CompGuiPropertySettersE, symObjAddr: 0x772F8, symBinAddr: 0x100358558, symSize: 0x0 }
  - { offset: 0xDE483, size: 0x8, addend: 0x0, symName: __ZN12dmGameSystemL24g_CompGuiPropertyGettersE, symObjAddr: 0x77330, symBinAddr: 0x100358590, symSize: 0x0 }
  - { offset: 0xDE49C, size: 0x8, addend: 0x0, symName: __ZN12dmGameSystemL16ddf_playback_mapE, symObjAddr: 0x77370, symBinAddr: 0x1003585D0, symSize: 0x0 }
  - { offset: 0xDE4D8, size: 0x8, addend: 0x0, symName: __ZN12dmGameSystemL17ddf_blendmode_mapE, symObjAddr: 0x77390, symBinAddr: 0x1003585F0, symSize: 0x0 }
  - { offset: 0xDE514, size: 0x8, addend: 0x0, symName: __ZN12dmGameSystemL25g_CompGuiNodeTypeSentinelE.0, symObjAddr: 0x773A8, symBinAddr: 0x100358608, symSize: 0x0 }
  - { offset: 0xDE6FD, size: 0x8, addend: 0x0, symName: __ZN12dmGameSystemL13CompGuiUpdateERKN12dmGameObject22ComponentsUpdateParamsERNS0_22ComponentsUpdateResultE, symObjAddr: 0x1F48, symBinAddr: 0x10004C8F8, symSize: 0x100 }
  - { offset: 0xDE728, size: 0x8, addend: 0x0, symName: __ZZN12dmGameSystemL13CompGuiUpdateERKN12dmGameObject22ComponentsUpdateParamsERNS0_22ComponentsUpdateResultEE10_scope2651, symObjAddr: 0x773B8, symBinAddr: 0x100358618, symSize: 0x0 }
  - { offset: 0xDE8EB, size: 0x8, addend: 0x0, symName: __ZN12dmGameSystemL13CompGuiRenderERKN12dmGameObject22ComponentsRenderParamsE, symObjAddr: 0x2048, symBinAddr: 0x10004C9F8, symSize: 0x31C }
  - { offset: 0xDE8F5, size: 0x8, addend: 0x0, symName: __ZN12dmGameSystemL11RenderNodesEPN5dmGui5SceneEPKNS0_11RenderEntryEPKN10Vectormath3Aos7Matrix4EPKfPPKNS0_12StencilScopeEjPv, symObjAddr: 0x4F3C, symBinAddr: 0x10004F4A8, symSize: 0x908 }
  - { offset: 0xDE91C, size: 0x8, addend: 0x0, symName: __ZZN12dmGameSystemL11RenderNodesEPN5dmGui5SceneEPKNS0_11RenderEntryEPKN10Vectormath3Aos7Matrix4EPKfPPKNS0_12StencilScopeEjPvE10_scope2241, symObjAddr: 0x773C0, symBinAddr: 0x100358620, symSize: 0x0 }
  - { offset: 0xDF541, size: 0x8, addend: 0x0, symName: __ZN12dmGameSystemL18RenderListDispatchERKN8dmRender24RenderListDispatchParamsE, symObjAddr: 0x5844, symBinAddr: 0x10004FDB0, symSize: 0x64 }
  - { offset: 0xDF54B, size: 0x8, addend: 0x0, symName: __ZN12dmGameSystemL14RenderBoxNodesEPN5dmGui5SceneEPKNS0_11RenderEntryEPKN10Vectormath3Aos7Matrix4EPKfPPKNS0_12StencilScopeEPNS_19CompRenderConstantsEjPNS_16RenderGuiContextE, symObjAddr: 0x5C78, symBinAddr: 0x1000501E4, symSize: 0x1150 }
  - { offset: 0xE0B4C, size: 0x8, addend: 0x0, symName: __ZN12dmGameSystemL29g_CompGuiNodeTypesInitializedE, symObjAddr: 0x773D0, symBinAddr: 0x100358630, symSize: 0x0 }
  - { offset: 0xE1046, size: 0x8, addend: 0x0, symName: __ZN12dmGameSystem17GuiGetURLCallbackEPN5dmGui5SceneEPN9dmMessage3URLE, symObjAddr: 0xD0, symBinAddr: 0x10004B480, symSize: 0x78 }
  - { offset: 0xE1104, size: 0x8, addend: 0x0, symName: __ZN12dmGameSystem22GuiGetUserDataCallbackEPN5dmGui5SceneE, symObjAddr: 0x148, symBinAddr: 0x10004B4F8, symSize: 0x18 }
  - { offset: 0xE1158, size: 0x8, addend: 0x0, symName: __ZN12dmGameSystem22GuiResolvePathCallbackEPN5dmGui5SceneEPKc, symObjAddr: 0x160, symBinAddr: 0x10004B510, symSize: 0x48 }
  - { offset: 0xE11FA, size: 0x8, addend: 0x0, symName: __ZN12dmGameSystem25GuiGetTextMetricsCallbackEPNS_12FontResourceEPKcfbffPN5dmGui11TextMetricsE, symObjAddr: 0x1A8, symBinAddr: 0x10004B558, symSize: 0xA8 }
  - { offset: 0xE13BE, size: 0x8, addend: 0x0, symName: __ZN12dmGameSystemL17CompGuiTypeCreateEPKN12dmGameObject22ComponentTypeCreateCtxEPNS0_13ComponentTypeE, symObjAddr: 0x9BC, symBinAddr: 0x10004B624, symSize: 0x594 }
  - { offset: 0xE1B9E, size: 0x8, addend: 0x0, symName: __ZN12dmGameSystemL18CompGuiTypeDestroyEPKN12dmGameObject22ComponentTypeCreateCtxEPNS0_13ComponentTypeE, symObjAddr: 0xF50, symBinAddr: 0x10004BBB8, symSize: 0x25C }
  - { offset: 0xE1FCD, size: 0x8, addend: 0x0, symName: __ZN12dmGameSystemL15CompGuiNewWorldERKN12dmGameObject23ComponentNewWorldParamsE, symObjAddr: 0x1464, symBinAddr: 0x10004BE14, symSize: 0x48C }
  - { offset: 0xE2652, size: 0x8, addend: 0x0, symName: __ZN12dmGameSystemL18CompGuiDeleteWorldERKN12dmGameObject26ComponentDeleteWorldParamsE, symObjAddr: 0x18F0, symBinAddr: 0x10004C2A0, symSize: 0x210 }
  - { offset: 0xE29F0, size: 0x8, addend: 0x0, symName: __ZN12dmGameSystemL13CompGuiCreateERKN12dmGameObject21ComponentCreateParamsE, symObjAddr: 0x1B00, symBinAddr: 0x10004C4B0, symSize: 0x238 }
  - { offset: 0xE2CC7, size: 0x8, addend: 0x0, symName: __ZN12dmGameSystemL14CompGuiDestroyERKN12dmGameObject22ComponentDestroyParamsE, symObjAddr: 0x1D38, symBinAddr: 0x10004C6E8, symSize: 0x130 }
  - { offset: 0xE2CD2, size: 0x8, addend: 0x0, symName: __ZN12dmGameSystemL13SetupGuiSceneEPNS_8GuiWorldEPNS_12GuiComponentEPN5dmGui5SceneEPNS_16GuiSceneResourceE, symObjAddr: 0x3D44, symBinAddr: 0x10004E598, symSize: 0x7E0 }
  - { offset: 0xE399E, size: 0x8, addend: 0x0, symName: __ZN12dmGameSystemL34CompGuiGetMaterialConstantCallbackEPvyPPN8dmRender8ConstantE, symObjAddr: 0x4524, symBinAddr: 0x10004ED78, symSize: 0x48 }
  - { offset: 0xE39C4, size: 0x8, addend: 0x0, symName: __ZN12dmGameSystemL14CompGuiDestroyERKN12dmGameObject22ComponentDestroyParamsE, symObjAddr: 0x1D38, symBinAddr: 0x10004C6E8, symSize: 0x130 }
  - { offset: 0xE3BA1, size: 0x8, addend: 0x0, symName: __ZN12dmGameSystemL11CompGuiInitERKN12dmGameObject19ComponentInitParamsE, symObjAddr: 0x1E68, symBinAddr: 0x10004C818, symSize: 0x68 }
  - { offset: 0xE3BAC, size: 0x8, addend: 0x0, symName: __ZN12dmGameSystemL11CompGuiInitERKN12dmGameObject19ComponentInitParamsE, symObjAddr: 0x1E68, symBinAddr: 0x10004C818, symSize: 0x68 }
  - { offset: 0xE3C29, size: 0x8, addend: 0x0, symName: __ZN12dmGameSystemL12CompGuiFinalERKN12dmGameObject20ComponentFinalParamsE, symObjAddr: 0x1ED0, symBinAddr: 0x10004C880, symSize: 0x50 }
  - { offset: 0xE3CA5, size: 0x8, addend: 0x0, symName: __ZN12dmGameSystemL18CompGuiAddToUpdateERKN12dmGameObject26ComponentAddToUpdateParamsE, symObjAddr: 0x1F20, symBinAddr: 0x10004C8D0, symSize: 0x28 }
  - { offset: 0xE3D69, size: 0x8, addend: 0x0, symName: __ZN12dmGameSystemL13CompGuiRenderERKN12dmGameObject22ComponentsRenderParamsE, symObjAddr: 0x2048, symBinAddr: 0x10004C9F8, symSize: 0x31C }
  - { offset: 0xE41E4, size: 0x8, addend: 0x0, symName: __ZN12dmGameSystemL16CompGuiOnMessageERKN12dmGameObject24ComponentOnMessageParamsE, symObjAddr: 0x2364, symBinAddr: 0x10004CD14, symSize: 0xA8 }
  - { offset: 0xE41EF, size: 0x8, addend: 0x0, symName: __ZN12dmGameSystemL16CompGuiOnMessageERKN12dmGameObject24ComponentOnMessageParamsE, symObjAddr: 0x2364, symBinAddr: 0x10004CD14, symSize: 0xA8 }
  - { offset: 0xE4285, size: 0x8, addend: 0x0, symName: __ZN12dmGameSystemL14CompGuiOnInputERKN12dmGameObject22ComponentOnInputParamsE, symObjAddr: 0x240C, symBinAddr: 0x10004CDBC, symSize: 0x240 }
  - { offset: 0xE4390, size: 0x8, addend: 0x0, symName: __ZN12dmGameSystemL15CompGuiOnReloadERKN12dmGameObject23ComponentOnReloadParamsE, symObjAddr: 0x264C, symBinAddr: 0x10004CFFC, symSize: 0xDC }
  - { offset: 0xE44A4, size: 0x8, addend: 0x0, symName: __ZN12dmGameSystemL18CompGuiGetPropertyERKN12dmGameObject26ComponentGetPropertyParamsERNS0_12PropertyDescE, symObjAddr: 0x2728, symBinAddr: 0x10004D0D8, symSize: 0x1D8 }
  - { offset: 0xE4628, size: 0x8, addend: 0x0, symName: __ZN12dmGameSystemL18CompGuiSetPropertyERKN12dmGameObject26ComponentSetPropertyParamsE, symObjAddr: 0x2900, symBinAddr: 0x10004D2B0, symSize: 0x2EC }
  - { offset: 0xE4982, size: 0x8, addend: 0x0, symName: __ZN12dmGameSystemL19CompGuiIterChildrenEPN12dmGameObject17SceneNodeIteratorEPNS0_9SceneNodeE, symObjAddr: 0x2BEC, symBinAddr: 0x10004D59C, symSize: 0x7C }
  - { offset: 0xE49EA, size: 0x8, addend: 0x0, symName: __ZN12dmGameSystemL21CompGuiIterPropertiesEPN12dmGameObject25SceneNodePropertyIteratorEPNS0_9SceneNodeE, symObjAddr: 0x2C68, symBinAddr: 0x10004D618, symSize: 0x44 }
  - { offset: 0xE4A35, size: 0x8, addend: 0x0, symName: __ZN12dmGameSystemL19CompGuiGetComponentERKN12dmGameObject18ComponentGetParamsE, symObjAddr: 0x2CAC, symBinAddr: 0x10004D65C, symSize: 0x8 }
  - { offset: 0xE4A3F, size: 0x8, addend: 0x0, symName: __ZN12dmGameSystemL19CompGuiGetComponentERKN12dmGameObject18ComponentGetParamsE, symObjAddr: 0x2CAC, symBinAddr: 0x10004D65C, symSize: 0x8 }
  - { offset: 0xE4A6E, size: 0x8, addend: 0x0, symName: __ZN12dmGameSystemL27GuiResourceReloadedCallbackEPK22ResourceReloadedParams, symObjAddr: 0x2E10, symBinAddr: 0x10004D664, symSize: 0x80 }
  - { offset: 0xE4B2E, size: 0x8, addend: 0x0, symName: __ZN12dmGameSystemL27FetchTextureSetAnimCallbackEyyPN5dmGui18TextureSetAnimDescE, symObjAddr: 0x2E90, symBinAddr: 0x10004D6E4, symSize: 0x124 }
  - { offset: 0xE4C5D, size: 0x8, addend: 0x0, symName: __ZN12dmGameSystemL24CreateCustomNodeCallbackEPvPN5dmGui5SceneEjj, symObjAddr: 0x2FB4, symBinAddr: 0x10004D808, symSize: 0x88 }
  - { offset: 0xE4C9E, size: 0x8, addend: 0x0, symName: __ZN12dmGameSystemL24CreateCustomNodeCallbackEPvPN5dmGui5SceneEjj, symObjAddr: 0x2FB4, symBinAddr: 0x10004D808, symSize: 0x88 }
  - { offset: 0xE4DEB, size: 0x8, addend: 0x0, symName: __ZN12dmGameSystemL25DestroyCustomNodeCallbackEPvPN5dmGui5SceneEjjS0_, symObjAddr: 0x303C, symBinAddr: 0x10004D890, symSize: 0x94 }
  - { offset: 0xE4F5A, size: 0x8, addend: 0x0, symName: __ZN12dmGameSystemL23CloneCustomNodeCallbackEPvPN5dmGui5SceneEjjS0_, symObjAddr: 0x30D0, symBinAddr: 0x10004D924, symSize: 0x90 }
  - { offset: 0xE50CC, size: 0x8, addend: 0x0, symName: __ZN12dmGameSystemL24UpdateCustomNodeCallbackEPvPN5dmGui5SceneEjjS0_f, symObjAddr: 0x3160, symBinAddr: 0x10004D9B4, symSize: 0x90 }
  - { offset: 0xE5236, size: 0x8, addend: 0x0, symName: __ZN12dmGameSystemL22GetSceneResourceByHashEPvPN5dmGui5SceneEyy, symObjAddr: 0x31F0, symBinAddr: 0x10004DA44, symSize: 0x15C }
  - { offset: 0xE5467, size: 0x8, addend: 0x0, symName: __ZN12dmGameSystemL27GetMaterialPropertyCallbackEPvPN5dmGui5SceneEjyRN12dmGameObject12PropertyDescEPKNS4_15PropertyOptionsE, symObjAddr: 0x334C, symBinAddr: 0x10004DBA0, symSize: 0xB0 }
  - { offset: 0xE5604, size: 0x8, addend: 0x0, symName: __ZN12dmGameSystemL27SetMaterialPropertyCallbackEPvPN5dmGui5SceneEjyRKN12dmGameObject11PropertyVarEPKNS4_15PropertyOptionsE, symObjAddr: 0x33FC, symBinAddr: 0x10004DC50, symSize: 0xAC }
  - { offset: 0xE57A3, size: 0x8, addend: 0x0, symName: __ZN12dmGameSystemL30DestroyRenderConstantsCallbackEPv, symObjAddr: 0x34A8, symBinAddr: 0x10004DCFC, symSize: 0xC }
  - { offset: 0xE57E8, size: 0x8, addend: 0x0, symName: __ZN12dmGameSystemL28CloneRenderConstantsCallbackEPv, symObjAddr: 0x34B4, symBinAddr: 0x10004DD08, symSize: 0xAC }
  - { offset: 0xE59E3, size: 0x8, addend: 0x0, symName: __ZN12dmGameSystemL22OnWindowResizeCallbackEPN5dmGui5SceneEjj, symObjAddr: 0x3560, symBinAddr: 0x10004DDB4, symSize: 0x1F0 }
  - { offset: 0xE5D59, size: 0x8, addend: 0x0, symName: __ZN12dmGameSystemL21ApplyLayoutFromScriptEPN5dmGui5SceneEy, symObjAddr: 0x3750, symBinAddr: 0x10004DFA4, symSize: 0x174 }
  - { offset: 0xE5F52, size: 0x8, addend: 0x0, symName: __ZN12dmGameSystemL27GetDisplayProfileDescForGuiEPN5dmGui5SceneEyPjS3_, symObjAddr: 0x38C4, symBinAddr: 0x10004E118, symSize: 0x64 }
  - { offset: 0xE6060, size: 0x8, addend: 0x0, symName: __ZN12dmGameSystemL26NewTextureResourceCallbackEPN5dmGui5SceneEyjjN7dmImage4TypeENS3_15CompressionTypeEPKvj, symObjAddr: 0x3928, symBinAddr: 0x10004E17C, symSize: 0x1D4 }
  - { offset: 0xE63EB, size: 0x8, addend: 0x0, symName: __ZN12dmGameSystemL29DeleteTextureResourceCallbackEPN5dmGui5SceneEyy, symObjAddr: 0x3AFC, symBinAddr: 0x10004E350, symSize: 0xB4 }
  - { offset: 0xE653B, size: 0x8, addend: 0x0, symName: __ZN12dmGameSystemL26SetTextureResourceCallbackEPN5dmGui5SceneEyjjN7dmImage4TypeENS3_15CompressionTypeEPKvj, symObjAddr: 0x3BB0, symBinAddr: 0x10004E404, symSize: 0x194 }
  - { offset: 0xE682A, size: 0x8, addend: 0x0, symName: __ZN12dmGameSystemL7SetNodeEPN5dmGui5SceneEjPKN8dmGuiDDF8NodeDescE, symObjAddr: 0x45FC, symBinAddr: 0x10004EE50, symSize: 0x658 }
  - { offset: 0xE7231, size: 0x8, addend: 0x0, symName: __ZN12dmGameSystemL34CompGuiGetMaterialConstantCallbackEPvyPPN8dmRender8ConstantE, symObjAddr: 0x4524, symBinAddr: 0x10004ED78, symSize: 0x48 }
  - { offset: 0xE72F1, size: 0x8, addend: 0x0, symName: __ZN12dmGameSystemL34CompGuiSetMaterialConstantCallbackEPvyiPjRKN12dmGameObject11PropertyVarE, symObjAddr: 0x456C, symBinAddr: 0x10004EDC0, symSize: 0x8C }
  - { offset: 0xE7415, size: 0x8, addend: 0x0, symName: __ZN12dmGameSystemL15SetNodeCallbackEPN5dmGui5SceneEjPKv, symObjAddr: 0x45F8, symBinAddr: 0x10004EE4C, symSize: 0x4 }
  - { offset: 0xE745D, size: 0x8, addend: 0x0, symName: __ZN12dmGameSystemL15SetNodeCallbackEPN5dmGui5SceneEjPKv, symObjAddr: 0x45F8, symBinAddr: 0x10004EE4C, symSize: 0x4 }
  - { offset: 0xE762D, size: 0x8, addend: 0x0, symName: __ZN12dmGameSystemL15RenderTextNodesEPN5dmGui5SceneEPKNS0_11RenderEntryEPKN10Vectormath3Aos7Matrix4EPKfPPKNS0_12StencilScopeEPNS_19CompRenderConstantsEjPNS_16RenderGuiContextE, symObjAddr: 0x58A8, symBinAddr: 0x10004FE14, symSize: 0x3D0 }
  - { offset: 0xE7C7A, size: 0x8, addend: 0x0, symName: __ZN12dmGameSystemL14RenderPieNodesEPN5dmGui5SceneEPKNS0_11RenderEntryEPKN10Vectormath3Aos7Matrix4EPKfPPKNS0_12StencilScopeEPNS_19CompRenderConstantsEjPNS_16RenderGuiContextE, symObjAddr: 0x6DC8, symBinAddr: 0x100051334, symSize: 0xA84 }
  - { offset: 0xE8951, size: 0x8, addend: 0x0, symName: __ZN12dmGameSystemL21RenderParticlefxNodesEPN5dmGui5SceneEPKNS0_11RenderEntryEPKN10Vectormath3Aos7Matrix4EPKfPPKNS0_12StencilScopeEPNS_19CompRenderConstantsEjPNS_16RenderGuiContextE, symObjAddr: 0x784C, symBinAddr: 0x100051DB8, symSize: 0x5A8 }
  - { offset: 0xE895B, size: 0x8, addend: 0x0, symName: __ZN12dmGameSystemL21RenderParticlefxNodesEPN5dmGui5SceneEPKNS0_11RenderEntryEPKN10Vectormath3Aos7Matrix4EPKfPPKNS0_12StencilScopeEPNS_19CompRenderConstantsEjPNS_16RenderGuiContextE, symObjAddr: 0x784C, symBinAddr: 0x100051DB8, symSize: 0x5A8 }
  - { offset: 0xE9298, size: 0x8, addend: 0x0, symName: __ZN12dmGameSystemL17RenderCustomNodesEPN5dmGui5SceneEjPKNS_15CompGuiNodeTypeEPKNS0_11RenderEntryEPKN10Vectormath3Aos7Matrix4EPKfPPKNS0_12StencilScopeEPNS_19CompRenderConstantsEjPNS_16RenderGuiContextE, symObjAddr: 0x7DF4, symBinAddr: 0x100052360, symSize: 0x77C }
  - { offset: 0xE92A2, size: 0x8, addend: 0x0, symName: __ZN12dmGameSystemL17RenderCustomNodesEPN5dmGui5SceneEjPKNS_15CompGuiNodeTypeEPKNS0_11RenderEntryEPKN10Vectormath3Aos7Matrix4EPKfPPKNS0_12StencilScopeEPNS_19CompRenderConstantsEjPNS_16RenderGuiContextE, symObjAddr: 0x7DF4, symBinAddr: 0x100052360, symSize: 0x77C }
  - { offset: 0xE9B48, size: 0x8, addend: 0x0, symName: __ZN12dmGameSystemL18RenderListDispatchERKN8dmRender24RenderListDispatchParamsE, symObjAddr: 0x5844, symBinAddr: 0x10004FDB0, symSize: 0x64 }
  - { offset: 0xE9E17, size: 0x8, addend: 0x0, symName: __ZN12dmGameSystemL18CompGuiIterGetNextEPN12dmGameObject17SceneNodeIteratorE, symObjAddr: 0x87A0, symBinAddr: 0x100052B58, symSize: 0x64 }
  - { offset: 0xE9EB6, size: 0x8, addend: 0x0, symName: __ZN12dmGameSystemL28CompGuiIterPropertiesGetNextEPN12dmGameObject25SceneNodePropertyIteratorE, symObjAddr: 0x8804, symBinAddr: 0x100052BBC, symSize: 0x2BC }
  - { offset: 0xECC29, size: 0x8, addend: 0x0, symName: _ComponentTypeGui3545, symObjAddr: 0x773F0, symBinAddr: 0x10036A430, symSize: 0x0 }
  - { offset: 0xF21B9, size: 0x8, addend: 0x0, symName: __ZN13dmHashTable64IPFN12dmGameObject14PropertyResultEPN5dmGui5SceneERKNS0_26ComponentSetPropertyParamsEEED1Ev, symObjAddr: 0x30, symBinAddr: 0x10004B3E0, symSize: 0x50 }
  - { offset: 0xF21E9, size: 0x8, addend: 0x0, symName: __ZN13dmHashTable64IPFN12dmGameObject14PropertyResultEPN5dmGui5SceneERKNS0_26ComponentSetPropertyParamsEEED1Ev, symObjAddr: 0x30, symBinAddr: 0x10004B3E0, symSize: 0x50 }
  - { offset: 0xF2207, size: 0x8, addend: 0x0, symName: __ZN13dmHashTable64IPFN12dmGameObject14PropertyResultEPN5dmGui5SceneERKNS0_26ComponentSetPropertyParamsEEED1Ev, symObjAddr: 0x30, symBinAddr: 0x10004B3E0, symSize: 0x50 }
  - { offset: 0xF228F, size: 0x8, addend: 0x0, symName: __ZN13dmHashTable64IPFN12dmGameObject14PropertyResultEPN5dmGui5SceneERKNS0_26ComponentGetPropertyParamsERNS0_12PropertyDescEEED1Ev, symObjAddr: 0x80, symBinAddr: 0x10004B430, symSize: 0x50 }
  - { offset: 0xF22BF, size: 0x8, addend: 0x0, symName: __ZN13dmHashTable64IPFN12dmGameObject14PropertyResultEPN5dmGui5SceneERKNS0_26ComponentGetPropertyParamsERNS0_12PropertyDescEEED1Ev, symObjAddr: 0x80, symBinAddr: 0x10004B430, symSize: 0x50 }
  - { offset: 0xF22DD, size: 0x8, addend: 0x0, symName: __ZN13dmHashTable64IPFN12dmGameObject14PropertyResultEPN5dmGui5SceneERKNS0_26ComponentGetPropertyParamsERNS0_12PropertyDescEEED1Ev, symObjAddr: 0x80, symBinAddr: 0x10004B430, symSize: 0x50 }
  - { offset: 0xF2803, size: 0x8, addend: 0x0, symName: __ZN12dmGameSystemL15CompGuiNewWorldERKN12dmGameObject23ComponentNewWorldParamsE, symObjAddr: 0x1464, symBinAddr: 0x10004BE14, symSize: 0x48C }
  - { offset: 0xF2A74, size: 0x8, addend: 0x0, symName: _ComponentTypeGui, symObjAddr: 0x998, symBinAddr: 0x10004B600, symSize: 0x24 }
  - { offset: 0xF2EB6, size: 0x8, addend: 0x0, symName: __ZN12dmGameSystemL27GuiResourceReloadedCallbackEPK22ResourceReloadedParams, symObjAddr: 0x2E10, symBinAddr: 0x10004D664, symSize: 0x80 }
  - { offset: 0xF2F93, size: 0x8, addend: 0x0, symName: __ZN11dmHashTableIjPN12dmGameSystem15CompGuiNodeTypeEE11SetCapacityEjj, symObjAddr: 0x8BFC, symBinAddr: 0x100052E78, symSize: 0x15C }
  - { offset: 0xF2F9E, size: 0x8, addend: 0x0, symName: __ZN11dmHashTableIjPN12dmGameSystem15CompGuiNodeTypeEE3PutEjRKS2_, symObjAddr: 0x8D58, symBinAddr: 0x100052FD4, symSize: 0x140 }
  - { offset: 0xF30F9, size: 0x8, addend: 0x0, symName: __ZN11dmHashTableIjPN12dmGameSystem15CompGuiNodeTypeEE11SetCapacityEjj, symObjAddr: 0x8BFC, symBinAddr: 0x100052E78, symSize: 0x15C }
  - { offset: 0xF32C4, size: 0x8, addend: 0x0, symName: __ZN11dmHashTableIjPN12dmGameSystem15CompGuiNodeTypeEE3PutEjRKS2_, symObjAddr: 0x8D58, symBinAddr: 0x100052FD4, symSize: 0x140 }
  - { offset: 0xF3E4E, size: 0x8, addend: 0x0, symName: __ZN12dmGameSystemL13CompGuiCreateERKN12dmGameObject21ComponentCreateParamsE.cold.2, symObjAddr: 0x92B8, symBinAddr: 0x100250720, symSize: 0x28 }
  - { offset: 0xF422C, size: 0x8, addend: 0x0, symName: __ZN7dmArrayIPvE14OffsetCapacityEi, symObjAddr: 0x8724, symBinAddr: 0x100052ADC, symSize: 0x3C }
  - { offset: 0xF42AE, size: 0x8, addend: 0x0, symName: __ZN7dmArrayIPvE4PushERKS0_, symObjAddr: 0x8760, symBinAddr: 0x100052B18, symSize: 0x40 }
  - { offset: 0xF42B9, size: 0x8, addend: 0x0, symName: __ZN7dmArrayIPvE4PushERKS0_, symObjAddr: 0x8760, symBinAddr: 0x100052B18, symSize: 0x40 }
  - { offset: 0xF42F4, size: 0x8, addend: 0x0, symName: __ZN7dmArrayIPvE4PushERKS0_, symObjAddr: 0x8760, symBinAddr: 0x100052B18, symSize: 0x40 }
  - { offset: 0xF432E, size: 0x8, addend: 0x0, symName: __ZN12dmGameSystemL18CompGuiIterGetNextEPN12dmGameObject17SceneNodeIteratorE, symObjAddr: 0x87A0, symBinAddr: 0x100052B58, symSize: 0x64 }
  - { offset: 0xF4339, size: 0x8, addend: 0x0, symName: __ZN12dmGameSystemL21CompGuiIterPropertiesEPN12dmGameObject25SceneNodePropertyIteratorEPNS0_9SceneNodeE.cold.2, symObjAddr: 0x93E8, symBinAddr: 0x100250770, symSize: 0x28 }
  - { offset: 0xF4351, size: 0x8, addend: 0x0, symName: __ZN12dmGameSystemL21CompGuiIterPropertiesEPN12dmGameObject25SceneNodePropertyIteratorEPNS0_9SceneNodeE.cold.1, symObjAddr: 0x93C0, symBinAddr: 0x100250748, symSize: 0x28 }
  - { offset: 0xF450C, size: 0x8, addend: 0x0, symName: __ZN12dmGameSystemL27FetchTextureSetAnimCallbackEyyPN5dmGui18TextureSetAnimDescE.cold.1, symObjAddr: 0x94A0, symBinAddr: 0x100250798, symSize: 0x28 }
  - { offset: 0xF45CE, size: 0x8, addend: 0x0, symName: __ZN12dmGameSystemL24CreateCustomNodeCallbackEPvPN5dmGui5SceneEjj.cold.1, symObjAddr: 0x94C8, symBinAddr: 0x1002507C0, symSize: 0x34 }
  - { offset: 0xF488E, size: 0x8, addend: 0x0, symName: __ZN12dmGameSystemL26NewTextureResourceCallbackEPN5dmGui5SceneEyjjN7dmImage4TypeENS3_15CompressionTypeEPKvj.cold.1, symObjAddr: 0x95BC, symBinAddr: 0x1002507F4, symSize: 0x28 }
  - { offset: 0xF4BEE, size: 0x8, addend: 0x0, symName: __ZN12dmGameSystemL13SetupGuiSceneEPNS_8GuiWorldEPNS_12GuiComponentEPN5dmGui5SceneEPNS_16GuiSceneResourceE.cold.1, symObjAddr: 0x960C, symBinAddr: 0x10025081C, symSize: 0x28 }
  - { offset: 0xF4C31, size: 0x8, addend: 0x0, symName: __ZN12dmGameSystemL13SetupGuiSceneEPNS_8GuiWorldEPNS_12GuiComponentEPN5dmGui5SceneEPNS_16GuiSceneResourceE.cold.3, symObjAddr: 0x9658, symBinAddr: 0x100250844, symSize: 0x28 }
  - { offset: 0xF4C74, size: 0x8, addend: 0x0, symName: __ZN12dmGameSystemL13SetupGuiSceneEPNS_8GuiWorldEPNS_12GuiComponentEPN5dmGui5SceneEPNS_16GuiSceneResourceE.cold.5, symObjAddr: 0x96A4, symBinAddr: 0x10025086C, symSize: 0x28 }
  - { offset: 0xF4CA2, size: 0x8, addend: 0x0, symName: __ZN12dmGameSystemL13SetupGuiSceneEPNS_8GuiWorldEPNS_12GuiComponentEPN5dmGui5SceneEPNS_16GuiSceneResourceE.cold.6, symObjAddr: 0x96CC, symBinAddr: 0x100250894, symSize: 0x28 }
  - { offset: 0xF4CBA, size: 0x8, addend: 0x0, symName: __ZN12dmGameSystemL13SetupGuiSceneEPNS_8GuiWorldEPNS_12GuiComponentEPN5dmGui5SceneEPNS_16GuiSceneResourceE.cold.7, symObjAddr: 0x96F4, symBinAddr: 0x1002508BC, symSize: 0x28 }
  - { offset: 0xF4CE8, size: 0x8, addend: 0x0, symName: __ZN12dmGameSystemL13SetupGuiSceneEPNS_8GuiWorldEPNS_12GuiComponentEPN5dmGui5SceneEPNS_16GuiSceneResourceE.cold.9, symObjAddr: 0x9740, symBinAddr: 0x100250908, symSize: 0x28 }
  - { offset: 0xF4D16, size: 0x8, addend: 0x0, symName: __ZN12dmGameSystemL13SetupGuiSceneEPNS_8GuiWorldEPNS_12GuiComponentEPN5dmGui5SceneEPNS_16GuiSceneResourceE.cold.8, symObjAddr: 0x971C, symBinAddr: 0x1002508E4, symSize: 0x24 }
  - { offset: 0xF50D5, size: 0x8, addend: 0x0, symName: __ZN12dmGameSystemL11RenderNodesEPN5dmGui5SceneEPKNS0_11RenderEntryEPKN10Vectormath3Aos7Matrix4EPKfPPKNS0_12StencilScopeEjPv.cold.1, symObjAddr: 0x9830, symBinAddr: 0x100250930, symSize: 0x24 }
  - { offset: 0xF517C, size: 0x8, addend: 0x0, symName: __ZN12dmGameSystemL15RenderTextNodesEPN5dmGui5SceneEPKNS0_11RenderEntryEPKN10Vectormath3Aos7Matrix4EPKfPPKNS0_12StencilScopeEPNS_19CompRenderConstantsEjPNS_16RenderGuiContextE.cold.1, symObjAddr: 0x9878, symBinAddr: 0x100250954, symSize: 0x28 }
  - { offset: 0xF5446, size: 0x8, addend: 0x0, symName: __ZN12dmGameSystemL14RenderBoxNodesEPN5dmGui5SceneEPKNS0_11RenderEntryEPKN10Vectormath3Aos7Matrix4EPKfPPKNS0_12StencilScopeEPNS_19CompRenderConstantsEjPNS_16RenderGuiContextE.cold.4, symObjAddr: 0x992C, symBinAddr: 0x1002509E4, symSize: 0x24 }
  - { offset: 0xF5508, size: 0x8, addend: 0x0, symName: __ZN12dmGameSystemL14RenderBoxNodesEPN5dmGui5SceneEPKNS0_11RenderEntryEPKN10Vectormath3Aos7Matrix4EPKfPPKNS0_12StencilScopeEPNS_19CompRenderConstantsEjPNS_16RenderGuiContextE.cold.1, symObjAddr: 0x98A0, symBinAddr: 0x10025097C, symSize: 0x28 }
  - { offset: 0xF554A, size: 0x8, addend: 0x0, symName: __ZN12dmGameSystemL14RenderBoxNodesEPN5dmGui5SceneEPKNS0_11RenderEntryEPKN10Vectormath3Aos7Matrix4EPKfPPKNS0_12StencilScopeEPNS_19CompRenderConstantsEjPNS_16RenderGuiContextE.cold.20, symObjAddr: 0x9B6C, symBinAddr: 0x100250A08, symSize: 0x28 }
  - { offset: 0xF55AC, size: 0x8, addend: 0x0, symName: __ZN12dmGameSystemL14RenderBoxNodesEPN5dmGui5SceneEPKNS0_11RenderEntryEPKN10Vectormath3Aos7Matrix4EPKfPPKNS0_12StencilScopeEPNS_19CompRenderConstantsEjPNS_16RenderGuiContextE.cold.2, symObjAddr: 0x98C8, symBinAddr: 0x1002509A4, symSize: 0x40 }
  - { offset: 0xF562E, size: 0x8, addend: 0x0, symName: __ZN12dmGameSystemL14RenderPieNodesEPN5dmGui5SceneEPKNS0_11RenderEntryEPKN10Vectormath3Aos7Matrix4EPKfPPKNS0_12StencilScopeEPNS_19CompRenderConstantsEjPNS_16RenderGuiContextE.cold.10, symObjAddr: 0x9D40, symBinAddr: 0x100250A58, symSize: 0x28 }
  - { offset: 0xF565B, size: 0x8, addend: 0x0, symName: __ZN12dmGameSystemL14RenderPieNodesEPN5dmGui5SceneEPKNS0_11RenderEntryEPKN10Vectormath3Aos7Matrix4EPKfPPKNS0_12StencilScopeEPNS_19CompRenderConstantsEjPNS_16RenderGuiContextE.cold.1, symObjAddr: 0x9BDC, symBinAddr: 0x100250A30, symSize: 0x28 }
  - { offset: 0xF5B75, size: 0x8, addend: 0x0, symName: __ZN12dmGameSystemL21RenderParticlefxNodesEPN5dmGui5SceneEPKNS0_11RenderEntryEPKN10Vectormath3Aos7Matrix4EPKfPPKNS0_12StencilScopeEPNS_19CompRenderConstantsEjPNS_16RenderGuiContextE.cold.1, symObjAddr: 0x9DB0, symBinAddr: 0x100250A80, symSize: 0x28 }
  - { offset: 0xF5D00, size: 0x8, addend: 0x0, symName: __ZN12dmGameSystemL17RenderCustomNodesEPN5dmGui5SceneEjPKNS_15CompGuiNodeTypeEPKNS0_11RenderEntryEPKN10Vectormath3Aos7Matrix4EPKfPPKNS0_12StencilScopeEPNS_19CompRenderConstantsEjPNS_16RenderGuiContextE.cold.1, symObjAddr: 0x9EF0, symBinAddr: 0x100250AA8, symSize: 0x28 }
  - { offset: 0xF5D18, size: 0x8, addend: 0x0, symName: __ZN12dmGameSystemL17RenderCustomNodesEPN5dmGui5SceneEjPKNS_15CompGuiNodeTypeEPKNS0_11RenderEntryEPKN10Vectormath3Aos7Matrix4EPKfPPKNS0_12StencilScopeEPNS_19CompRenderConstantsEjPNS_16RenderGuiContextE.cold.8, symObjAddr: 0xA00C, symBinAddr: 0x100250AD0, symSize: 0x28 }
  - { offset: 0xF6370, size: 0x8, addend: 0x0, symName: __GLOBAL__sub_I_comp_gui.cpp, symObjAddr: 0xA360, symBinAddr: 0x10005313C, symSize: 0xE4 }
  - { offset: 0xF6521, size: 0x8, addend: 0x0, symName: __GLOBAL__sub_I_comp_gui.cpp.cold.1, symObjAddr: 0xA444, symBinAddr: 0x100250AF8, symSize: 0x5C }
  - { offset: 0xF6563, size: 0x8, addend: 0x0, symName: _OUTLINED_FUNCTION_2, symObjAddr: 0xA1AC, symBinAddr: 0x100053114, symSize: 0x8 }
  - { offset: 0xF657B, size: 0x8, addend: 0x0, symName: _OUTLINED_FUNCTION_5, symObjAddr: 0xA1C4, symBinAddr: 0x10005311C, symSize: 0x8 }
  - { offset: 0xF6593, size: 0x8, addend: 0x0, symName: _OUTLINED_FUNCTION_7, symObjAddr: 0xA1D4, symBinAddr: 0x100053124, symSize: 0x8 }
  - { offset: 0xF65AB, size: 0x8, addend: 0x0, symName: _OUTLINED_FUNCTION_13, symObjAddr: 0xA204, symBinAddr: 0x10005312C, symSize: 0x8 }
  - { offset: 0xF65C3, size: 0x8, addend: 0x0, symName: _OUTLINED_FUNCTION_14, symObjAddr: 0xA20C, symBinAddr: 0x100053134, symSize: 0x8 }
  - { offset: 0xF6895, size: 0x8, addend: 0x0, symName: __ZL17rmtp_Components_p, symObjAddr: 0x2CA40, symBinAddr: 0x100358660, symSize: 0x0 }
  - { offset: 0xF68D2, size: 0x8, addend: 0x0, symName: __ZN12dmGameSystemL16LABEL_PROP_SCALEE, symObjAddr: 0x2CA60, symBinAddr: 0x100358680, symSize: 0x0 }
  - { offset: 0xF6968, size: 0x8, addend: 0x0, symName: __ZN12dmGameSystemL15LABEL_PROP_SIZEE, symObjAddr: 0x2CAA0, symBinAddr: 0x1003586C0, symSize: 0x0 }
  - { offset: 0xF6981, size: 0x8, addend: 0x0, symName: __ZN12dmGameSystemL16LABEL_PROP_COLORE, symObjAddr: 0x2CAE0, symBinAddr: 0x100358700, symSize: 0x0 }
  - { offset: 0xF6A17, size: 0x8, addend: 0x0, symName: __ZN12dmGameSystemL18LABEL_PROP_OUTLINEE, symObjAddr: 0x2CB20, symBinAddr: 0x100358740, symSize: 0x0 }
  - { offset: 0xF6A30, size: 0x8, addend: 0x0, symName: __ZN12dmGameSystemL17LABEL_PROP_SHADOWE, symObjAddr: 0x2CB60, symBinAddr: 0x100358780, symSize: 0x0 }
  - { offset: 0xF6A49, size: 0x8, addend: 0x0, symName: __ZN12dmGameSystemL18LABEL_PROP_LEADINGE, symObjAddr: 0x2CB90, symBinAddr: 0x1003587B0, symSize: 0x0 }
  - { offset: 0xF6A62, size: 0x8, addend: 0x0, symName: __ZN12dmGameSystemL19LABEL_PROP_TRACKINGE, symObjAddr: 0x2CB98, symBinAddr: 0x1003587B8, symSize: 0x0 }
  - { offset: 0xF6A7B, size: 0x8, addend: 0x0, symName: __ZN12dmGameSystemL21LABEL_PROP_LINE_BREAKE, symObjAddr: 0x2CBA0, symBinAddr: 0x1003587C0, symSize: 0x0 }
  - { offset: 0xF6A88, size: 0x8, addend: 0x0, symName: __ZN12dmGameSystem19CompLabelLateUpdateERKN12dmGameObject22ComponentsUpdateParamsERNS0_22ComponentsUpdateResultE, symObjAddr: 0xAC8, symBinAddr: 0x100053C54, symSize: 0x60 }
  - { offset: 0xF6AB3, size: 0x8, addend: 0x0, symName: __ZZN12dmGameSystem19CompLabelLateUpdateERKN12dmGameObject22ComponentsUpdateParamsERNS0_22ComponentsUpdateResultEE9_scope362, symObjAddr: 0x2CBA8, symBinAddr: 0x1003587C8, symSize: 0x0 }
  - { offset: 0xF6BD1, size: 0x8, addend: 0x0, symName: __ZN12dmGameSystem15CompLabelRenderERKN12dmGameObject22ComponentsRenderParamsE, symObjAddr: 0xD04, symBinAddr: 0x100053E90, symSize: 0x2DC }
  - { offset: 0xF6BFC, size: 0x8, addend: 0x0, symName: __ZZN12dmGameSystem15CompLabelRenderERKN12dmGameObject22ComponentsRenderParamsEE9_scope461, symObjAddr: 0x2CBB0, symBinAddr: 0x1003587D0, symSize: 0x0 }
  - { offset: 0xF711E, size: 0x8, addend: 0x0, symName: __ZN12dmGameSystemL16UpdateTransformsEPNS_10LabelWorldEb, symObjAddr: 0xB28, symBinAddr: 0x100053CB4, symSize: 0x1DC }
  - { offset: 0xF7145, size: 0x8, addend: 0x0, symName: __ZZN12dmGameSystemL16UpdateTransformsEPNS_10LabelWorldEbE9_scope317, symObjAddr: 0x2CBB8, symBinAddr: 0x1003587D8, symSize: 0x0 }
  - { offset: 0xF76B9, size: 0x8, addend: 0x0, symName: __ZN12dmGameSystem15CompLabelRenderERKN12dmGameObject22ComponentsRenderParamsE, symObjAddr: 0xD04, symBinAddr: 0x100053E90, symSize: 0x2DC }
  - { offset: 0xF792B, size: 0x8, addend: 0x0, symName: __ZN12dmGameSystem17CompLabelNewWorldERKN12dmGameObject23ComponentNewWorldParamsE, symObjAddr: 0x30, symBinAddr: 0x100053220, symSize: 0x84 }
  - { offset: 0xF7A86, size: 0x8, addend: 0x0, symName: __ZN12dmGameSystem20CompLabelDeleteWorldERKN12dmGameObject26ComponentDeleteWorldParamsE, symObjAddr: 0x198, symBinAddr: 0x100053388, symSize: 0xE0 }
  - { offset: 0xF7C94, size: 0x8, addend: 0x0, symName: __ZN12dmGameSystem6ReHashEPNS_14LabelComponentE, symObjAddr: 0x278, symBinAddr: 0x100053468, symSize: 0xE8 }
  - { offset: 0xF7D14, size: 0x8, addend: 0x0, symName: __ZN12dmGameSystem6ReHashEPNS_14LabelComponentE, symObjAddr: 0x278, symBinAddr: 0x100053468, symSize: 0xE8 }
  - { offset: 0xF7F2D, size: 0x8, addend: 0x0, symName: __ZN12dmGameSystem15CompLabelCreateERKN12dmGameObject21ComponentCreateParamsE, symObjAddr: 0x3C4, symBinAddr: 0x100053550, symSize: 0x1AC }
  - { offset: 0xF820E, size: 0x8, addend: 0x0, symName: __ZN12dmObjectPoolIN12dmGameSystem14LabelComponentEE5AllocEv, symObjAddr: 0x570, symBinAddr: 0x1000536FC, symSize: 0xF4 }
  - { offset: 0xF8233, size: 0x8, addend: 0x0, symName: __ZN12dmGameSystem16CompLabelDestroyERKN12dmGameObject22ComponentDestroyParamsE, symObjAddr: 0x664, symBinAddr: 0x1000537F0, symSize: 0xE4 }
  - { offset: 0xF83C5, size: 0x8, addend: 0x0, symName: __ZN12dmObjectPoolIN12dmGameSystem14LabelComponentEE4FreeEjb, symObjAddr: 0x748, symBinAddr: 0x1000538D4, symSize: 0x11C }
  - { offset: 0xF8429, size: 0x8, addend: 0x0, symName: __ZN12dmGameSystem23CompLabelLocalTransformERKN10Vectormath3Aos6Point3ERKNS1_4QuatERKNS1_7Vector3ESA_j, symObjAddr: 0x864, symBinAddr: 0x1000539F0, symSize: 0x1E0 }
  - { offset: 0xF8491, size: 0x8, addend: 0x0, symName: __ZN12dmGameSystem23CompLabelLocalTransformERKN10Vectormath3Aos6Point3ERKNS1_4QuatERKNS1_7Vector3ESA_j, symObjAddr: 0x864, symBinAddr: 0x1000539F0, symSize: 0x1E0 }
  - { offset: 0xF84AD, size: 0x8, addend: 0x0, symName: __ZN12dmGameSystem23CompLabelLocalTransformERKN10Vectormath3Aos6Point3ERKNS1_4QuatERKNS1_7Vector3ESA_j, symObjAddr: 0x864, symBinAddr: 0x1000539F0, symSize: 0x1E0 }
  - { offset: 0xF84C8, size: 0x8, addend: 0x0, symName: __ZN12dmGameSystem23CompLabelLocalTransformERKN10Vectormath3Aos6Point3ERKNS1_4QuatERKNS1_7Vector3ESA_j, symObjAddr: 0x864, symBinAddr: 0x1000539F0, symSize: 0x1E0 }
  - { offset: 0xF876A, size: 0x8, addend: 0x0, symName: __ZN12dmGameSystem20CompLabelAddToUpdateERKN12dmGameObject26ComponentAddToUpdateParamsE, symObjAddr: 0xA44, symBinAddr: 0x100053BD0, symSize: 0x7C }
  - { offset: 0xF8880, size: 0x8, addend: 0x0, symName: __ZN12dmGameSystem15CompLabelUpdateERKN12dmGameObject22ComponentsUpdateParamsERNS0_22ComponentsUpdateResultE, symObjAddr: 0xAC0, symBinAddr: 0x100053C4C, symSize: 0x8 }
  - { offset: 0xF888B, size: 0x8, addend: 0x0, symName: __ZN12dmGameSystem15CompLabelUpdateERKN12dmGameObject22ComponentsUpdateParamsERNS0_22ComponentsUpdateResultE, symObjAddr: 0xAC0, symBinAddr: 0x100053C4C, symSize: 0x8 }
  - { offset: 0xF8985, size: 0x8, addend: 0x0, symName: __ZN12dmGameSystem18CompLabelOnMessageERKN12dmGameObject24ComponentOnMessageParamsE, symObjAddr: 0xFE0, symBinAddr: 0x10005416C, symSize: 0x128 }
  - { offset: 0xF8AF5, size: 0x8, addend: 0x0, symName: __ZN12dmGameSystem17CompLabelOnReloadERKN12dmGameObject23ComponentOnReloadParamsE, symObjAddr: 0x1108, symBinAddr: 0x100054294, symSize: 0xD4 }
  - { offset: 0xF8AFF, size: 0x8, addend: 0x0, symName: __ZN12dmGameSystem17CompLabelOnReloadERKN12dmGameObject23ComponentOnReloadParamsE, symObjAddr: 0x1108, symBinAddr: 0x100054294, symSize: 0xD4 }
  - { offset: 0xF8CC2, size: 0x8, addend: 0x0, symName: __ZN12dmGameSystem21CompLabelGetComponentERKN12dmGameObject18ComponentGetParamsE, symObjAddr: 0x11DC, symBinAddr: 0x100054368, symSize: 0x64 }
  - { offset: 0xF8CCC, size: 0x8, addend: 0x0, symName: __ZN12dmGameSystem21CompLabelGetComponentERKN12dmGameObject18ComponentGetParamsE, symObjAddr: 0x11DC, symBinAddr: 0x100054368, symSize: 0x64 }
  - { offset: 0xF8DD2, size: 0x8, addend: 0x0, symName: __ZN12dmGameSystem23CompLabelGetTextMetricsEPKNS_14LabelComponentERN8dmRender11TextMetricsE, symObjAddr: 0x1240, symBinAddr: 0x1000543CC, symSize: 0x9C }
  - { offset: 0xF8DDC, size: 0x8, addend: 0x0, symName: __ZN12dmGameSystem23CompLabelGetTextMetricsEPKNS_14LabelComponentERN8dmRender11TextMetricsE, symObjAddr: 0x1240, symBinAddr: 0x1000543CC, symSize: 0x9C }
  - { offset: 0xF8EE9, size: 0x8, addend: 0x0, symName: __ZN12dmGameSystem16CompLabelGetTextEPKNS_14LabelComponentE, symObjAddr: 0x12DC, symBinAddr: 0x100054468, symSize: 0x8 }
  - { offset: 0xF8F54, size: 0x8, addend: 0x0, symName: __ZN12dmGameSystem20CompLabelGetPropertyERKN12dmGameObject26ComponentGetPropertyParamsERNS0_12PropertyDescE, symObjAddr: 0x12E4, symBinAddr: 0x100054470, symSize: 0x410 }
  - { offset: 0xF92A8, size: 0x8, addend: 0x0, symName: __ZN12dmGameSystemL28CompLabelGetConstantCallbackEPvyPPN8dmRender8ConstantE, symObjAddr: 0x16F4, symBinAddr: 0x100054880, symSize: 0x10 }
  - { offset: 0xF932F, size: 0x8, addend: 0x0, symName: __ZN12dmGameSystem20CompLabelSetPropertyERKN12dmGameObject26ComponentSetPropertyParamsE, symObjAddr: 0x1704, symBinAddr: 0x100054890, symSize: 0x370 }
  - { offset: 0xF95C1, size: 0x8, addend: 0x0, symName: __ZN12dmGameSystemL28CompLabelSetConstantCallbackEPvyiPjRKN12dmGameObject11PropertyVarE, symObjAddr: 0x1A74, symBinAddr: 0x100054C00, symSize: 0x8C }
  - { offset: 0xF9665, size: 0x8, addend: 0x0, symName: __ZN12dmGameSystemL28CompLabelSetConstantCallbackEPvyiPjRKN12dmGameObject11PropertyVarE, symObjAddr: 0x1A74, symBinAddr: 0x100054C00, symSize: 0x8C }
  - { offset: 0xF978C, size: 0x8, addend: 0x0, symName: __ZN12dmGameSystem23CompLabelIterPropertiesEPN12dmGameObject25SceneNodePropertyIteratorEPNS0_9SceneNodeE, symObjAddr: 0x1B00, symBinAddr: 0x100054C8C, symSize: 0x40 }
  - { offset: 0xF97D7, size: 0x8, addend: 0x0, symName: __ZN12dmGameSystemL30CompLabelIterPropertiesGetNextEPN12dmGameObject25SceneNodePropertyIteratorE, symObjAddr: 0x1B40, symBinAddr: 0x100054CCC, symSize: 0x264 }
  - { offset: 0xF9800, size: 0x8, addend: 0x0, symName: __ZN12dmGameSystemL30CompLabelIterPropertiesGetNextEPN12dmGameObject25SceneNodePropertyIteratorE, symObjAddr: 0x1B40, symBinAddr: 0x100054CCC, symSize: 0x264 }
  - { offset: 0xFB007, size: 0x8, addend: 0x0, symName: __ZN12dmObjectPoolIN12dmGameSystem14LabelComponentEE11SetCapacityEj, symObjAddr: 0xB4, symBinAddr: 0x1000532A4, symSize: 0xE4 }
  - { offset: 0xFB19B, size: 0x8, addend: 0x0, symName: __ZN12dmGameSystem20CompLabelDeleteWorldERKN12dmGameObject26ComponentDeleteWorldParamsE, symObjAddr: 0x198, symBinAddr: 0x100053388, symSize: 0xE0 }
  - { offset: 0xFB29A, size: 0x8, addend: 0x0, symName: __ZN12dmObjectPoolIN12dmGameSystem14LabelComponentEE11SetCapacityEj.cold.5, symObjAddr: 0x2140, symBinAddr: 0x100250B54, symSize: 0x28 }
  - { offset: 0xFB614, size: 0x8, addend: 0x0, symName: __ZN12dmObjectPoolIN12dmGameSystem14LabelComponentEE5AllocEv, symObjAddr: 0x570, symBinAddr: 0x1000536FC, symSize: 0xF4 }
  - { offset: 0xFB7CC, size: 0x8, addend: 0x0, symName: __ZN12dmGameSystem16CompLabelDestroyERKN12dmGameObject22ComponentDestroyParamsE, symObjAddr: 0x664, symBinAddr: 0x1000537F0, symSize: 0xE4 }
  - { offset: 0xFB956, size: 0x8, addend: 0x0, symName: __ZN12dmObjectPoolIN12dmGameSystem14LabelComponentEE4FreeEjb, symObjAddr: 0x748, symBinAddr: 0x1000538D4, symSize: 0x11C }
  - { offset: 0xFBB4F, size: 0x8, addend: 0x0, symName: __ZN12dmGameSystem23CompLabelLocalTransformERKN10Vectormath3Aos6Point3ERKNS1_4QuatERKNS1_7Vector3ESA_j, symObjAddr: 0x864, symBinAddr: 0x1000539F0, symSize: 0x1E0 }
  - { offset: 0xFBBAF, size: 0x8, addend: 0x0, symName: __ZN7dmArrayIN12dmGameSystem14LabelComponentEE9EraseSwapEj, symObjAddr: 0x1F58, symBinAddr: 0x100054F30, symSize: 0xFC }
  - { offset: 0xFBE5A, size: 0x8, addend: 0x0, symName: __ZN12dmObjectPoolIN12dmGameSystem14LabelComponentEE4FreeEjb.cold.3, symObjAddr: 0x2318, symBinAddr: 0x100250B7C, symSize: 0x28 }
  - { offset: 0xFC812, size: 0x8, addend: 0x0, symName: __ZN12dmGameSystem15CompLabelRenderERKN12dmGameObject22ComponentsRenderParamsE.cold.2, symObjAddr: 0x2418, symBinAddr: 0x100250BA4, symSize: 0x48 }
  - { offset: 0xFC9E2, size: 0x8, addend: 0x0, symName: __ZN12dmGameSystem23CompLabelIterPropertiesEPN12dmGameObject25SceneNodePropertyIteratorEPNS0_9SceneNodeE.cold.1, symObjAddr: 0x25C8, symBinAddr: 0x100250BEC, symSize: 0x28 }
  - { offset: 0xFC9FA, size: 0x8, addend: 0x0, symName: __ZN12dmGameSystem23CompLabelIterPropertiesEPN12dmGameObject25SceneNodePropertyIteratorEPNS0_9SceneNodeE.cold.2, symObjAddr: 0x25F0, symBinAddr: 0x100250C14, symSize: 0x28 }
  - { offset: 0xFD0A5, size: 0x8, addend: 0x0, symName: __GLOBAL__sub_I_comp_label.cpp, symObjAddr: 0x26C8, symBinAddr: 0x10005502C, symSize: 0x274 }
  - { offset: 0xFD5EE, size: 0x8, addend: 0x0, symName: __GLOBAL__sub_I_comp_label.cpp.cold.1, symObjAddr: 0x293C, symBinAddr: 0x100250C3C, symSize: 0x5C }
  - { offset: 0x100216, size: 0x8, addend: 0x0, symName: __ZN12dmGameSystem17CompLightNewWorldERKN12dmGameObject23ComponentNewWorldParamsE, symObjAddr: 0x0, symBinAddr: 0x1000552A0, symSize: 0x38 }
  - { offset: 0x1005D2, size: 0x8, addend: 0x0, symName: __ZN12dmGameSystem17CompLightNewWorldERKN12dmGameObject23ComponentNewWorldParamsE, symObjAddr: 0x0, symBinAddr: 0x1000552A0, symSize: 0x38 }
  - { offset: 0x100671, size: 0x8, addend: 0x0, symName: __ZN12dmGameSystem20CompLightDeleteWorldERKN12dmGameObject26ComponentDeleteWorldParamsE, symObjAddr: 0x38, symBinAddr: 0x1000552D8, symSize: 0x48 }
  - { offset: 0x100727, size: 0x8, addend: 0x0, symName: __ZN12dmGameSystem15CompLightCreateERKN12dmGameObject21ComponentCreateParamsE, symObjAddr: 0x80, symBinAddr: 0x100055320, symSize: 0xC0 }
  - { offset: 0x1008C1, size: 0x8, addend: 0x0, symName: __ZN12dmGameSystem21CompLightGetComponentERKN12dmGameObject18ComponentGetParamsE, symObjAddr: 0x140, symBinAddr: 0x1000553E0, symSize: 0x8 }
  - { offset: 0x1008CC, size: 0x8, addend: 0x0, symName: __ZN12dmGameSystem21CompLightGetComponentERKN12dmGameObject18ComponentGetParamsE, symObjAddr: 0x140, symBinAddr: 0x1000553E0, symSize: 0x8 }
  - { offset: 0x1008FA, size: 0x8, addend: 0x0, symName: __ZN12dmGameSystem16CompLightDestroyERKN12dmGameObject22ComponentDestroyParamsE, symObjAddr: 0x148, symBinAddr: 0x1000553E8, symSize: 0x78 }
  - { offset: 0x100981, size: 0x8, addend: 0x0, symName: __ZN12dmGameSystem20CompLightAddToUpdateERKN12dmGameObject26ComponentAddToUpdateParamsE, symObjAddr: 0x1C0, symBinAddr: 0x100055460, symSize: 0x1C }
  - { offset: 0x10098C, size: 0x8, addend: 0x0, symName: __ZN12dmGameSystem20CompLightAddToUpdateERKN12dmGameObject26ComponentAddToUpdateParamsE, symObjAddr: 0x1C0, symBinAddr: 0x100055460, symSize: 0x1C }
  - { offset: 0x1009C9, size: 0x8, addend: 0x0, symName: __ZN12dmGameSystem19CompLightLateUpdateERKN12dmGameObject22ComponentsUpdateParamsERNS0_22ComponentsUpdateResultE, symObjAddr: 0x1DC, symBinAddr: 0x10005547C, symSize: 0x1E0 }
  - { offset: 0x100C30, size: 0x8, addend: 0x0, symName: __ZN12dmGameSystem18CompLightOnMessageERKN12dmGameObject24ComponentOnMessageParamsE, symObjAddr: 0x3BC, symBinAddr: 0x10005565C, symSize: 0x8 }
  - { offset: 0x1012FF, size: 0x8, addend: 0x0, symName: __ZN12dmGameSystem16CompLightDestroyERKN12dmGameObject22ComponentDestroyParamsE.cold.2, symObjAddr: 0x43C, symBinAddr: 0x100250C98, symSize: 0x28 }
  - { offset: 0x10167C, size: 0x8, addend: 0x0, symName: __ZL17rmtp_Components_p, symObjAddr: 0x3F348, symBinAddr: 0x1003587F0, symSize: 0x0 }
  - { offset: 0x1016A8, size: 0x8, addend: 0x0, symName: __Z9rmtp_Meshv, symObjAddr: 0x0, symBinAddr: 0x100055664, symSize: 0x30 }
  - { offset: 0x1016C8, size: 0x8, addend: 0x0, symName: __MergedGlobals, symObjAddr: 0x3F3A0, symBinAddr: 0x100358848, symSize: 0x0 }
  - { offset: 0x1016F0, size: 0x8, addend: 0x0, symName: __ZN12dmGameSystemL13PROP_VERTICESE, symObjAddr: 0x3F350, symBinAddr: 0x1003587F8, symSize: 0x0 }
  - { offset: 0x101709, size: 0x8, addend: 0x0, symName: __ZN12dmGameSystemL9AABB_HASHE, symObjAddr: 0x3F358, symBinAddr: 0x100358800, symSize: 0x0 }
  - { offset: 0x101722, size: 0x8, addend: 0x0, symName: __ZN12dmGameSystem14CompMeshUpdateERKN12dmGameObject22ComponentsUpdateParamsERNS0_22ComponentsUpdateResultE, symObjAddr: 0x1244, symBinAddr: 0x100056848, symSize: 0x180 }
  - { offset: 0x10174D, size: 0x8, addend: 0x0, symName: __ZZN12dmGameSystem14CompMeshUpdateERKN12dmGameObject22ComponentsUpdateParamsERNS0_22ComponentsUpdateResultEE9_scope485, symObjAddr: 0x3F360, symBinAddr: 0x100358808, symSize: 0x0 }
  - { offset: 0x101A66, size: 0x8, addend: 0x0, symName: __ZN12dmGameSystem18CompMeshLateUpdateERKN12dmGameObject22ComponentsUpdateParamsERNS0_22ComponentsUpdateResultE, symObjAddr: 0x13C4, symBinAddr: 0x1000569C8, symSize: 0x154 }
  - { offset: 0x101A70, size: 0x8, addend: 0x0, symName: __ZN12dmGameSystem18CompMeshLateUpdateERKN12dmGameObject22ComponentsUpdateParamsERNS0_22ComponentsUpdateResultE, symObjAddr: 0x13C4, symBinAddr: 0x1000569C8, symSize: 0x154 }
  - { offset: 0x101A9B, size: 0x8, addend: 0x0, symName: __ZZN12dmGameSystem18CompMeshLateUpdateERKN12dmGameObject22ComponentsUpdateParamsERNS0_22ComponentsUpdateResultEE9_scope525, symObjAddr: 0x3F368, symBinAddr: 0x100358810, symSize: 0x0 }
  - { offset: 0x101F23, size: 0x8, addend: 0x0, symName: __ZN12dmGameSystem14CompMeshRenderERKN12dmGameObject22ComponentsRenderParamsE, symObjAddr: 0x1518, symBinAddr: 0x100056B1C, symSize: 0x16C }
  - { offset: 0x101F2D, size: 0x8, addend: 0x0, symName: __ZN12dmGameSystem14CompMeshRenderERKN12dmGameObject22ComponentsRenderParamsE, symObjAddr: 0x1518, symBinAddr: 0x100056B1C, symSize: 0x16C }
  - { offset: 0x101F58, size: 0x8, addend: 0x0, symName: __ZZN12dmGameSystem14CompMeshRenderERKN12dmGameObject22ComponentsRenderParamsEE9_scope892, symObjAddr: 0x3F370, symBinAddr: 0x100358818, symSize: 0x0 }
  - { offset: 0x102273, size: 0x8, addend: 0x0, symName: __ZN12dmGameSystemL18RenderListDispatchERKN8dmRender24RenderListDispatchParamsE, symObjAddr: 0x1684, symBinAddr: 0x100056C88, symSize: 0x7D0 }
  - { offset: 0x10227D, size: 0x8, addend: 0x0, symName: __ZN12dmGameSystemL24RenderListFrustumCullingERKN8dmRender26RenderListVisibilityParamsE, symObjAddr: 0x1E54, symBinAddr: 0x100057458, symSize: 0x1D8 }
  - { offset: 0x1022A4, size: 0x8, addend: 0x0, symName: __ZZN12dmGameSystemL24RenderListFrustumCullingERKN8dmRender26RenderListVisibilityParamsEE9_scope817, symObjAddr: 0x3F398, symBinAddr: 0x100358840, symSize: 0x0 }
  - { offset: 0x10292F, size: 0x8, addend: 0x0, symName: __ZN12dmGameSystem16CompMeshNewWorldERKN12dmGameObject23ComponentNewWorldParamsE, symObjAddr: 0x90, symBinAddr: 0x100055694, symSize: 0x13C }
  - { offset: 0x102BE6, size: 0x8, addend: 0x0, symName: __ZN12dmObjectPoolIPN12dmGameSystem13MeshComponentEE11SetCapacityEj, symObjAddr: 0x1CC, symBinAddr: 0x1000557D0, symSize: 0xD8 }
  - { offset: 0x102CDA, size: 0x8, addend: 0x0, symName: __ZN12dmGameSystemL24ResourceReloadedCallbackEPK22ResourceReloadedParams, symObjAddr: 0x2A4, symBinAddr: 0x1000558A8, symSize: 0x2A0 }
  - { offset: 0x102EE3, size: 0x8, addend: 0x0, symName: __ZN12dmGameSystem19CompMeshDeleteWorldERKN12dmGameObject26ComponentDeleteWorldParamsE, symObjAddr: 0x544, symBinAddr: 0x100055B48, symSize: 0x150 }
  - { offset: 0x102EED, size: 0x8, addend: 0x0, symName: __ZN12dmGameSystem19CompMeshDeleteWorldERKN12dmGameObject26ComponentDeleteWorldParamsE, symObjAddr: 0x544, symBinAddr: 0x100055B48, symSize: 0x150 }
  - { offset: 0x10313F, size: 0x8, addend: 0x0, symName: __ZN12dmGameSystem14CompMeshCreateERKN12dmGameObject21ComponentCreateParamsE, symObjAddr: 0x694, symBinAddr: 0x100055C98, symSize: 0x30C }
  - { offset: 0x103186, size: 0x8, addend: 0x0, symName: __ZN12dmGameSystem14CompMeshCreateERKN12dmGameObject21ComponentCreateParamsE, symObjAddr: 0x694, symBinAddr: 0x100055C98, symSize: 0x30C }
  - { offset: 0x103A1C, size: 0x8, addend: 0x0, symName: __ZN12dmObjectPoolIPN12dmGameSystem13MeshComponentEE5AllocEv, symObjAddr: 0x9A0, symBinAddr: 0x100055FA4, symSize: 0xDC }
  - { offset: 0x103A26, size: 0x8, addend: 0x0, symName: __ZN12dmGameSystemL18CreateVertexBufferEPNS_9MeshWorldEPNS_14BufferResourceE, symObjAddr: 0xA7C, symBinAddr: 0x100056080, symSize: 0x160 }
  - { offset: 0x103D20, size: 0x8, addend: 0x0, symName: __ZN12dmGameSystemL18UpdateVertexBufferEPNS_9MeshWorldEPNS_14BufferResourceEj, symObjAddr: 0xBDC, symBinAddr: 0x1000561E0, symSize: 0xC8 }
  - { offset: 0x103D2A, size: 0x8, addend: 0x0, symName: __ZN12dmGameSystemL18UpdateVertexBufferEPNS_9MeshWorldEPNS_14BufferResourceEj, symObjAddr: 0xBDC, symBinAddr: 0x1000561E0, symSize: 0xC8 }
  - { offset: 0x103E9E, size: 0x8, addend: 0x0, symName: __ZN12dmGameSystemL6ReHashEPNS_13MeshComponentE, symObjAddr: 0xCA4, symBinAddr: 0x1000562A8, symSize: 0x148 }
  - { offset: 0x103EA8, size: 0x8, addend: 0x0, symName: __ZN12dmGameSystemL6ReHashEPNS_13MeshComponentE, symObjAddr: 0xCA4, symBinAddr: 0x1000562A8, symSize: 0x148 }
  - { offset: 0x1042D8, size: 0x8, addend: 0x0, symName: __ZN12dmGameSystem20CompMeshGetComponentERKN12dmGameObject18ComponentGetParamsE, symObjAddr: 0xDEC, symBinAddr: 0x1000563F0, symSize: 0x54 }
  - { offset: 0x1043CE, size: 0x8, addend: 0x0, symName: __ZN12dmGameSystem15CompMeshDestroyERKN12dmGameObject22ComponentDestroyParamsE, symObjAddr: 0xE40, symBinAddr: 0x100056444, symSize: 0x190 }
  - { offset: 0x1043D8, size: 0x8, addend: 0x0, symName: __ZN12dmGameSystem15CompMeshDestroyERKN12dmGameObject22ComponentDestroyParamsE, symObjAddr: 0xE40, symBinAddr: 0x100056444, symSize: 0x190 }
  - { offset: 0x104689, size: 0x8, addend: 0x0, symName: __ZN12dmGameSystemL18DecRefVertexBufferEPNS_9MeshWorldEy, symObjAddr: 0xFD0, symBinAddr: 0x1000565D4, symSize: 0x100 }
  - { offset: 0x104693, size: 0x8, addend: 0x0, symName: __ZN12dmGameSystemL18DecRefVertexBufferEPNS_9MeshWorldEy, symObjAddr: 0xFD0, symBinAddr: 0x1000565D4, symSize: 0x100 }
  - { offset: 0x104843, size: 0x8, addend: 0x0, symName: __ZN12dmObjectPoolIPN12dmGameSystem13MeshComponentEE4FreeEjb, symObjAddr: 0x10D0, symBinAddr: 0x1000566D4, symSize: 0x108 }
  - { offset: 0x104881, size: 0x8, addend: 0x0, symName: __ZN12dmGameSystem19CompMeshAddToUpdateERKN12dmGameObject26ComponentAddToUpdateParamsE, symObjAddr: 0x11D8, symBinAddr: 0x1000567DC, symSize: 0x6C }
  - { offset: 0x104997, size: 0x8, addend: 0x0, symName: __ZN12dmGameSystem14CompMeshUpdateERKN12dmGameObject22ComponentsUpdateParamsERNS0_22ComponentsUpdateResultE, symObjAddr: 0x1244, symBinAddr: 0x100056848, symSize: 0x180 }
  - { offset: 0x104D0C, size: 0x8, addend: 0x0, symName: __ZN12dmGameSystemL18RenderListDispatchERKN8dmRender24RenderListDispatchParamsE, symObjAddr: 0x1684, symBinAddr: 0x100056C88, symSize: 0x7D0 }
  - { offset: 0x105D35, size: 0x8, addend: 0x0, symName: __ZN12dmGameSystemL24RenderListFrustumCullingERKN8dmRender26RenderListVisibilityParamsE, symObjAddr: 0x1E54, symBinAddr: 0x100057458, symSize: 0x1D8 }
  - { offset: 0x105D40, size: 0x8, addend: 0x0, symName: __ZN12dmGameSystemL16FillRenderObjectERN8dmRender12RenderObjectERKN10dmGraphics13PrimitiveTypeERKPNS0_8MaterialEPPKNS_15TextureResourceESE_RKPNS3_17VertexDeclarationERKmjjRKN10Vectormath3Aos7Matrix4EPNS_19CompRenderConstantsE, symObjAddr: 0x3A9C, symBinAddr: 0x100058DC4, symSize: 0x190 }
  - { offset: 0x105EF8, size: 0x8, addend: 0x0, symName: __ZN12dmGameSystemL18FillAndApplyStreamEPKNS_14BufferResourceEbRKN10Vectormath3Aos7Matrix4EyN11dmBufferDDF9ValueTypeEPvSA_, symObjAddr: 0x2FB4, symBinAddr: 0x1000582DC, symSize: 0xAE8 }
  - { offset: 0x106AC3, size: 0x8, addend: 0x0, symName: __ZN12dmGameSystem17CompMeshOnMessageERKN12dmGameObject24ComponentOnMessageParamsE, symObjAddr: 0x202C, symBinAddr: 0x100057630, symSize: 0x1F8 }
  - { offset: 0x106D53, size: 0x8, addend: 0x0, symName: __ZN12dmGameSystemL27CompMeshSetConstantCallbackEPvyiPjRKN12dmGameObject11PropertyVarE, symObjAddr: 0x2224, symBinAddr: 0x100057828, symSize: 0x8C }
  - { offset: 0x106E7A, size: 0x8, addend: 0x0, symName: __ZN12dmGameSystem19CompMeshGetPropertyERKN12dmGameObject26ComponentGetPropertyParamsERNS0_12PropertyDescE, symObjAddr: 0x2320, symBinAddr: 0x1000578B4, symSize: 0x208 }
  - { offset: 0x10708D, size: 0x8, addend: 0x0, symName: __ZN12dmGameSystemL27CompMeshGetConstantCallbackEPvyPPN8dmRender8ConstantE, symObjAddr: 0x2528, symBinAddr: 0x100057ABC, symSize: 0x10 }
  - { offset: 0x1070E9, size: 0x8, addend: 0x0, symName: __ZN12dmGameSystemL27CompMeshGetConstantCallbackEPvyPPN8dmRender8ConstantE, symObjAddr: 0x2528, symBinAddr: 0x100057ABC, symSize: 0x10 }
  - { offset: 0x107170, size: 0x8, addend: 0x0, symName: __ZN12dmGameSystem19CompMeshSetPropertyERKN12dmGameObject26ComponentSetPropertyParamsE, symObjAddr: 0x2538, symBinAddr: 0x100057ACC, symSize: 0x3E0 }
  - { offset: 0x10769B, size: 0x8, addend: 0x0, symName: __ZN12dmGameSystem22CompMeshIterPropertiesEPN12dmGameObject25SceneNodePropertyIteratorEPNS0_9SceneNodeE, symObjAddr: 0x2918, symBinAddr: 0x100057EAC, symSize: 0x40 }
  - { offset: 0x1076E3, size: 0x8, addend: 0x0, symName: __ZN12dmGameSystem22CompMeshIterPropertiesEPN12dmGameObject25SceneNodePropertyIteratorEPNS0_9SceneNodeE, symObjAddr: 0x2918, symBinAddr: 0x100057EAC, symSize: 0x40 }
  - { offset: 0x10772E, size: 0x8, addend: 0x0, symName: __ZN12dmGameSystemL29CompMeshIterPropertiesGetNextEPN12dmGameObject25SceneNodePropertyIteratorE, symObjAddr: 0x2958, symBinAddr: 0x100057EEC, symSize: 0xA4 }
  - { offset: 0x107739, size: 0x8, addend: 0x0, symName: __ZN12dmGameSystemL29CompMeshIterPropertiesGetNextEPN12dmGameObject25SceneNodePropertyIteratorE, symObjAddr: 0x2958, symBinAddr: 0x100057EEC, symSize: 0xA4 }
  - { offset: 0x10786C, size: 0x8, addend: 0x0, symName: _ComponentTypeMesh, symObjAddr: 0x29FC, symBinAddr: 0x100057F90, symSize: 0x24 }
  - { offset: 0x107877, size: 0x8, addend: 0x0, symName: __ZN12dmGameSystemL18CompMeshTypeCreateEPKN12dmGameObject22ComponentTypeCreateCtxEPNS0_13ComponentTypeE, symObjAddr: 0x2A20, symBinAddr: 0x100057FB4, symSize: 0x1A4 }
  - { offset: 0x107ABF, size: 0x8, addend: 0x0, symName: __ZN12dmGameSystemL19CompMeshTypeDestroyEPKN12dmGameObject22ComponentTypeCreateCtxEPNS0_13ComponentTypeE, symObjAddr: 0x2BC4, symBinAddr: 0x100058158, symSize: 0x24 }
  - { offset: 0x10806A, size: 0x8, addend: 0x0, symName: _ComponentTypeMesh1215, symObjAddr: 0x3F3D0, symBinAddr: 0x10036A4B0, symSize: 0x0 }
  - { offset: 0x10A9B1, size: 0x8, addend: 0x0, symName: __Z9rmtp_Meshv.cold.1, symObjAddr: 0x3C2C, symBinAddr: 0x100250CC0, symSize: 0x54 }
  - { offset: 0x10AB94, size: 0x8, addend: 0x0, symName: __ZN12dmObjectPoolIPN12dmGameSystem13MeshComponentEE11SetCapacityEj, symObjAddr: 0x1CC, symBinAddr: 0x1000557D0, symSize: 0xD8 }
  - { offset: 0x10AD26, size: 0x8, addend: 0x0, symName: __ZN12dmGameSystemL24ResourceReloadedCallbackEPK22ResourceReloadedParams, symObjAddr: 0x2A4, symBinAddr: 0x1000558A8, symSize: 0x2A0 }
  - { offset: 0x10AEF9, size: 0x8, addend: 0x0, symName: __ZN12dmGameSystemL24ResourceReloadedCallbackEPK22ResourceReloadedParams.cold.1, symObjAddr: 0x3E28, symBinAddr: 0x100250D14, symSize: 0x24 }
  - { offset: 0x10AFCF, size: 0x8, addend: 0x0, symName: __ZN12dmGameSystem9MeshWorldD2Ev, symObjAddr: 0x2BE8, symBinAddr: 0x10005817C, symSize: 0xB8 }
  - { offset: 0x10B669, size: 0x8, addend: 0x0, symName: __ZN12dmObjectPoolIPN12dmGameSystem13MeshComponentEE5AllocEv, symObjAddr: 0x9A0, symBinAddr: 0x100055FA4, symSize: 0xDC }
  - { offset: 0x10B821, size: 0x8, addend: 0x0, symName: __ZN12dmGameSystemL18CreateVertexBufferEPNS_9MeshWorldEPNS_14BufferResourceE, symObjAddr: 0xA7C, symBinAddr: 0x100056080, symSize: 0x160 }
  - { offset: 0x10BAA7, size: 0x8, addend: 0x0, symName: __ZN12dmGameSystemL18CreateVertexBufferEPNS_9MeshWorldEPNS_14BufferResourceE.cold.1, symObjAddr: 0x3F94, symBinAddr: 0x100250D38, symSize: 0x28 }
  - { offset: 0x10BCF6, size: 0x8, addend: 0x0, symName: __ZN11dmHashTableIyN12dmGameSystem16VertexBufferInfoEE5EraseEy, symObjAddr: 0x2F0C, symBinAddr: 0x100058234, symSize: 0xA8 }
  - { offset: 0x10BD3D, size: 0x8, addend: 0x0, symName: __ZN12dmGameSystemL18UpdateVertexBufferEPNS_9MeshWorldEPNS_14BufferResourceEj.cold.1, symObjAddr: 0x4004, symBinAddr: 0x100250D60, symSize: 0x28 }
  - { offset: 0x10BDDE, size: 0x8, addend: 0x0, symName: __ZN12dmObjectPoolIPN12dmGameSystem13MeshComponentEE4FreeEjb, symObjAddr: 0x10D0, symBinAddr: 0x1000566D4, symSize: 0x108 }
  - { offset: 0x10BFFD, size: 0x8, addend: 0x0, symName: __ZN12dmGameSystem19CompMeshAddToUpdateERKN12dmGameObject26ComponentAddToUpdateParamsE, symObjAddr: 0x11D8, symBinAddr: 0x1000567DC, symSize: 0x6C }
  - { offset: 0x10C080, size: 0x8, addend: 0x0, symName: __ZN12dmGameSystemL18DecRefVertexBufferEPNS_9MeshWorldEy.cold.3, symObjAddr: 0x4108, symBinAddr: 0x100250D88, symSize: 0x28 }
  - { offset: 0x10C098, size: 0x8, addend: 0x0, symName: __ZN11dmHashTableIyN12dmGameSystem16VertexBufferInfoEE5EraseEy, symObjAddr: 0x2F0C, symBinAddr: 0x100058234, symSize: 0xA8 }
  - { offset: 0x10C14E, size: 0x8, addend: 0x0, symName: __ZN12dmGameSystemL18FillAndApplyStreamEPKNS_14BufferResourceEbRKN10Vectormath3Aos7Matrix4EyN11dmBufferDDF9ValueTypeEPvSA_, symObjAddr: 0x2FB4, symBinAddr: 0x1000582DC, symSize: 0xAE8 }
  - { offset: 0x10C6F3, size: 0x8, addend: 0x0, symName: __ZN12dmGameSystemL18RenderListDispatchERKN8dmRender24RenderListDispatchParamsE.cold.8, symObjAddr: 0x43F0, symBinAddr: 0x100250DD8, symSize: 0x28 }
  - { offset: 0x10C7A7, size: 0x8, addend: 0x0, symName: __ZN12dmGameSystemL18RenderListDispatchERKN8dmRender24RenderListDispatchParamsE.cold.1, symObjAddr: 0x42EC, symBinAddr: 0x100250DB0, symSize: 0x28 }
  - { offset: 0x10C901, size: 0x8, addend: 0x0, symName: __ZN12dmGameSystemL18RenderListDispatchERKN8dmRender24RenderListDispatchParamsE.cold.12, symObjAddr: 0x448C, symBinAddr: 0x100250E28, symSize: 0x28 }
  - { offset: 0x10C919, size: 0x8, addend: 0x0, symName: __ZN12dmGameSystemL18RenderListDispatchERKN8dmRender24RenderListDispatchParamsE.cold.9, symObjAddr: 0x4418, symBinAddr: 0x100250E00, symSize: 0x28 }
  - { offset: 0x10CB02, size: 0x8, addend: 0x0, symName: __ZN12dmGameSystem22CompMeshIterPropertiesEPN12dmGameObject25SceneNodePropertyIteratorEPNS0_9SceneNodeE.cold.1, symObjAddr: 0x45D4, symBinAddr: 0x100250E50, symSize: 0x28 }
  - { offset: 0x10CB1A, size: 0x8, addend: 0x0, symName: __ZN12dmGameSystem22CompMeshIterPropertiesEPN12dmGameObject25SceneNodePropertyIteratorEPNS0_9SceneNodeE.cold.2, symObjAddr: 0x45FC, symBinAddr: 0x100250E78, symSize: 0x28 }
  - { offset: 0x10CB82, size: 0x8, addend: 0x0, symName: _ComponentTypeMesh, symObjAddr: 0x29FC, symBinAddr: 0x100057F90, symSize: 0x24 }
  - { offset: 0x10CFD9, size: 0x8, addend: 0x0, symName: __GLOBAL__sub_I_comp_mesh.cpp, symObjAddr: 0x4820, symBinAddr: 0x100058F5C, symSize: 0x8C }
  - { offset: 0x10D0D2, size: 0x8, addend: 0x0, symName: __GLOBAL__sub_I_comp_mesh.cpp.cold.1, symObjAddr: 0x48AC, symBinAddr: 0x100250EA0, symSize: 0x5C }
  - { offset: 0x10D114, size: 0x8, addend: 0x0, symName: __GLOBAL__sub_I_comp_mesh.cpp.cold.2, symObjAddr: 0x4908, symBinAddr: 0x100250EFC, symSize: 0x5C }
  - { offset: 0x10D156, size: 0x8, addend: 0x0, symName: __GLOBAL__sub_I_comp_mesh.cpp.cold.3, symObjAddr: 0x4964, symBinAddr: 0x100250F58, symSize: 0x5C }
  - { offset: 0x10D198, size: 0x8, addend: 0x0, symName: _OUTLINED_FUNCTION_4, symObjAddr: 0x47F8, symBinAddr: 0x100058F54, symSize: 0x8 }
  - { offset: 0x10D3D0, size: 0x8, addend: 0x0, symName: __ZL17rmtp_Components_p, symObjAddr: 0x26E20, symBinAddr: 0x100358878, symSize: 0x0 }
  - { offset: 0x10D3FC, size: 0x8, addend: 0x0, symName: __Z15rmtp_ParticleFxv, symObjAddr: 0x0, symBinAddr: 0x100058FE8, symSize: 0x30 }
  - { offset: 0x10D41C, size: 0x8, addend: 0x0, symName: __MergedGlobals, symObjAddr: 0x26E30, symBinAddr: 0x100358888, symSize: 0x0 }
  - { offset: 0x10D686, size: 0x8, addend: 0x0, symName: __ZN12dmGameSystem22CompParticleFXNewWorldERKN12dmGameObject23ComponentNewWorldParamsE, symObjAddr: 0xC0, symBinAddr: 0x100059018, symSize: 0x2C8 }
  - { offset: 0x10DAC0, size: 0x8, addend: 0x0, symName: __ZN12dmGameSystem25CompParticleFXDeleteWorldERKN12dmGameObject26ComponentDeleteWorldParamsE, symObjAddr: 0x388, symBinAddr: 0x1000592E0, symSize: 0xF4 }
  - { offset: 0x10DACB, size: 0x8, addend: 0x0, symName: __ZN12dmGameSystem25CompParticleFXDeleteWorldERKN12dmGameObject26ComponentDeleteWorldParamsE, symObjAddr: 0x388, symBinAddr: 0x1000592E0, symSize: 0xF4 }
